ARM GAS  /tmp/ccw0tTki.s 			page 1


   1              		.cpu cortex-m4
   2              		.arch armv7e-m
   3              		.fpu fpv4-sp-d16
   4              		.eabi_attribute 27, 1
   5              		.eabi_attribute 28, 1
   6              		.eabi_attribute 20, 1
   7              		.eabi_attribute 21, 1
   8              		.eabi_attribute 23, 3
   9              		.eabi_attribute 24, 1
  10              		.eabi_attribute 25, 1
  11              		.eabi_attribute 26, 1
  12              		.eabi_attribute 30, 1
  13              		.eabi_attribute 34, 1
  14              		.eabi_attribute 18, 4
  15              		.file	"main.cpp"
  16              		.text
  17              	.Ltext0:
  18              		.cfi_sections	.debug_frame
  19              		.file 1 "Core/Src/main.cpp"
  20              		.section	.text._Z41__static_initialization_and_destruction_0v,"ax",%progbits
  21              		.align	1
  22              		.syntax unified
  23              		.thumb
  24              		.thumb_func
  26              	_Z41__static_initialization_and_destruction_0v:
  27              		.fnstart
  28              	.LFB622:
   1:Core/Src/main.cpp **** /* USER CODE BEGIN Header */
   2:Core/Src/main.cpp **** /**
   3:Core/Src/main.cpp ****   ******************************************************************************
   4:Core/Src/main.cpp ****   * @file           : main.c
   5:Core/Src/main.cpp ****   * @brief          : Main program body
   6:Core/Src/main.cpp ****   ******************************************************************************
   7:Core/Src/main.cpp ****   * @attention
   8:Core/Src/main.cpp ****   *
   9:Core/Src/main.cpp ****   * Copyright (c) 2024 STMicroelectronics.
  10:Core/Src/main.cpp ****   * All rights reserved.
  11:Core/Src/main.cpp ****   *
  12:Core/Src/main.cpp ****   * This software is licensed under terms that can be found in the LICENSE file
  13:Core/Src/main.cpp ****   * in the root directory of this software component.
  14:Core/Src/main.cpp ****   * If no LICENSE file comes with this software, it is provided AS-IS.
  15:Core/Src/main.cpp ****   *
  16:Core/Src/main.cpp ****   ******************************************************************************
  17:Core/Src/main.cpp ****   */
  18:Core/Src/main.cpp **** /* USER CODE END Header */
  19:Core/Src/main.cpp **** /* Includes ------------------------------------------------------------------*/
  20:Core/Src/main.cpp **** 
  21:Core/Src/main.cpp **** #include "main.h"
  22:Core/Src/main.cpp **** 
  23:Core/Src/main.cpp **** 
  24:Core/Src/main.cpp **** /* Private includes ----------------------------------------------------------*/
  25:Core/Src/main.cpp **** /* USER CODE BEGIN Includes */
  26:Core/Src/main.cpp **** #include "audio_test.h"
  27:Core/Src/main.cpp **** #include "sleep_test.h"
  28:Core/Src/main.cpp **** /* USER CODE END Includes */
  29:Core/Src/main.cpp **** 
  30:Core/Src/main.cpp **** /* Private typedef -----------------------------------------------------------*/
ARM GAS  /tmp/ccw0tTki.s 			page 2


  31:Core/Src/main.cpp **** /* USER CODE BEGIN PTD */
  32:Core/Src/main.cpp **** 
  33:Core/Src/main.cpp **** /* USER CODE END PTD */
  34:Core/Src/main.cpp **** 
  35:Core/Src/main.cpp **** /* Private define ------------------------------------------------------------*/
  36:Core/Src/main.cpp **** /* USER CODE BEGIN PD */
  37:Core/Src/main.cpp **** const int n_interrupts = 2;
  38:Core/Src/main.cpp **** 
  39:Core/Src/main.cpp **** const int spi_txcplt_irqn = 0;
  40:Core/Src/main.cpp **** const int alarm_wakeup_irqn = 1;
  41:Core/Src/main.cpp **** /* USER CODE END PD */
  42:Core/Src/main.cpp **** 
  43:Core/Src/main.cpp **** /* Private macro -------------------------------------------------------------*/
  44:Core/Src/main.cpp **** /* USER CODE BEGIN PM */
  45:Core/Src/main.cpp **** 
  46:Core/Src/main.cpp **** /* USER CODE END PM */
  47:Core/Src/main.cpp **** 
  48:Core/Src/main.cpp **** /* Private variables ---------------------------------------------------------*/
  49:Core/Src/main.cpp **** I2C_HandleTypeDef hi2c1;
  50:Core/Src/main.cpp **** 
  51:Core/Src/main.cpp **** I2S_HandleTypeDef hi2s2;
  52:Core/Src/main.cpp **** DMA_HandleTypeDef hdma_spi2_tx;
  53:Core/Src/main.cpp **** 
  54:Core/Src/main.cpp **** RTC_HandleTypeDef hrtc;
  55:Core/Src/main.cpp **** 
  56:Core/Src/main.cpp **** SPI_HandleTypeDef hspi1;
  57:Core/Src/main.cpp **** 
  58:Core/Src/main.cpp **** UART_HandleTypeDef huart1;
  59:Core/Src/main.cpp **** 
  60:Core/Src/main.cpp **** /* USER CODE BEGIN PV */
  61:Core/Src/main.cpp **** 
  62:Core/Src/main.cpp **** i2sObject i2sObj(hi2s2);
  63:Core/Src/main.cpp **** alarmObject alarmObj(hrtc);
  64:Core/Src/main.cpp **** 
  65:Core/Src/main.cpp **** static InterruptHandler *Handlers[n_interrupts];
  66:Core/Src/main.cpp **** 
  67:Core/Src/main.cpp **** /* USER CODE END PV */
  68:Core/Src/main.cpp **** 
  69:Core/Src/main.cpp **** /* Private function prototypes -----------------------------------------------*/
  70:Core/Src/main.cpp **** void SystemClock_Config(void);
  71:Core/Src/main.cpp **** static void MX_GPIO_Init(void);
  72:Core/Src/main.cpp **** static void MX_DMA_Init(void);
  73:Core/Src/main.cpp **** static void MX_I2C1_Init(void);
  74:Core/Src/main.cpp **** static void MX_I2S2_Init(void);
  75:Core/Src/main.cpp **** static void MX_SPI1_Init(void);
  76:Core/Src/main.cpp **** static void MX_USART1_UART_Init(void);
  77:Core/Src/main.cpp **** static void MX_RTC_Init(void);
  78:Core/Src/main.cpp **** void register_handler(int irq_n, InterruptHandler* handler);
  79:Core/Src/main.cpp **** /* USER CODE BEGIN PFP */
  80:Core/Src/main.cpp **** 
  81:Core/Src/main.cpp **** /* USER CODE END PFP */
  82:Core/Src/main.cpp **** 
  83:Core/Src/main.cpp **** /* Private user code ---------------------------------------------------------*/
  84:Core/Src/main.cpp **** /* USER CODE BEGIN 0 */
  85:Core/Src/main.cpp **** 
  86:Core/Src/main.cpp **** /* USER CODE END 0 */
  87:Core/Src/main.cpp **** 
ARM GAS  /tmp/ccw0tTki.s 			page 3


  88:Core/Src/main.cpp **** /**
  89:Core/Src/main.cpp ****   * @brief  The application entry point.
  90:Core/Src/main.cpp ****   * @retval int
  91:Core/Src/main.cpp ****   */
  92:Core/Src/main.cpp **** int main(void)
  93:Core/Src/main.cpp **** {
  94:Core/Src/main.cpp ****   /* USER CODE BEGIN 1 */
  95:Core/Src/main.cpp ****   
  96:Core/Src/main.cpp ****   /* USER CODE END 1 */
  97:Core/Src/main.cpp **** 
  98:Core/Src/main.cpp ****   /* MCU Configuration--------------------------------------------------------*/
  99:Core/Src/main.cpp **** 
 100:Core/Src/main.cpp ****   /* Reset of all peripherals, Initializes the Flash interface and the Systick. */
 101:Core/Src/main.cpp ****   HAL_Init();
 102:Core/Src/main.cpp **** 
 103:Core/Src/main.cpp ****   /* USER CODE BEGIN Init */
 104:Core/Src/main.cpp **** 
 105:Core/Src/main.cpp ****   /* USER CODE END Init */
 106:Core/Src/main.cpp **** 
 107:Core/Src/main.cpp ****   /* Configure the system clock */
 108:Core/Src/main.cpp ****   SystemClock_Config();
 109:Core/Src/main.cpp **** 
 110:Core/Src/main.cpp ****   /* USER CODE BEGIN SysInit */
 111:Core/Src/main.cpp **** 
 112:Core/Src/main.cpp ****   /* USER CODE END SysInit */
 113:Core/Src/main.cpp **** 
 114:Core/Src/main.cpp ****   /* Initialize all configured peripherals */
 115:Core/Src/main.cpp ****   MX_GPIO_Init();
 116:Core/Src/main.cpp ****   MX_DMA_Init();
 117:Core/Src/main.cpp ****   MX_I2C1_Init();
 118:Core/Src/main.cpp ****   MX_I2S2_Init();
 119:Core/Src/main.cpp ****   MX_SPI1_Init();
 120:Core/Src/main.cpp ****   MX_USART1_UART_Init();
 121:Core/Src/main.cpp ****   MX_RTC_Init();
 122:Core/Src/main.cpp ****   /* USER CODE BEGIN 2 */
 123:Core/Src/main.cpp ****   register_handler(spi_txcplt_irqn, &i2sObj);
 124:Core/Src/main.cpp ****   register_handler(alarm_wakeup_irqn, &alarmObj);
 125:Core/Src/main.cpp ****   //audio_test::runTest(hi2c1, hdma_spi2_tx, i2sObj);
 126:Core/Src/main.cpp ****   sleep_test::runTest(hrtc);
 127:Core/Src/main.cpp **** 
 128:Core/Src/main.cpp ****   /* USER CODE END 2 */
 129:Core/Src/main.cpp ****  
 130:Core/Src/main.cpp ****   /* Infinite loop */
 131:Core/Src/main.cpp ****   /* USER CODE BEGIN WHILE */
 132:Core/Src/main.cpp ****   while (1)
 133:Core/Src/main.cpp ****   {
 134:Core/Src/main.cpp ****     /* USER CODE END WHILE */
 135:Core/Src/main.cpp **** 
 136:Core/Src/main.cpp ****     /* USER CODE BEGIN 3 */
 137:Core/Src/main.cpp ****   }
 138:Core/Src/main.cpp ****   /* USER CODE END 3 */
 139:Core/Src/main.cpp **** }
 140:Core/Src/main.cpp **** 
 141:Core/Src/main.cpp **** /**
 142:Core/Src/main.cpp ****   * @brief System Clock Configuration
 143:Core/Src/main.cpp ****   * @retval None
 144:Core/Src/main.cpp ****   */
ARM GAS  /tmp/ccw0tTki.s 			page 4


 145:Core/Src/main.cpp **** void SystemClock_Config(void)
 146:Core/Src/main.cpp **** {
 147:Core/Src/main.cpp ****   RCC_OscInitTypeDef RCC_OscInitStruct = {0};
 148:Core/Src/main.cpp ****   RCC_ClkInitTypeDef RCC_ClkInitStruct = {0};
 149:Core/Src/main.cpp **** 
 150:Core/Src/main.cpp ****   /** Configure the main internal regulator output voltage
 151:Core/Src/main.cpp ****   */
 152:Core/Src/main.cpp ****   __HAL_RCC_PWR_CLK_ENABLE();
 153:Core/Src/main.cpp ****   __HAL_PWR_VOLTAGESCALING_CONFIG(PWR_REGULATOR_VOLTAGE_SCALE2);
 154:Core/Src/main.cpp **** 
 155:Core/Src/main.cpp ****   /** Initializes the RCC Oscillators according to the specified parameters
 156:Core/Src/main.cpp ****   * in the RCC_OscInitTypeDef structure.
 157:Core/Src/main.cpp ****   */
 158:Core/Src/main.cpp ****   RCC_OscInitStruct.OscillatorType = RCC_OSCILLATORTYPE_HSI|RCC_OSCILLATORTYPE_LSI
 159:Core/Src/main.cpp ****                               |RCC_OSCILLATORTYPE_HSE;
 160:Core/Src/main.cpp ****   RCC_OscInitStruct.HSEState = RCC_HSE_ON;
 161:Core/Src/main.cpp ****   RCC_OscInitStruct.HSIState = RCC_HSI_ON;
 162:Core/Src/main.cpp ****   RCC_OscInitStruct.HSICalibrationValue = RCC_HSICALIBRATION_DEFAULT;
 163:Core/Src/main.cpp ****   RCC_OscInitStruct.LSIState = RCC_LSI_ON;
 164:Core/Src/main.cpp ****   RCC_OscInitStruct.PLL.PLLState = RCC_PLL_ON;
 165:Core/Src/main.cpp ****   RCC_OscInitStruct.PLL.PLLSource = RCC_PLLSOURCE_HSE;
 166:Core/Src/main.cpp ****   RCC_OscInitStruct.PLL.PLLM = 25;
 167:Core/Src/main.cpp ****   RCC_OscInitStruct.PLL.PLLN = 168;
 168:Core/Src/main.cpp ****   RCC_OscInitStruct.PLL.PLLP = RCC_PLLP_DIV2;
 169:Core/Src/main.cpp ****   RCC_OscInitStruct.PLL.PLLQ = 4;
 170:Core/Src/main.cpp ****   if (HAL_RCC_OscConfig(&RCC_OscInitStruct) != HAL_OK)
 171:Core/Src/main.cpp ****   {
 172:Core/Src/main.cpp ****     Error_Handler();
 173:Core/Src/main.cpp ****   }
 174:Core/Src/main.cpp **** 
 175:Core/Src/main.cpp ****   /** Initializes the CPU, AHB and APB buses clocks
 176:Core/Src/main.cpp ****   */
 177:Core/Src/main.cpp ****   RCC_ClkInitStruct.ClockType = RCC_CLOCKTYPE_HCLK|RCC_CLOCKTYPE_SYSCLK
 178:Core/Src/main.cpp ****                               |RCC_CLOCKTYPE_PCLK1|RCC_CLOCKTYPE_PCLK2;
 179:Core/Src/main.cpp ****   RCC_ClkInitStruct.SYSCLKSource = RCC_SYSCLKSOURCE_PLLCLK;
 180:Core/Src/main.cpp ****   RCC_ClkInitStruct.AHBCLKDivider = RCC_SYSCLK_DIV1;
 181:Core/Src/main.cpp ****   RCC_ClkInitStruct.APB1CLKDivider = RCC_HCLK_DIV2;
 182:Core/Src/main.cpp ****   RCC_ClkInitStruct.APB2CLKDivider = RCC_HCLK_DIV1;
 183:Core/Src/main.cpp **** 
 184:Core/Src/main.cpp ****   if (HAL_RCC_ClockConfig(&RCC_ClkInitStruct, FLASH_LATENCY_2) != HAL_OK)
 185:Core/Src/main.cpp ****   {
 186:Core/Src/main.cpp ****     Error_Handler();
 187:Core/Src/main.cpp ****   }
 188:Core/Src/main.cpp ****   HAL_RCC_MCOConfig(RCC_MCO1, RCC_MCO1SOURCE_HSI, RCC_MCODIV_1);
 189:Core/Src/main.cpp **** }
 190:Core/Src/main.cpp **** 
 191:Core/Src/main.cpp **** /**
 192:Core/Src/main.cpp ****   * @brief I2C1 Initialization Function
 193:Core/Src/main.cpp ****   * @param None
 194:Core/Src/main.cpp ****   * @retval None
 195:Core/Src/main.cpp ****   */
 196:Core/Src/main.cpp **** static void MX_I2C1_Init(void)
 197:Core/Src/main.cpp **** {
 198:Core/Src/main.cpp **** 
 199:Core/Src/main.cpp ****   /* USER CODE BEGIN I2C1_Init 0 */
 200:Core/Src/main.cpp **** 
 201:Core/Src/main.cpp ****   /* USER CODE END I2C1_Init 0 */
ARM GAS  /tmp/ccw0tTki.s 			page 5


 202:Core/Src/main.cpp **** 
 203:Core/Src/main.cpp ****   /* USER CODE BEGIN I2C1_Init 1 */
 204:Core/Src/main.cpp **** 
 205:Core/Src/main.cpp ****   /* USER CODE END I2C1_Init 1 */
 206:Core/Src/main.cpp ****   hi2c1.Instance = I2C1;
 207:Core/Src/main.cpp ****   hi2c1.Init.ClockSpeed = 100000;
 208:Core/Src/main.cpp ****   hi2c1.Init.DutyCycle = I2C_DUTYCYCLE_2;
 209:Core/Src/main.cpp ****   hi2c1.Init.OwnAddress1 = 0;
 210:Core/Src/main.cpp ****   hi2c1.Init.AddressingMode = I2C_ADDRESSINGMODE_7BIT;
 211:Core/Src/main.cpp ****   hi2c1.Init.DualAddressMode = I2C_DUALADDRESS_DISABLE;
 212:Core/Src/main.cpp ****   hi2c1.Init.OwnAddress2 = 0;
 213:Core/Src/main.cpp ****   hi2c1.Init.GeneralCallMode = I2C_GENERALCALL_DISABLE;
 214:Core/Src/main.cpp ****   hi2c1.Init.NoStretchMode = I2C_NOSTRETCH_DISABLE;
 215:Core/Src/main.cpp ****   if (HAL_I2C_Init(&hi2c1) != HAL_OK)
 216:Core/Src/main.cpp ****   {
 217:Core/Src/main.cpp ****     Error_Handler();
 218:Core/Src/main.cpp ****   }
 219:Core/Src/main.cpp ****   /* USER CODE BEGIN I2C1_Init 2 */
 220:Core/Src/main.cpp **** 
 221:Core/Src/main.cpp ****   /* USER CODE END I2C1_Init 2 */
 222:Core/Src/main.cpp **** 
 223:Core/Src/main.cpp **** }
 224:Core/Src/main.cpp **** 
 225:Core/Src/main.cpp **** /**
 226:Core/Src/main.cpp ****   * @brief I2S2 Initialization Function
 227:Core/Src/main.cpp ****   * @param None
 228:Core/Src/main.cpp ****   * @retval None
 229:Core/Src/main.cpp ****   */
 230:Core/Src/main.cpp **** static void MX_I2S2_Init(void)
 231:Core/Src/main.cpp **** {
 232:Core/Src/main.cpp **** 
 233:Core/Src/main.cpp ****   /* USER CODE BEGIN I2S2_Init 0 */
 234:Core/Src/main.cpp **** 
 235:Core/Src/main.cpp ****   /* USER CODE END I2S2_Init 0 */
 236:Core/Src/main.cpp **** 
 237:Core/Src/main.cpp ****   /* USER CODE BEGIN I2S2_Init 1 */
 238:Core/Src/main.cpp **** 
 239:Core/Src/main.cpp ****   /* USER CODE END I2S2_Init 1 */
 240:Core/Src/main.cpp ****   hi2s2.Instance = SPI2;
 241:Core/Src/main.cpp ****   hi2s2.Init.Mode = I2S_MODE_MASTER_TX;
 242:Core/Src/main.cpp ****   hi2s2.Init.Standard = I2S_STANDARD_MSB;
 243:Core/Src/main.cpp ****   hi2s2.Init.DataFormat = I2S_DATAFORMAT_32B;
 244:Core/Src/main.cpp ****   hi2s2.Init.MCLKOutput = I2S_MCLKOUTPUT_DISABLE;
 245:Core/Src/main.cpp ****   hi2s2.Init.AudioFreq = I2S_AUDIOFREQ_96K;
 246:Core/Src/main.cpp ****   hi2s2.Init.CPOL = I2S_CPOL_LOW;
 247:Core/Src/main.cpp ****   hi2s2.Init.ClockSource = I2S_CLOCK_PLL;
 248:Core/Src/main.cpp ****   hi2s2.Init.FullDuplexMode = I2S_FULLDUPLEXMODE_DISABLE;
 249:Core/Src/main.cpp ****   if (HAL_I2S_Init(&hi2s2) != HAL_OK)
 250:Core/Src/main.cpp ****   {
 251:Core/Src/main.cpp ****     Error_Handler();
 252:Core/Src/main.cpp ****   }
 253:Core/Src/main.cpp ****   /* USER CODE BEGIN I2S2_Init 2 */
 254:Core/Src/main.cpp **** 
 255:Core/Src/main.cpp ****   /* USER CODE END I2S2_Init 2 */
 256:Core/Src/main.cpp **** 
 257:Core/Src/main.cpp **** }
 258:Core/Src/main.cpp **** 
ARM GAS  /tmp/ccw0tTki.s 			page 6


 259:Core/Src/main.cpp **** /**
 260:Core/Src/main.cpp ****   * @brief RTC Initialization Function
 261:Core/Src/main.cpp ****   * @param None
 262:Core/Src/main.cpp ****   * @retval None
 263:Core/Src/main.cpp ****   */
 264:Core/Src/main.cpp **** static void MX_RTC_Init(void)
 265:Core/Src/main.cpp **** {
 266:Core/Src/main.cpp **** 
 267:Core/Src/main.cpp ****   /* USER CODE BEGIN RTC_Init 0 */
 268:Core/Src/main.cpp **** 
 269:Core/Src/main.cpp ****   /* USER CODE END RTC_Init 0 */
 270:Core/Src/main.cpp **** 
 271:Core/Src/main.cpp ****   RTC_TimeTypeDef sTime = {0};
 272:Core/Src/main.cpp ****   RTC_DateTypeDef sDate = {0};
 273:Core/Src/main.cpp ****   RTC_AlarmTypeDef sAlarm = {0};
 274:Core/Src/main.cpp **** 
 275:Core/Src/main.cpp ****   /* USER CODE BEGIN RTC_Init 1 */
 276:Core/Src/main.cpp **** 
 277:Core/Src/main.cpp ****   /* USER CODE END RTC_Init 1 */
 278:Core/Src/main.cpp **** 
 279:Core/Src/main.cpp ****   /** Initialize RTC Only
 280:Core/Src/main.cpp ****   */
 281:Core/Src/main.cpp ****   hrtc.Instance = RTC;
 282:Core/Src/main.cpp ****   hrtc.Init.HourFormat = RTC_HOURFORMAT_24;
 283:Core/Src/main.cpp ****   hrtc.Init.AsynchPrediv = 127;
 284:Core/Src/main.cpp ****   hrtc.Init.SynchPrediv = 255;
 285:Core/Src/main.cpp ****   hrtc.Init.OutPut = RTC_OUTPUT_ALARMA;
 286:Core/Src/main.cpp ****   hrtc.Init.OutPutPolarity = RTC_OUTPUT_POLARITY_LOW;
 287:Core/Src/main.cpp ****   hrtc.Init.OutPutType = RTC_OUTPUT_TYPE_PUSHPULL;
 288:Core/Src/main.cpp ****   if (HAL_RTC_Init(&hrtc) != HAL_OK)
 289:Core/Src/main.cpp ****   {
 290:Core/Src/main.cpp ****     Error_Handler();
 291:Core/Src/main.cpp ****   }
 292:Core/Src/main.cpp **** 
 293:Core/Src/main.cpp ****   /* USER CODE BEGIN Check_RTC_BKUP */
 294:Core/Src/main.cpp **** 
 295:Core/Src/main.cpp ****   /* USER CODE END Check_RTC_BKUP */
 296:Core/Src/main.cpp **** 
 297:Core/Src/main.cpp ****   /** Initialize RTC and set the Time and Date
 298:Core/Src/main.cpp ****   */
 299:Core/Src/main.cpp ****   sTime.Hours = 0x0;
 300:Core/Src/main.cpp ****   sTime.Minutes = 0x0;
 301:Core/Src/main.cpp ****   sTime.Seconds = 0x0;
 302:Core/Src/main.cpp ****   sTime.DayLightSaving = RTC_DAYLIGHTSAVING_NONE;
 303:Core/Src/main.cpp ****   sTime.StoreOperation = RTC_STOREOPERATION_RESET;
 304:Core/Src/main.cpp ****   if (HAL_RTC_SetTime(&hrtc, &sTime, RTC_FORMAT_BCD) != HAL_OK)
 305:Core/Src/main.cpp ****   {
 306:Core/Src/main.cpp ****     Error_Handler();
 307:Core/Src/main.cpp ****   }
 308:Core/Src/main.cpp ****   sDate.WeekDay = RTC_WEEKDAY_MONDAY;
 309:Core/Src/main.cpp ****   sDate.Month = RTC_MONTH_JANUARY;
 310:Core/Src/main.cpp ****   sDate.Date = 0x1;
 311:Core/Src/main.cpp ****   sDate.Year = 0x0;
 312:Core/Src/main.cpp **** 
 313:Core/Src/main.cpp ****   if (HAL_RTC_SetDate(&hrtc, &sDate, RTC_FORMAT_BCD) != HAL_OK)
 314:Core/Src/main.cpp ****   {
 315:Core/Src/main.cpp ****     Error_Handler();
ARM GAS  /tmp/ccw0tTki.s 			page 7


 316:Core/Src/main.cpp ****   }
 317:Core/Src/main.cpp **** 
 318:Core/Src/main.cpp ****   /** Enable the Alarm A
 319:Core/Src/main.cpp ****   */
 320:Core/Src/main.cpp ****   sAlarm.AlarmTime.Hours = 0x0;
 321:Core/Src/main.cpp ****   sAlarm.AlarmTime.Minutes = 0x0;
 322:Core/Src/main.cpp ****   sAlarm.AlarmTime.Seconds = 0x10;
 323:Core/Src/main.cpp ****   sAlarm.AlarmTime.SubSeconds = 0x0;
 324:Core/Src/main.cpp ****   sAlarm.AlarmTime.DayLightSaving = RTC_DAYLIGHTSAVING_NONE;
 325:Core/Src/main.cpp ****   sAlarm.AlarmTime.StoreOperation = RTC_STOREOPERATION_RESET;
 326:Core/Src/main.cpp ****   sAlarm.AlarmMask = RTC_ALARMMASK_DATEWEEKDAY|RTC_ALARMMASK_HOURS
 327:Core/Src/main.cpp ****                               |RTC_ALARMMASK_MINUTES;
 328:Core/Src/main.cpp ****   sAlarm.AlarmSubSecondMask = RTC_ALARMSUBSECONDMASK_ALL;
 329:Core/Src/main.cpp ****   sAlarm.AlarmDateWeekDaySel = RTC_ALARMDATEWEEKDAYSEL_DATE;
 330:Core/Src/main.cpp ****   sAlarm.AlarmDateWeekDay = 0x1;
 331:Core/Src/main.cpp ****   sAlarm.Alarm = RTC_ALARM_A;
 332:Core/Src/main.cpp ****   if (HAL_RTC_SetAlarm_IT(&hrtc, &sAlarm, RTC_FORMAT_BCD) != HAL_OK)
 333:Core/Src/main.cpp ****   {
 334:Core/Src/main.cpp ****     Error_Handler();
 335:Core/Src/main.cpp ****   }
 336:Core/Src/main.cpp ****   /* USER CODE BEGIN RTC_Init 2 */
 337:Core/Src/main.cpp **** 
 338:Core/Src/main.cpp ****   /* USER CODE END RTC_Init 2 */
 339:Core/Src/main.cpp **** 
 340:Core/Src/main.cpp **** }
 341:Core/Src/main.cpp **** 
 342:Core/Src/main.cpp **** /**
 343:Core/Src/main.cpp ****   * @brief SPI1 Initialization Function
 344:Core/Src/main.cpp ****   * @param None
 345:Core/Src/main.cpp ****   * @retval None
 346:Core/Src/main.cpp ****   */
 347:Core/Src/main.cpp **** static void MX_SPI1_Init(void)
 348:Core/Src/main.cpp **** {
 349:Core/Src/main.cpp **** 
 350:Core/Src/main.cpp ****   /* USER CODE BEGIN SPI1_Init 0 */
 351:Core/Src/main.cpp **** 
 352:Core/Src/main.cpp ****   /* USER CODE END SPI1_Init 0 */
 353:Core/Src/main.cpp **** 
 354:Core/Src/main.cpp ****   /* USER CODE BEGIN SPI1_Init 1 */
 355:Core/Src/main.cpp **** 
 356:Core/Src/main.cpp ****   /* USER CODE END SPI1_Init 1 */
 357:Core/Src/main.cpp ****   /* SPI1 parameter configuration*/
 358:Core/Src/main.cpp ****   hspi1.Instance = SPI1;
 359:Core/Src/main.cpp ****   hspi1.Init.Mode = SPI_MODE_MASTER;
 360:Core/Src/main.cpp ****   hspi1.Init.Direction = SPI_DIRECTION_2LINES;
 361:Core/Src/main.cpp ****   hspi1.Init.DataSize = SPI_DATASIZE_8BIT;
 362:Core/Src/main.cpp ****   hspi1.Init.CLKPolarity = SPI_POLARITY_LOW;
 363:Core/Src/main.cpp ****   hspi1.Init.CLKPhase = SPI_PHASE_1EDGE;
 364:Core/Src/main.cpp ****   hspi1.Init.NSS = SPI_NSS_SOFT;
 365:Core/Src/main.cpp ****   hspi1.Init.BaudRatePrescaler = SPI_BAUDRATEPRESCALER_2;
 366:Core/Src/main.cpp ****   hspi1.Init.FirstBit = SPI_FIRSTBIT_MSB;
 367:Core/Src/main.cpp ****   hspi1.Init.TIMode = SPI_TIMODE_DISABLE;
 368:Core/Src/main.cpp ****   hspi1.Init.CRCCalculation = SPI_CRCCALCULATION_DISABLE;
 369:Core/Src/main.cpp ****   hspi1.Init.CRCPolynomial = 10;
 370:Core/Src/main.cpp ****   if (HAL_SPI_Init(&hspi1) != HAL_OK)
 371:Core/Src/main.cpp ****   {
 372:Core/Src/main.cpp ****     Error_Handler();
ARM GAS  /tmp/ccw0tTki.s 			page 8


 373:Core/Src/main.cpp ****   }
 374:Core/Src/main.cpp ****   /* USER CODE BEGIN SPI1_Init 2 */
 375:Core/Src/main.cpp **** 
 376:Core/Src/main.cpp ****   /* USER CODE END SPI1_Init 2 */
 377:Core/Src/main.cpp **** 
 378:Core/Src/main.cpp **** }
 379:Core/Src/main.cpp **** 
 380:Core/Src/main.cpp **** /**
 381:Core/Src/main.cpp ****   * @brief USART1 Initialization Function
 382:Core/Src/main.cpp ****   * @param None
 383:Core/Src/main.cpp ****   * @retval None
 384:Core/Src/main.cpp ****   */
 385:Core/Src/main.cpp **** static void MX_USART1_UART_Init(void)
 386:Core/Src/main.cpp **** {
 387:Core/Src/main.cpp **** 
 388:Core/Src/main.cpp ****   /* USER CODE BEGIN USART1_Init 0 */
 389:Core/Src/main.cpp **** 
 390:Core/Src/main.cpp ****   /* USER CODE END USART1_Init 0 */
 391:Core/Src/main.cpp **** 
 392:Core/Src/main.cpp ****   /* USER CODE BEGIN USART1_Init 1 */
 393:Core/Src/main.cpp **** 
 394:Core/Src/main.cpp ****   /* USER CODE END USART1_Init 1 */
 395:Core/Src/main.cpp ****   huart1.Instance = USART1;
 396:Core/Src/main.cpp ****   huart1.Init.BaudRate = 115200;
 397:Core/Src/main.cpp ****   huart1.Init.WordLength = UART_WORDLENGTH_8B;
 398:Core/Src/main.cpp ****   huart1.Init.StopBits = UART_STOPBITS_1;
 399:Core/Src/main.cpp ****   huart1.Init.Parity = UART_PARITY_NONE;
 400:Core/Src/main.cpp ****   huart1.Init.Mode = UART_MODE_TX_RX;
 401:Core/Src/main.cpp ****   huart1.Init.HwFlowCtl = UART_HWCONTROL_RTS_CTS;
 402:Core/Src/main.cpp ****   huart1.Init.OverSampling = UART_OVERSAMPLING_16;
 403:Core/Src/main.cpp ****   if (HAL_UART_Init(&huart1) != HAL_OK)
 404:Core/Src/main.cpp ****   {
 405:Core/Src/main.cpp ****     Error_Handler();
 406:Core/Src/main.cpp ****   }
 407:Core/Src/main.cpp ****   /* USER CODE BEGIN USART1_Init 2 */
 408:Core/Src/main.cpp **** 
 409:Core/Src/main.cpp ****   /* USER CODE END USART1_Init 2 */
 410:Core/Src/main.cpp **** 
 411:Core/Src/main.cpp **** }
 412:Core/Src/main.cpp **** 
 413:Core/Src/main.cpp **** /**
 414:Core/Src/main.cpp ****   * Enable DMA controller clock
 415:Core/Src/main.cpp ****   */
 416:Core/Src/main.cpp **** static void MX_DMA_Init(void)
 417:Core/Src/main.cpp **** {
 418:Core/Src/main.cpp **** 
 419:Core/Src/main.cpp ****   /* DMA controller clock enable */
 420:Core/Src/main.cpp ****   __HAL_RCC_DMA1_CLK_ENABLE();
 421:Core/Src/main.cpp **** 
 422:Core/Src/main.cpp ****   /* DMA interrupt init */
 423:Core/Src/main.cpp ****   /* DMA1_Stream4_IRQn interrupt configuration */
 424:Core/Src/main.cpp ****   HAL_NVIC_SetPriority(DMA1_Stream4_IRQn, 0, 0);
 425:Core/Src/main.cpp ****   HAL_NVIC_EnableIRQ(DMA1_Stream4_IRQn);
 426:Core/Src/main.cpp **** 
 427:Core/Src/main.cpp **** }
 428:Core/Src/main.cpp **** 
 429:Core/Src/main.cpp **** /**
ARM GAS  /tmp/ccw0tTki.s 			page 9


 430:Core/Src/main.cpp ****   * @brief GPIO Initialization Function
 431:Core/Src/main.cpp ****   * @param None
 432:Core/Src/main.cpp ****   * @retval None
 433:Core/Src/main.cpp ****   */
 434:Core/Src/main.cpp **** static void MX_GPIO_Init(void)
 435:Core/Src/main.cpp **** {
 436:Core/Src/main.cpp ****   GPIO_InitTypeDef GPIO_InitStruct = {0};
 437:Core/Src/main.cpp **** /* USER CODE BEGIN MX_GPIO_Init_1 */
 438:Core/Src/main.cpp **** /* USER CODE END MX_GPIO_Init_1 */
 439:Core/Src/main.cpp **** 
 440:Core/Src/main.cpp ****   /* GPIO Ports Clock Enable */
 441:Core/Src/main.cpp ****   __HAL_RCC_GPIOC_CLK_ENABLE();
 442:Core/Src/main.cpp ****   __HAL_RCC_GPIOH_CLK_ENABLE();
 443:Core/Src/main.cpp ****   __HAL_RCC_GPIOA_CLK_ENABLE();
 444:Core/Src/main.cpp ****   __HAL_RCC_GPIOB_CLK_ENABLE();
 445:Core/Src/main.cpp **** 
 446:Core/Src/main.cpp ****   /*Configure GPIO pin Output Level */
 447:Core/Src/main.cpp ****   HAL_GPIO_WritePin(GPIOA, ld_heartbeat_Pin|pwr_eeprom_Pin|write_eeprom_Pin, GPIO_PIN_RESET);
 448:Core/Src/main.cpp **** 
 449:Core/Src/main.cpp ****   /*Configure GPIO pin Output Level */
 450:Core/Src/main.cpp ****   HAL_GPIO_WritePin(GPIOB, hold_eeprom_Pin|pwr_aud_Pin, GPIO_PIN_RESET);
 451:Core/Src/main.cpp **** 
 452:Core/Src/main.cpp ****   /*Configure GPIO pins : ld_heartbeat_Pin pwr_eeprom_Pin write_eeprom_Pin */
 453:Core/Src/main.cpp ****   GPIO_InitStruct.Pin = ld_heartbeat_Pin|pwr_eeprom_Pin|write_eeprom_Pin;
 454:Core/Src/main.cpp ****   GPIO_InitStruct.Mode = GPIO_MODE_OUTPUT_PP;
 455:Core/Src/main.cpp ****   GPIO_InitStruct.Pull = GPIO_NOPULL;
 456:Core/Src/main.cpp ****   GPIO_InitStruct.Speed = GPIO_SPEED_FREQ_LOW;
 457:Core/Src/main.cpp ****   HAL_GPIO_Init(GPIOA, &GPIO_InitStruct);
 458:Core/Src/main.cpp **** 
 459:Core/Src/main.cpp ****   /*Configure GPIO pins : hold_eeprom_Pin pwr_aud_Pin */
 460:Core/Src/main.cpp ****   GPIO_InitStruct.Pin = hold_eeprom_Pin|pwr_aud_Pin;
 461:Core/Src/main.cpp ****   GPIO_InitStruct.Mode = GPIO_MODE_OUTPUT_PP;
 462:Core/Src/main.cpp ****   GPIO_InitStruct.Pull = GPIO_NOPULL;
 463:Core/Src/main.cpp ****   GPIO_InitStruct.Speed = GPIO_SPEED_FREQ_LOW;
 464:Core/Src/main.cpp ****   HAL_GPIO_Init(GPIOB, &GPIO_InitStruct);
 465:Core/Src/main.cpp **** 
 466:Core/Src/main.cpp ****   /*Configure GPIO pin : PA8 */
 467:Core/Src/main.cpp ****   GPIO_InitStruct.Pin = GPIO_PIN_8;
 468:Core/Src/main.cpp ****   GPIO_InitStruct.Mode = GPIO_MODE_AF_PP;
 469:Core/Src/main.cpp ****   GPIO_InitStruct.Pull = GPIO_NOPULL;
 470:Core/Src/main.cpp ****   GPIO_InitStruct.Speed = GPIO_SPEED_FREQ_LOW;
 471:Core/Src/main.cpp ****   GPIO_InitStruct.Alternate = GPIO_AF0_MCO;
 472:Core/Src/main.cpp ****   HAL_GPIO_Init(GPIOA, &GPIO_InitStruct);
 473:Core/Src/main.cpp **** 
 474:Core/Src/main.cpp **** /* USER CODE BEGIN MX_GPIO_Init_2 */
 475:Core/Src/main.cpp **** /* USER CODE END MX_GPIO_Init_2 */
 476:Core/Src/main.cpp **** }
 477:Core/Src/main.cpp **** 
 478:Core/Src/main.cpp **** /* USER CODE BEGIN 4 */
 479:Core/Src/main.cpp **** 
 480:Core/Src/main.cpp **** extern "C" void HAL_I2S_TxCpltCallback(I2S_HandleTypeDef *hi2s) {
 481:Core/Src/main.cpp ****   Handlers[spi_txcplt_irqn]->irq();
 482:Core/Src/main.cpp **** }                      
 483:Core/Src/main.cpp **** 
 484:Core/Src/main.cpp **** extern "C" void HAL_RTC_AlarmAEventCallback(RTC_HandleTypeDef *hrtc) {
 485:Core/Src/main.cpp ****   Handlers[alarm_wakeup_irqn]->irq();
 486:Core/Src/main.cpp **** }
ARM GAS  /tmp/ccw0tTki.s 			page 10


 487:Core/Src/main.cpp **** 
 488:Core/Src/main.cpp **** void register_handler(int irq_n, InterruptHandler* handler) {
 489:Core/Src/main.cpp ****     Handlers[irq_n] = handler;
 490:Core/Src/main.cpp **** }
 491:Core/Src/main.cpp **** 
 492:Core/Src/main.cpp **** /* USER CODE END 4 */
 493:Core/Src/main.cpp **** 
 494:Core/Src/main.cpp **** /**
 495:Core/Src/main.cpp ****   * @brief  This function is executed in case of error occurrence.
 496:Core/Src/main.cpp ****   * @retval None
 497:Core/Src/main.cpp ****   */
 498:Core/Src/main.cpp **** void Error_Handler(void)
 499:Core/Src/main.cpp **** {
 500:Core/Src/main.cpp ****   /* USER CODE BEGIN Error_Handler_Debug */
 501:Core/Src/main.cpp ****   /* User can add his own implementation to report the HAL error return state */
 502:Core/Src/main.cpp ****   __disable_irq();
 503:Core/Src/main.cpp ****   while (1)
 504:Core/Src/main.cpp ****   {
 505:Core/Src/main.cpp ****   }
 506:Core/Src/main.cpp ****   /* USER CODE END Error_Handler_Debug */
 507:Core/Src/main.cpp **** }
  29              		.loc 1 507 1 view -0
  30              		.cfi_startproc
  31              		@ args = 0, pretend = 0, frame = 0
  32              		@ frame_needed = 0, uses_anonymous_args = 0
  33              		@ link register save eliminated.
  34              	.LVL0:
  35              	.LBB44:
  36              	.LBI44:
  37              		.file 2 "Intermediate/Inc/concrete_interrupt_handlers.h"
   1:Intermediate/Inc/concrete_interrupt_handlers.h **** #pragma once
   2:Intermediate/Inc/concrete_interrupt_handlers.h **** #include "interrupt_handler.h"
   3:Intermediate/Inc/concrete_interrupt_handlers.h **** #include "stm32f4xx_hal.h"
   4:Intermediate/Inc/concrete_interrupt_handlers.h **** 
   5:Intermediate/Inc/concrete_interrupt_handlers.h **** class i2sObject : public InterruptObject<I2S_HandleTypeDef> {
   6:Intermediate/Inc/concrete_interrupt_handlers.h **** public:
   7:Intermediate/Inc/concrete_interrupt_handlers.h ****     using InterruptObject::InterruptObject;
  38              		.loc 2 7 28 view .LVU1
  39              	.LBB45:
  40              	.LBB46:
  41              	.LBB47:
  42              	.LBI47:
  43              		.file 3 "Intermediate/Inc/interrupt_handler.h"
   1:Intermediate/Inc/interrupt_handler.h **** // Minimal virtual interrupt handler
   2:Intermediate/Inc/interrupt_handler.h **** class InterruptHandler {
   3:Intermediate/Inc/interrupt_handler.h ****     public:
   4:Intermediate/Inc/interrupt_handler.h ****     virtual void irq() = 0;
   5:Intermediate/Inc/interrupt_handler.h **** };
   6:Intermediate/Inc/interrupt_handler.h **** 
   7:Intermediate/Inc/interrupt_handler.h **** // Interrupt handler object with added bells and whistles that make it usable
   8:Intermediate/Inc/interrupt_handler.h **** template <typename T>
   9:Intermediate/Inc/interrupt_handler.h **** class InterruptObject : public InterruptHandler {
  10:Intermediate/Inc/interrupt_handler.h **** public:
  11:Intermediate/Inc/interrupt_handler.h **** 
  12:Intermediate/Inc/interrupt_handler.h ****     // Constructors
  13:Intermediate/Inc/interrupt_handler.h ****     InterruptObject() : _interruptFlag(false) {}
  14:Intermediate/Inc/interrupt_handler.h ****     InterruptObject(T& resource) : _interruptFlag(false), _resource(&resource) {}
ARM GAS  /tmp/ccw0tTki.s 			page 11


  44              		.loc 3 14 5 view .LVU2
  45              	.LBB48:
  46              	.LBB49:
  47              	.LBB50:
  48              	.LBI50:
   2:Intermediate/Inc/interrupt_handler.h ****     public:
  49              		.loc 3 2 7 view .LVU3
  50              	.LBB51:
  51 0000 0A4B     		ldr	r3, .L2
  52 0002 0B49     		ldr	r1, .L2+4
  53 0004 1960     		str	r1, [r3]
  54              	.LVL1:
   2:Intermediate/Inc/interrupt_handler.h ****     public:
  55              		.loc 3 2 7 is_stmt 0 view .LVU4
  56              	.LBE51:
  57              	.LBE50:
  58              		.loc 3 14 78 discriminator 1 view .LVU5
  59 0006 0B4A     		ldr	r2, .L2+8
  60 0008 1A60     		str	r2, [r3]
  61              		.loc 3 14 36 discriminator 1 view .LVU6
  62 000a 0022     		movs	r2, #0
  63 000c 1A71     		strb	r2, [r3, #4]
  64              		.loc 3 14 59 discriminator 1 view .LVU7
  65 000e 0A48     		ldr	r0, .L2+12
  66 0010 9860     		str	r0, [r3, #8]
  67              	.LVL2:
  68              		.loc 3 14 59 discriminator 1 view .LVU8
  69              	.LBE49:
  70              	.LBE48:
  71              	.LBE47:
  72              		.loc 2 7 28 discriminator 1 view .LVU9
  73 0012 0A48     		ldr	r0, .L2+16
  74 0014 1860     		str	r0, [r3]
  75              	.LVL3:
  76              		.loc 2 7 28 discriminator 1 view .LVU10
  77              	.LBE46:
  78              	.LBE45:
  79              	.LBE44:
  80              	.LBB52:
  81              	.LBI52:
   8:Intermediate/Inc/concrete_interrupt_handlers.h **** };
   9:Intermediate/Inc/concrete_interrupt_handlers.h **** 
  10:Intermediate/Inc/concrete_interrupt_handlers.h **** class alarmObject : public InterruptObject<RTC_HandleTypeDef> {
  11:Intermediate/Inc/concrete_interrupt_handlers.h **** public:
  12:Intermediate/Inc/concrete_interrupt_handlers.h ****     using InterruptObject::InterruptObject;
  82              		.loc 2 12 28 is_stmt 1 view .LVU11
  83              	.LBB53:
  84              	.LBB54:
  85              	.LBB55:
  86              	.LBI55:
  87              		.loc 3 14 5 view .LVU12
  88              	.LBB56:
  89              	.LBB57:
  90              	.LBB58:
  91              	.LBI58:
   2:Intermediate/Inc/interrupt_handler.h ****     public:
  92              		.loc 3 2 7 view .LVU13
ARM GAS  /tmp/ccw0tTki.s 			page 12


  93              	.LBB59:
  94 0016 0A4B     		ldr	r3, .L2+20
  95 0018 1960     		str	r1, [r3]
  96              	.LVL4:
   2:Intermediate/Inc/interrupt_handler.h ****     public:
  97              		.loc 3 2 7 is_stmt 0 view .LVU14
  98              	.LBE59:
  99              	.LBE58:
 100              		.loc 3 14 78 discriminator 1 view .LVU15
 101 001a 0A49     		ldr	r1, .L2+24
 102 001c 1960     		str	r1, [r3]
 103              		.loc 3 14 36 discriminator 1 view .LVU16
 104 001e 1A71     		strb	r2, [r3, #4]
 105              		.loc 3 14 59 discriminator 1 view .LVU17
 106 0020 094A     		ldr	r2, .L2+28
 107 0022 9A60     		str	r2, [r3, #8]
 108              	.LVL5:
 109              		.loc 3 14 59 discriminator 1 view .LVU18
 110              	.LBE57:
 111              	.LBE56:
 112              	.LBE55:
 113              		.loc 2 12 28 discriminator 1 view .LVU19
 114 0024 094A     		ldr	r2, .L2+32
 115 0026 1A60     		str	r2, [r3]
 116              	.LVL6:
 117              		.loc 2 12 28 discriminator 1 view .LVU20
 118              	.LBE54:
 119              	.LBE53:
 120              	.LBE52:
 121              		.loc 1 507 1 view .LVU21
 122 0028 7047     		bx	lr
 123              	.L3:
 124 002a 00BF     		.align	2
 125              	.L2:
 126 002c 00000000 		.word	i2sObj
 127 0030 08000000 		.word	_ZTV16InterruptHandler+8
 128 0034 08000000 		.word	_ZTV15InterruptObjectI19__I2S_HandleTypeDefE+8
 129 0038 00000000 		.word	hi2s2
 130 003c 08000000 		.word	_ZTV9i2sObject+8
 131 0040 00000000 		.word	alarmObj
 132 0044 08000000 		.word	_ZTV15InterruptObjectI17RTC_HandleTypeDefE+8
 133 0048 00000000 		.word	hrtc
 134 004c 08000000 		.word	_ZTV11alarmObject+8
 135              		.cfi_endproc
 136              	.LFE622:
 137              		.cantunwind
 138              		.fnend
 140              		.section	.text._ZN15InterruptObjectI17RTC_HandleTypeDefE3irqEv,"axG",%progbits,_ZN15InterruptObjec
 141              		.align	1
 142              		.weak	_ZN15InterruptObjectI17RTC_HandleTypeDefE3irqEv
 143              		.syntax unified
 144              		.thumb
 145              		.thumb_func
 147              	_ZN15InterruptObjectI17RTC_HandleTypeDefE3irqEv:
 148              		.fnstart
 149              	.LVL7:
 150              	.LFB623:
ARM GAS  /tmp/ccw0tTki.s 			page 13


  15:Intermediate/Inc/interrupt_handler.h **** 
  16:Intermediate/Inc/interrupt_handler.h ****     // "Default" irq behavior is simply to set the flag boolean to true.
  17:Intermediate/Inc/interrupt_handler.h ****     void irq() { setFlag(); }
 151              		.loc 3 17 10 is_stmt 1 view -0
 152              		.cfi_startproc
 153              		@ args = 0, pretend = 0, frame = 0
 154              		@ frame_needed = 0, uses_anonymous_args = 0
 155              		@ link register save eliminated.
 156              	.LBB60:
 157              	.LBI60:
  18:Intermediate/Inc/interrupt_handler.h **** 
  19:Intermediate/Inc/interrupt_handler.h ****     // IRQ flag boolean management
  20:Intermediate/Inc/interrupt_handler.h ****     inline bool isInterruptFired() { return this->_interruptFlag; }
  21:Intermediate/Inc/interrupt_handler.h ****     void resetFlag() { this->_interruptFlag = false; }
  22:Intermediate/Inc/interrupt_handler.h **** 
  23:Intermediate/Inc/interrupt_handler.h ****     // Resource management
  24:Intermediate/Inc/interrupt_handler.h ****     void setResouce(T& resource) { this->_resource = &resource; }
  25:Intermediate/Inc/interrupt_handler.h ****     T& getResource() { return (*(this->_resource)); }
  26:Intermediate/Inc/interrupt_handler.h **** 
  27:Intermediate/Inc/interrupt_handler.h ****     // Operator(s)
  28:Intermediate/Inc/interrupt_handler.h ****     //InterruptObject& operator=(const InterruptObject& other) { this->_resource = other._resource;
  29:Intermediate/Inc/interrupt_handler.h **** protected:
  30:Intermediate/Inc/interrupt_handler.h **** 
  31:Intermediate/Inc/interrupt_handler.h ****     void setFlag() {  this->_interruptFlag = true;  }
 158              		.loc 3 31 10 view .LVU23
 159              	.LBB61:
 160              		.loc 3 31 44 is_stmt 0 view .LVU24
 161 0000 0123     		movs	r3, #1
 162 0002 0371     		strb	r3, [r0, #4]
 163              	.LVL8:
 164              		.loc 3 31 44 view .LVU25
 165              	.LBE61:
 166              	.LBE60:
  17:Intermediate/Inc/interrupt_handler.h **** 
 167              		.loc 3 17 29 view .LVU26
 168 0004 7047     		bx	lr
 169              		.cfi_endproc
 170              	.LFE623:
 171              		.cantunwind
 172              		.fnend
 174              		.section	.text._ZN15InterruptObjectI19__I2S_HandleTypeDefE3irqEv,"axG",%progbits,_ZN15InterruptObj
 175              		.align	1
 176              		.weak	_ZN15InterruptObjectI19__I2S_HandleTypeDefE3irqEv
 177              		.syntax unified
 178              		.thumb
 179              		.thumb_func
 181              	_ZN15InterruptObjectI19__I2S_HandleTypeDefE3irqEv:
 182              		.fnstart
 183              	.LVL9:
 184              	.LFB624:
  17:Intermediate/Inc/interrupt_handler.h **** 
 185              		.loc 3 17 10 is_stmt 1 view -0
 186              		.cfi_startproc
 187              		@ args = 0, pretend = 0, frame = 0
 188              		@ frame_needed = 0, uses_anonymous_args = 0
 189              		@ link register save eliminated.
 190              	.LBB62:
ARM GAS  /tmp/ccw0tTki.s 			page 14


 191              	.LBI62:
 192              		.loc 3 31 10 view .LVU28
 193              	.LBB63:
 194              		.loc 3 31 44 is_stmt 0 view .LVU29
 195 0000 0123     		movs	r3, #1
 196 0002 0371     		strb	r3, [r0, #4]
 197              	.LVL10:
 198              		.loc 3 31 44 view .LVU30
 199              	.LBE63:
 200              	.LBE62:
  17:Intermediate/Inc/interrupt_handler.h **** 
 201              		.loc 3 17 29 view .LVU31
 202 0004 7047     		bx	lr
 203              		.cfi_endproc
 204              	.LFE624:
 205              		.cantunwind
 206              		.fnend
 208              		.section	.text._ZL12MX_GPIO_Initv,"ax",%progbits
 209              		.align	1
 210              		.syntax unified
 211              		.thumb
 212              		.thumb_func
 214              	_ZL12MX_GPIO_Initv:
 215              		.fnstart
 216              	.LFB608:
 435:Core/Src/main.cpp ****   GPIO_InitTypeDef GPIO_InitStruct = {0};
 217              		.loc 1 435 1 is_stmt 1 view -0
 218              		.cfi_startproc
 219              		@ args = 0, pretend = 0, frame = 40
 220              		@ frame_needed = 0, uses_anonymous_args = 0
 221 0000 2DE9F041 		push	{r4, r5, r6, r7, r8, lr}
 222              		.save {r4, r5, r6, r7, r8, lr}
 223              		.cfi_def_cfa_offset 24
 224              		.cfi_offset 4, -24
 225              		.cfi_offset 5, -20
 226              		.cfi_offset 6, -16
 227              		.cfi_offset 7, -12
 228              		.cfi_offset 8, -8
 229              		.cfi_offset 14, -4
 230              		.pad #40
 231 0004 8AB0     		sub	sp, sp, #40
 232              		.cfi_def_cfa_offset 64
 436:Core/Src/main.cpp **** /* USER CODE BEGIN MX_GPIO_Init_1 */
 233              		.loc 1 436 3 view .LVU33
 436:Core/Src/main.cpp **** /* USER CODE BEGIN MX_GPIO_Init_1 */
 234              		.loc 1 436 20 is_stmt 0 view .LVU34
 235 0006 05AD     		add	r5, sp, #20
 236 0008 0024     		movs	r4, #0
 237 000a 0594     		str	r4, [sp, #20]
 238 000c 0694     		str	r4, [sp, #24]
 239 000e 0794     		str	r4, [sp, #28]
 240 0010 0894     		str	r4, [sp, #32]
 241 0012 0994     		str	r4, [sp, #36]
 441:Core/Src/main.cpp ****   __HAL_RCC_GPIOH_CLK_ENABLE();
 242              		.loc 1 441 3 is_stmt 1 view .LVU35
 243              	.LBB64:
 441:Core/Src/main.cpp ****   __HAL_RCC_GPIOH_CLK_ENABLE();
ARM GAS  /tmp/ccw0tTki.s 			page 15


 244              		.loc 1 441 3 view .LVU36
 245 0014 0194     		str	r4, [sp, #4]
 441:Core/Src/main.cpp ****   __HAL_RCC_GPIOH_CLK_ENABLE();
 246              		.loc 1 441 3 view .LVU37
 247 0016 2D4B     		ldr	r3, .L8
 248 0018 1A6B     		ldr	r2, [r3, #48]
 249 001a 42F00402 		orr	r2, r2, #4
 250 001e 1A63     		str	r2, [r3, #48]
 441:Core/Src/main.cpp ****   __HAL_RCC_GPIOH_CLK_ENABLE();
 251              		.loc 1 441 3 view .LVU38
 252 0020 1A6B     		ldr	r2, [r3, #48]
 253 0022 02F00402 		and	r2, r2, #4
 254 0026 0192     		str	r2, [sp, #4]
 441:Core/Src/main.cpp ****   __HAL_RCC_GPIOH_CLK_ENABLE();
 255              		.loc 1 441 3 view .LVU39
 256 0028 019A     		ldr	r2, [sp, #4]
 257              	.LBE64:
 441:Core/Src/main.cpp ****   __HAL_RCC_GPIOH_CLK_ENABLE();
 258              		.loc 1 441 3 view .LVU40
 442:Core/Src/main.cpp ****   __HAL_RCC_GPIOA_CLK_ENABLE();
 259              		.loc 1 442 3 view .LVU41
 260              	.LBB65:
 442:Core/Src/main.cpp ****   __HAL_RCC_GPIOA_CLK_ENABLE();
 261              		.loc 1 442 3 view .LVU42
 262 002a 0294     		str	r4, [sp, #8]
 442:Core/Src/main.cpp ****   __HAL_RCC_GPIOA_CLK_ENABLE();
 263              		.loc 1 442 3 view .LVU43
 264 002c 1A6B     		ldr	r2, [r3, #48]
 265 002e 42F08002 		orr	r2, r2, #128
 266 0032 1A63     		str	r2, [r3, #48]
 442:Core/Src/main.cpp ****   __HAL_RCC_GPIOA_CLK_ENABLE();
 267              		.loc 1 442 3 view .LVU44
 268 0034 1A6B     		ldr	r2, [r3, #48]
 269 0036 02F08002 		and	r2, r2, #128
 270 003a 0292     		str	r2, [sp, #8]
 442:Core/Src/main.cpp ****   __HAL_RCC_GPIOA_CLK_ENABLE();
 271              		.loc 1 442 3 view .LVU45
 272 003c 029A     		ldr	r2, [sp, #8]
 273              	.LBE65:
 442:Core/Src/main.cpp ****   __HAL_RCC_GPIOA_CLK_ENABLE();
 274              		.loc 1 442 3 view .LVU46
 443:Core/Src/main.cpp ****   __HAL_RCC_GPIOB_CLK_ENABLE();
 275              		.loc 1 443 3 view .LVU47
 276              	.LBB66:
 443:Core/Src/main.cpp ****   __HAL_RCC_GPIOB_CLK_ENABLE();
 277              		.loc 1 443 3 view .LVU48
 278 003e 0394     		str	r4, [sp, #12]
 443:Core/Src/main.cpp ****   __HAL_RCC_GPIOB_CLK_ENABLE();
 279              		.loc 1 443 3 view .LVU49
 280 0040 1A6B     		ldr	r2, [r3, #48]
 281 0042 42F00102 		orr	r2, r2, #1
 282 0046 1A63     		str	r2, [r3, #48]
 443:Core/Src/main.cpp ****   __HAL_RCC_GPIOB_CLK_ENABLE();
 283              		.loc 1 443 3 view .LVU50
 284 0048 1A6B     		ldr	r2, [r3, #48]
 285 004a 02F00102 		and	r2, r2, #1
 286 004e 0392     		str	r2, [sp, #12]
ARM GAS  /tmp/ccw0tTki.s 			page 16


 443:Core/Src/main.cpp ****   __HAL_RCC_GPIOB_CLK_ENABLE();
 287              		.loc 1 443 3 view .LVU51
 288 0050 039A     		ldr	r2, [sp, #12]
 289              	.LBE66:
 443:Core/Src/main.cpp ****   __HAL_RCC_GPIOB_CLK_ENABLE();
 290              		.loc 1 443 3 view .LVU52
 444:Core/Src/main.cpp **** 
 291              		.loc 1 444 3 view .LVU53
 292              	.LBB67:
 444:Core/Src/main.cpp **** 
 293              		.loc 1 444 3 view .LVU54
 294 0052 0494     		str	r4, [sp, #16]
 444:Core/Src/main.cpp **** 
 295              		.loc 1 444 3 view .LVU55
 296 0054 1A6B     		ldr	r2, [r3, #48]
 297 0056 42F00202 		orr	r2, r2, #2
 298 005a 1A63     		str	r2, [r3, #48]
 444:Core/Src/main.cpp **** 
 299              		.loc 1 444 3 view .LVU56
 300 005c 1B6B     		ldr	r3, [r3, #48]
 301 005e 03F00203 		and	r3, r3, #2
 302 0062 0493     		str	r3, [sp, #16]
 444:Core/Src/main.cpp **** 
 303              		.loc 1 444 3 view .LVU57
 304 0064 049B     		ldr	r3, [sp, #16]
 305              	.LBE67:
 444:Core/Src/main.cpp **** 
 306              		.loc 1 444 3 view .LVU58
 447:Core/Src/main.cpp **** 
 307              		.loc 1 447 3 view .LVU59
 447:Core/Src/main.cpp **** 
 308              		.loc 1 447 20 is_stmt 0 view .LVU60
 309 0066 1A4E     		ldr	r6, .L8+4
 310 0068 2246     		mov	r2, r4
 311 006a 1A21     		movs	r1, #26
 312 006c 3046     		mov	r0, r6
 313 006e FFF7FEFF 		bl	HAL_GPIO_WritePin
 314              	.LVL11:
 450:Core/Src/main.cpp **** 
 315              		.loc 1 450 3 is_stmt 1 view .LVU61
 450:Core/Src/main.cpp **** 
 316              		.loc 1 450 20 is_stmt 0 view .LVU62
 317 0072 184F     		ldr	r7, .L8+8
 318 0074 2246     		mov	r2, r4
 319 0076 40F20141 		movw	r1, #1025
 320 007a 3846     		mov	r0, r7
 321 007c FFF7FEFF 		bl	HAL_GPIO_WritePin
 322              	.LVL12:
 453:Core/Src/main.cpp ****   GPIO_InitStruct.Mode = GPIO_MODE_OUTPUT_PP;
 323              		.loc 1 453 3 is_stmt 1 view .LVU63
 453:Core/Src/main.cpp ****   GPIO_InitStruct.Mode = GPIO_MODE_OUTPUT_PP;
 324              		.loc 1 453 23 is_stmt 0 view .LVU64
 325 0080 1A23     		movs	r3, #26
 326 0082 0593     		str	r3, [sp, #20]
 454:Core/Src/main.cpp ****   GPIO_InitStruct.Pull = GPIO_NOPULL;
 327              		.loc 1 454 3 is_stmt 1 view .LVU65
 454:Core/Src/main.cpp ****   GPIO_InitStruct.Pull = GPIO_NOPULL;
ARM GAS  /tmp/ccw0tTki.s 			page 17


 328              		.loc 1 454 24 is_stmt 0 view .LVU66
 329 0084 4FF00108 		mov	r8, #1
 330 0088 CDF81880 		str	r8, [sp, #24]
 455:Core/Src/main.cpp ****   GPIO_InitStruct.Speed = GPIO_SPEED_FREQ_LOW;
 331              		.loc 1 455 3 is_stmt 1 view .LVU67
 455:Core/Src/main.cpp ****   GPIO_InitStruct.Speed = GPIO_SPEED_FREQ_LOW;
 332              		.loc 1 455 24 is_stmt 0 view .LVU68
 333 008c 0794     		str	r4, [sp, #28]
 456:Core/Src/main.cpp ****   HAL_GPIO_Init(GPIOA, &GPIO_InitStruct);
 334              		.loc 1 456 3 is_stmt 1 view .LVU69
 456:Core/Src/main.cpp ****   HAL_GPIO_Init(GPIOA, &GPIO_InitStruct);
 335              		.loc 1 456 25 is_stmt 0 view .LVU70
 336 008e 0894     		str	r4, [sp, #32]
 457:Core/Src/main.cpp **** 
 337              		.loc 1 457 3 is_stmt 1 view .LVU71
 457:Core/Src/main.cpp **** 
 338              		.loc 1 457 16 is_stmt 0 view .LVU72
 339 0090 2946     		mov	r1, r5
 340 0092 3046     		mov	r0, r6
 341 0094 FFF7FEFF 		bl	HAL_GPIO_Init
 342              	.LVL13:
 460:Core/Src/main.cpp ****   GPIO_InitStruct.Mode = GPIO_MODE_OUTPUT_PP;
 343              		.loc 1 460 3 is_stmt 1 view .LVU73
 460:Core/Src/main.cpp ****   GPIO_InitStruct.Mode = GPIO_MODE_OUTPUT_PP;
 344              		.loc 1 460 23 is_stmt 0 view .LVU74
 345 0098 40F20143 		movw	r3, #1025
 346 009c 0593     		str	r3, [sp, #20]
 461:Core/Src/main.cpp ****   GPIO_InitStruct.Pull = GPIO_NOPULL;
 347              		.loc 1 461 3 is_stmt 1 view .LVU75
 461:Core/Src/main.cpp ****   GPIO_InitStruct.Pull = GPIO_NOPULL;
 348              		.loc 1 461 24 is_stmt 0 view .LVU76
 349 009e CDF81880 		str	r8, [sp, #24]
 462:Core/Src/main.cpp ****   GPIO_InitStruct.Speed = GPIO_SPEED_FREQ_LOW;
 350              		.loc 1 462 3 is_stmt 1 view .LVU77
 462:Core/Src/main.cpp ****   GPIO_InitStruct.Speed = GPIO_SPEED_FREQ_LOW;
 351              		.loc 1 462 24 is_stmt 0 view .LVU78
 352 00a2 0794     		str	r4, [sp, #28]
 463:Core/Src/main.cpp ****   HAL_GPIO_Init(GPIOB, &GPIO_InitStruct);
 353              		.loc 1 463 3 is_stmt 1 view .LVU79
 463:Core/Src/main.cpp ****   HAL_GPIO_Init(GPIOB, &GPIO_InitStruct);
 354              		.loc 1 463 25 is_stmt 0 view .LVU80
 355 00a4 0894     		str	r4, [sp, #32]
 464:Core/Src/main.cpp **** 
 356              		.loc 1 464 3 is_stmt 1 view .LVU81
 464:Core/Src/main.cpp **** 
 357              		.loc 1 464 16 is_stmt 0 view .LVU82
 358 00a6 2946     		mov	r1, r5
 359 00a8 3846     		mov	r0, r7
 360 00aa FFF7FEFF 		bl	HAL_GPIO_Init
 361              	.LVL14:
 467:Core/Src/main.cpp ****   GPIO_InitStruct.Mode = GPIO_MODE_AF_PP;
 362              		.loc 1 467 3 is_stmt 1 view .LVU83
 467:Core/Src/main.cpp ****   GPIO_InitStruct.Mode = GPIO_MODE_AF_PP;
 363              		.loc 1 467 23 is_stmt 0 view .LVU84
 364 00ae 4FF48073 		mov	r3, #256
 365 00b2 0593     		str	r3, [sp, #20]
 468:Core/Src/main.cpp ****   GPIO_InitStruct.Pull = GPIO_NOPULL;
ARM GAS  /tmp/ccw0tTki.s 			page 18


 366              		.loc 1 468 3 is_stmt 1 view .LVU85
 468:Core/Src/main.cpp ****   GPIO_InitStruct.Pull = GPIO_NOPULL;
 367              		.loc 1 468 24 is_stmt 0 view .LVU86
 368 00b4 0223     		movs	r3, #2
 369 00b6 0693     		str	r3, [sp, #24]
 469:Core/Src/main.cpp ****   GPIO_InitStruct.Speed = GPIO_SPEED_FREQ_LOW;
 370              		.loc 1 469 3 is_stmt 1 view .LVU87
 469:Core/Src/main.cpp ****   GPIO_InitStruct.Speed = GPIO_SPEED_FREQ_LOW;
 371              		.loc 1 469 24 is_stmt 0 view .LVU88
 372 00b8 0794     		str	r4, [sp, #28]
 470:Core/Src/main.cpp ****   GPIO_InitStruct.Alternate = GPIO_AF0_MCO;
 373              		.loc 1 470 3 is_stmt 1 view .LVU89
 470:Core/Src/main.cpp ****   GPIO_InitStruct.Alternate = GPIO_AF0_MCO;
 374              		.loc 1 470 25 is_stmt 0 view .LVU90
 375 00ba 0894     		str	r4, [sp, #32]
 471:Core/Src/main.cpp ****   HAL_GPIO_Init(GPIOA, &GPIO_InitStruct);
 376              		.loc 1 471 3 is_stmt 1 view .LVU91
 471:Core/Src/main.cpp ****   HAL_GPIO_Init(GPIOA, &GPIO_InitStruct);
 377              		.loc 1 471 29 is_stmt 0 view .LVU92
 378 00bc 0994     		str	r4, [sp, #36]
 472:Core/Src/main.cpp **** 
 379              		.loc 1 472 3 is_stmt 1 view .LVU93
 472:Core/Src/main.cpp **** 
 380              		.loc 1 472 16 is_stmt 0 view .LVU94
 381 00be 2946     		mov	r1, r5
 382 00c0 3046     		mov	r0, r6
 383 00c2 FFF7FEFF 		bl	HAL_GPIO_Init
 384              	.LVL15:
 476:Core/Src/main.cpp **** 
 385              		.loc 1 476 1 view .LVU95
 386 00c6 0AB0     		add	sp, sp, #40
 387              		.cfi_def_cfa_offset 24
 388              		@ sp needed
 389 00c8 BDE8F081 		pop	{r4, r5, r6, r7, r8, pc}
 390              	.L9:
 391              		.align	2
 392              	.L8:
 393 00cc 00380240 		.word	1073887232
 394 00d0 00000240 		.word	1073872896
 395 00d4 00040240 		.word	1073873920
 396              		.cfi_endproc
 397              	.LFE608:
 398              		.fnend
 400              		.section	.text._ZL11MX_DMA_Initv,"ax",%progbits
 401              		.align	1
 402              		.syntax unified
 403              		.thumb
 404              		.thumb_func
 406              	_ZL11MX_DMA_Initv:
 407              		.fnstart
 408              	.LFB607:
 417:Core/Src/main.cpp **** 
 409              		.loc 1 417 1 is_stmt 1 view -0
 410              		.cfi_startproc
 411              		@ args = 0, pretend = 0, frame = 8
 412              		@ frame_needed = 0, uses_anonymous_args = 0
 413 0000 00B5     		push	{lr}
ARM GAS  /tmp/ccw0tTki.s 			page 19


 414              		.save {lr}
 415              		.cfi_def_cfa_offset 4
 416              		.cfi_offset 14, -4
 417              		.pad #12
 418 0002 83B0     		sub	sp, sp, #12
 419              		.cfi_def_cfa_offset 16
 420:Core/Src/main.cpp **** 
 420              		.loc 1 420 3 view .LVU97
 421              	.LBB68:
 420:Core/Src/main.cpp **** 
 422              		.loc 1 420 3 view .LVU98
 423 0004 0021     		movs	r1, #0
 424 0006 0191     		str	r1, [sp, #4]
 420:Core/Src/main.cpp **** 
 425              		.loc 1 420 3 view .LVU99
 426 0008 094B     		ldr	r3, .L12
 427 000a 1A6B     		ldr	r2, [r3, #48]
 428 000c 42F40012 		orr	r2, r2, #2097152
 429 0010 1A63     		str	r2, [r3, #48]
 420:Core/Src/main.cpp **** 
 430              		.loc 1 420 3 view .LVU100
 431 0012 1B6B     		ldr	r3, [r3, #48]
 432 0014 03F40013 		and	r3, r3, #2097152
 433 0018 0193     		str	r3, [sp, #4]
 420:Core/Src/main.cpp **** 
 434              		.loc 1 420 3 view .LVU101
 435 001a 019B     		ldr	r3, [sp, #4]
 436              	.LBE68:
 420:Core/Src/main.cpp **** 
 437              		.loc 1 420 3 view .LVU102
 424:Core/Src/main.cpp ****   HAL_NVIC_EnableIRQ(DMA1_Stream4_IRQn);
 438              		.loc 1 424 3 view .LVU103
 424:Core/Src/main.cpp ****   HAL_NVIC_EnableIRQ(DMA1_Stream4_IRQn);
 439              		.loc 1 424 23 is_stmt 0 view .LVU104
 440 001c 0A46     		mov	r2, r1
 441 001e 0F20     		movs	r0, #15
 442 0020 FFF7FEFF 		bl	HAL_NVIC_SetPriority
 443              	.LVL16:
 425:Core/Src/main.cpp **** 
 444              		.loc 1 425 3 is_stmt 1 view .LVU105
 425:Core/Src/main.cpp **** 
 445              		.loc 1 425 21 is_stmt 0 view .LVU106
 446 0024 0F20     		movs	r0, #15
 447 0026 FFF7FEFF 		bl	HAL_NVIC_EnableIRQ
 448              	.LVL17:
 427:Core/Src/main.cpp **** 
 449              		.loc 1 427 1 view .LVU107
 450 002a 03B0     		add	sp, sp, #12
 451              		.cfi_def_cfa_offset 4
 452              		@ sp needed
 453 002c 5DF804FB 		ldr	pc, [sp], #4
 454              	.L13:
 455              		.align	2
 456              	.L12:
 457 0030 00380240 		.word	1073887232
 458              		.cfi_endproc
 459              	.LFE607:
ARM GAS  /tmp/ccw0tTki.s 			page 20


 460              		.fnend
 462              		.section	.text.HAL_I2S_TxCpltCallback,"ax",%progbits
 463              		.align	1
 464              		.global	HAL_I2S_TxCpltCallback
 465              		.syntax unified
 466              		.thumb
 467              		.thumb_func
 469              	HAL_I2S_TxCpltCallback:
 470              		.fnstart
 471              	.LVL18:
 472              	.LFB609:
 480:Core/Src/main.cpp ****   Handlers[spi_txcplt_irqn]->irq();
 473              		.loc 1 480 65 is_stmt 1 view -0
 474              		.cfi_startproc
 475              		@ args = 0, pretend = 0, frame = 0
 476              		@ frame_needed = 0, uses_anonymous_args = 0
 480:Core/Src/main.cpp ****   Handlers[spi_txcplt_irqn]->irq();
 477              		.loc 1 480 65 is_stmt 0 view .LVU109
 478 0000 08B5     		push	{r3, lr}
 479              		.save {r3, lr}
 480              		.cfi_def_cfa_offset 8
 481              		.cfi_offset 3, -8
 482              		.cfi_offset 14, -4
 481:Core/Src/main.cpp **** }                      
 483              		.loc 1 481 3 is_stmt 1 view .LVU110
 481:Core/Src/main.cpp **** }                      
 484              		.loc 1 481 27 is_stmt 0 view .LVU111
 485 0002 034B     		ldr	r3, .L16
 486 0004 1868     		ldr	r0, [r3]
 487              	.LVL19:
 481:Core/Src/main.cpp **** }                      
 488              		.loc 1 481 33 view .LVU112
 489 0006 0368     		ldr	r3, [r0]
 490 0008 1B68     		ldr	r3, [r3]
 491 000a 9847     		blx	r3
 492              	.LVL20:
 482:Core/Src/main.cpp **** 
 493              		.loc 1 482 1 view .LVU113
 494 000c 08BD     		pop	{r3, pc}
 495              	.L17:
 496 000e 00BF     		.align	2
 497              	.L16:
 498 0010 00000000 		.word	_ZL8Handlers
 499              		.cfi_endproc
 500              	.LFE609:
 501              		.fnend
 503              		.section	.text.HAL_RTC_AlarmAEventCallback,"ax",%progbits
 504              		.align	1
 505              		.global	HAL_RTC_AlarmAEventCallback
 506              		.syntax unified
 507              		.thumb
 508              		.thumb_func
 510              	HAL_RTC_AlarmAEventCallback:
 511              		.fnstart
 512              	.LVL21:
 513              	.LFB610:
 484:Core/Src/main.cpp ****   Handlers[alarm_wakeup_irqn]->irq();
ARM GAS  /tmp/ccw0tTki.s 			page 21


 514              		.loc 1 484 70 is_stmt 1 view -0
 515              		.cfi_startproc
 516              		@ args = 0, pretend = 0, frame = 0
 517              		@ frame_needed = 0, uses_anonymous_args = 0
 484:Core/Src/main.cpp ****   Handlers[alarm_wakeup_irqn]->irq();
 518              		.loc 1 484 70 is_stmt 0 view .LVU115
 519 0000 08B5     		push	{r3, lr}
 520              		.save {r3, lr}
 521              		.cfi_def_cfa_offset 8
 522              		.cfi_offset 3, -8
 523              		.cfi_offset 14, -4
 485:Core/Src/main.cpp **** }
 524              		.loc 1 485 3 is_stmt 1 view .LVU116
 485:Core/Src/main.cpp **** }
 525              		.loc 1 485 29 is_stmt 0 view .LVU117
 526 0002 034B     		ldr	r3, .L20
 527 0004 5868     		ldr	r0, [r3, #4]
 528              	.LVL22:
 485:Core/Src/main.cpp **** }
 529              		.loc 1 485 35 view .LVU118
 530 0006 0368     		ldr	r3, [r0]
 531 0008 1B68     		ldr	r3, [r3]
 532 000a 9847     		blx	r3
 533              	.LVL23:
 486:Core/Src/main.cpp **** 
 534              		.loc 1 486 1 view .LVU119
 535 000c 08BD     		pop	{r3, pc}
 536              	.L21:
 537 000e 00BF     		.align	2
 538              	.L20:
 539 0010 00000000 		.word	_ZL8Handlers
 540              		.cfi_endproc
 541              	.LFE610:
 542              		.fnend
 544              		.section	.text._Z16register_handleriP16InterruptHandler,"ax",%progbits
 545              		.align	1
 546              		.global	_Z16register_handleriP16InterruptHandler
 547              		.syntax unified
 548              		.thumb
 549              		.thumb_func
 551              	_Z16register_handleriP16InterruptHandler:
 552              		.fnstart
 553              	.LVL24:
 554              	.LFB611:
 488:Core/Src/main.cpp ****     Handlers[irq_n] = handler;
 555              		.loc 1 488 61 is_stmt 1 view -0
 556              		.cfi_startproc
 557              		@ args = 0, pretend = 0, frame = 0
 558              		@ frame_needed = 0, uses_anonymous_args = 0
 559              		@ link register save eliminated.
 489:Core/Src/main.cpp **** }
 560              		.loc 1 489 5 view .LVU121
 489:Core/Src/main.cpp **** }
 561              		.loc 1 489 21 is_stmt 0 view .LVU122
 562 0000 014B     		ldr	r3, .L23
 563 0002 43F82010 		str	r1, [r3, r0, lsl #2]
 490:Core/Src/main.cpp **** 
ARM GAS  /tmp/ccw0tTki.s 			page 22


 564              		.loc 1 490 1 view .LVU123
 565 0006 7047     		bx	lr
 566              	.L24:
 567              		.align	2
 568              	.L23:
 569 0008 00000000 		.word	_ZL8Handlers
 570              		.cfi_endproc
 571              	.LFE611:
 572              		.cantunwind
 573              		.fnend
 575              		.section	.text.Error_Handler,"ax",%progbits
 576              		.align	1
 577              		.global	Error_Handler
 578              		.syntax unified
 579              		.thumb
 580              		.thumb_func
 582              	Error_Handler:
 583              		.fnstart
 584              	.LFB612:
 499:Core/Src/main.cpp ****   /* USER CODE BEGIN Error_Handler_Debug */
 585              		.loc 1 499 1 is_stmt 1 view -0
 586              		.cfi_startproc
 587              		@ Volatile: function does not return.
 588              		@ args = 0, pretend = 0, frame = 0
 589              		@ frame_needed = 0, uses_anonymous_args = 0
 590              		@ link register save eliminated.
 502:Core/Src/main.cpp ****   while (1)
 591              		.loc 1 502 3 view .LVU125
 592              	.LBB69:
 593              	.LBI69:
 594              		.file 4 "Drivers/CMSIS/Include/cmsis_gcc.h"
   1:Drivers/CMSIS/Include/cmsis_gcc.h **** /**************************************************************************//**
   2:Drivers/CMSIS/Include/cmsis_gcc.h ****  * @file     cmsis_gcc.h
   3:Drivers/CMSIS/Include/cmsis_gcc.h ****  * @brief    CMSIS compiler GCC header file
   4:Drivers/CMSIS/Include/cmsis_gcc.h ****  * @version  V5.0.4
   5:Drivers/CMSIS/Include/cmsis_gcc.h ****  * @date     09. April 2018
   6:Drivers/CMSIS/Include/cmsis_gcc.h ****  ******************************************************************************/
   7:Drivers/CMSIS/Include/cmsis_gcc.h **** /*
   8:Drivers/CMSIS/Include/cmsis_gcc.h ****  * Copyright (c) 2009-2018 Arm Limited. All rights reserved.
   9:Drivers/CMSIS/Include/cmsis_gcc.h ****  *
  10:Drivers/CMSIS/Include/cmsis_gcc.h ****  * SPDX-License-Identifier: Apache-2.0
  11:Drivers/CMSIS/Include/cmsis_gcc.h ****  *
  12:Drivers/CMSIS/Include/cmsis_gcc.h ****  * Licensed under the Apache License, Version 2.0 (the License); you may
  13:Drivers/CMSIS/Include/cmsis_gcc.h ****  * not use this file except in compliance with the License.
  14:Drivers/CMSIS/Include/cmsis_gcc.h ****  * You may obtain a copy of the License at
  15:Drivers/CMSIS/Include/cmsis_gcc.h ****  *
  16:Drivers/CMSIS/Include/cmsis_gcc.h ****  * www.apache.org/licenses/LICENSE-2.0
  17:Drivers/CMSIS/Include/cmsis_gcc.h ****  *
  18:Drivers/CMSIS/Include/cmsis_gcc.h ****  * Unless required by applicable law or agreed to in writing, software
  19:Drivers/CMSIS/Include/cmsis_gcc.h ****  * distributed under the License is distributed on an AS IS BASIS, WITHOUT
  20:Drivers/CMSIS/Include/cmsis_gcc.h ****  * WARRANTIES OR CONDITIONS OF ANY KIND, either express or implied.
  21:Drivers/CMSIS/Include/cmsis_gcc.h ****  * See the License for the specific language governing permissions and
  22:Drivers/CMSIS/Include/cmsis_gcc.h ****  * limitations under the License.
  23:Drivers/CMSIS/Include/cmsis_gcc.h ****  */
  24:Drivers/CMSIS/Include/cmsis_gcc.h **** 
  25:Drivers/CMSIS/Include/cmsis_gcc.h **** #ifndef __CMSIS_GCC_H
  26:Drivers/CMSIS/Include/cmsis_gcc.h **** #define __CMSIS_GCC_H
ARM GAS  /tmp/ccw0tTki.s 			page 23


  27:Drivers/CMSIS/Include/cmsis_gcc.h **** 
  28:Drivers/CMSIS/Include/cmsis_gcc.h **** /* ignore some GCC warnings */
  29:Drivers/CMSIS/Include/cmsis_gcc.h **** #pragma GCC diagnostic push
  30:Drivers/CMSIS/Include/cmsis_gcc.h **** #pragma GCC diagnostic ignored "-Wsign-conversion"
  31:Drivers/CMSIS/Include/cmsis_gcc.h **** #pragma GCC diagnostic ignored "-Wconversion"
  32:Drivers/CMSIS/Include/cmsis_gcc.h **** #pragma GCC diagnostic ignored "-Wunused-parameter"
  33:Drivers/CMSIS/Include/cmsis_gcc.h **** 
  34:Drivers/CMSIS/Include/cmsis_gcc.h **** /* Fallback for __has_builtin */
  35:Drivers/CMSIS/Include/cmsis_gcc.h **** #ifndef __has_builtin
  36:Drivers/CMSIS/Include/cmsis_gcc.h ****   #define __has_builtin(x) (0)
  37:Drivers/CMSIS/Include/cmsis_gcc.h **** #endif
  38:Drivers/CMSIS/Include/cmsis_gcc.h **** 
  39:Drivers/CMSIS/Include/cmsis_gcc.h **** /* CMSIS compiler specific defines */
  40:Drivers/CMSIS/Include/cmsis_gcc.h **** #ifndef   __ASM
  41:Drivers/CMSIS/Include/cmsis_gcc.h ****   #define __ASM                                  __asm
  42:Drivers/CMSIS/Include/cmsis_gcc.h **** #endif
  43:Drivers/CMSIS/Include/cmsis_gcc.h **** #ifndef   __INLINE
  44:Drivers/CMSIS/Include/cmsis_gcc.h ****   #define __INLINE                               inline
  45:Drivers/CMSIS/Include/cmsis_gcc.h **** #endif
  46:Drivers/CMSIS/Include/cmsis_gcc.h **** #ifndef   __STATIC_INLINE
  47:Drivers/CMSIS/Include/cmsis_gcc.h ****   #define __STATIC_INLINE                        static inline
  48:Drivers/CMSIS/Include/cmsis_gcc.h **** #endif
  49:Drivers/CMSIS/Include/cmsis_gcc.h **** #ifndef   __STATIC_FORCEINLINE                 
  50:Drivers/CMSIS/Include/cmsis_gcc.h ****   #define __STATIC_FORCEINLINE                   __attribute__((always_inline)) static inline
  51:Drivers/CMSIS/Include/cmsis_gcc.h **** #endif                                           
  52:Drivers/CMSIS/Include/cmsis_gcc.h **** #ifndef   __NO_RETURN
  53:Drivers/CMSIS/Include/cmsis_gcc.h ****   #define __NO_RETURN                            __attribute__((__noreturn__))
  54:Drivers/CMSIS/Include/cmsis_gcc.h **** #endif
  55:Drivers/CMSIS/Include/cmsis_gcc.h **** #ifndef   __USED
  56:Drivers/CMSIS/Include/cmsis_gcc.h ****   #define __USED                                 __attribute__((used))
  57:Drivers/CMSIS/Include/cmsis_gcc.h **** #endif
  58:Drivers/CMSIS/Include/cmsis_gcc.h **** #ifndef   __WEAK
  59:Drivers/CMSIS/Include/cmsis_gcc.h ****   #define __WEAK                                 __attribute__((weak))
  60:Drivers/CMSIS/Include/cmsis_gcc.h **** #endif
  61:Drivers/CMSIS/Include/cmsis_gcc.h **** #ifndef   __PACKED
  62:Drivers/CMSIS/Include/cmsis_gcc.h ****   #define __PACKED                               __attribute__((packed, aligned(1)))
  63:Drivers/CMSIS/Include/cmsis_gcc.h **** #endif
  64:Drivers/CMSIS/Include/cmsis_gcc.h **** #ifndef   __PACKED_STRUCT
  65:Drivers/CMSIS/Include/cmsis_gcc.h ****   #define __PACKED_STRUCT                        struct __attribute__((packed, aligned(1)))
  66:Drivers/CMSIS/Include/cmsis_gcc.h **** #endif
  67:Drivers/CMSIS/Include/cmsis_gcc.h **** #ifndef   __PACKED_UNION
  68:Drivers/CMSIS/Include/cmsis_gcc.h ****   #define __PACKED_UNION                         union __attribute__((packed, aligned(1)))
  69:Drivers/CMSIS/Include/cmsis_gcc.h **** #endif
  70:Drivers/CMSIS/Include/cmsis_gcc.h **** #ifndef   __UNALIGNED_UINT32        /* deprecated */
  71:Drivers/CMSIS/Include/cmsis_gcc.h ****   #pragma GCC diagnostic push
  72:Drivers/CMSIS/Include/cmsis_gcc.h ****   #pragma GCC diagnostic ignored "-Wpacked"
  73:Drivers/CMSIS/Include/cmsis_gcc.h ****   #pragma GCC diagnostic ignored "-Wattributes"
  74:Drivers/CMSIS/Include/cmsis_gcc.h ****   struct __attribute__((packed)) T_UINT32 { uint32_t v; };
  75:Drivers/CMSIS/Include/cmsis_gcc.h ****   #pragma GCC diagnostic pop
  76:Drivers/CMSIS/Include/cmsis_gcc.h ****   #define __UNALIGNED_UINT32(x)                  (((struct T_UINT32 *)(x))->v)
  77:Drivers/CMSIS/Include/cmsis_gcc.h **** #endif
  78:Drivers/CMSIS/Include/cmsis_gcc.h **** #ifndef   __UNALIGNED_UINT16_WRITE
  79:Drivers/CMSIS/Include/cmsis_gcc.h ****   #pragma GCC diagnostic push
  80:Drivers/CMSIS/Include/cmsis_gcc.h ****   #pragma GCC diagnostic ignored "-Wpacked"
  81:Drivers/CMSIS/Include/cmsis_gcc.h ****   #pragma GCC diagnostic ignored "-Wattributes"
  82:Drivers/CMSIS/Include/cmsis_gcc.h ****   __PACKED_STRUCT T_UINT16_WRITE { uint16_t v; };
  83:Drivers/CMSIS/Include/cmsis_gcc.h ****   #pragma GCC diagnostic pop
ARM GAS  /tmp/ccw0tTki.s 			page 24


  84:Drivers/CMSIS/Include/cmsis_gcc.h ****   #define __UNALIGNED_UINT16_WRITE(addr, val)    (void)((((struct T_UINT16_WRITE *)(void *)(addr))-
  85:Drivers/CMSIS/Include/cmsis_gcc.h **** #endif
  86:Drivers/CMSIS/Include/cmsis_gcc.h **** #ifndef   __UNALIGNED_UINT16_READ
  87:Drivers/CMSIS/Include/cmsis_gcc.h ****   #pragma GCC diagnostic push
  88:Drivers/CMSIS/Include/cmsis_gcc.h ****   #pragma GCC diagnostic ignored "-Wpacked"
  89:Drivers/CMSIS/Include/cmsis_gcc.h ****   #pragma GCC diagnostic ignored "-Wattributes"
  90:Drivers/CMSIS/Include/cmsis_gcc.h ****   __PACKED_STRUCT T_UINT16_READ { uint16_t v; };
  91:Drivers/CMSIS/Include/cmsis_gcc.h ****   #pragma GCC diagnostic pop
  92:Drivers/CMSIS/Include/cmsis_gcc.h ****   #define __UNALIGNED_UINT16_READ(addr)          (((const struct T_UINT16_READ *)(const void *)(add
  93:Drivers/CMSIS/Include/cmsis_gcc.h **** #endif
  94:Drivers/CMSIS/Include/cmsis_gcc.h **** #ifndef   __UNALIGNED_UINT32_WRITE
  95:Drivers/CMSIS/Include/cmsis_gcc.h ****   #pragma GCC diagnostic push
  96:Drivers/CMSIS/Include/cmsis_gcc.h ****   #pragma GCC diagnostic ignored "-Wpacked"
  97:Drivers/CMSIS/Include/cmsis_gcc.h ****   #pragma GCC diagnostic ignored "-Wattributes"
  98:Drivers/CMSIS/Include/cmsis_gcc.h ****   __PACKED_STRUCT T_UINT32_WRITE { uint32_t v; };
  99:Drivers/CMSIS/Include/cmsis_gcc.h ****   #pragma GCC diagnostic pop
 100:Drivers/CMSIS/Include/cmsis_gcc.h ****   #define __UNALIGNED_UINT32_WRITE(addr, val)    (void)((((struct T_UINT32_WRITE *)(void *)(addr))-
 101:Drivers/CMSIS/Include/cmsis_gcc.h **** #endif
 102:Drivers/CMSIS/Include/cmsis_gcc.h **** #ifndef   __UNALIGNED_UINT32_READ
 103:Drivers/CMSIS/Include/cmsis_gcc.h ****   #pragma GCC diagnostic push
 104:Drivers/CMSIS/Include/cmsis_gcc.h ****   #pragma GCC diagnostic ignored "-Wpacked"
 105:Drivers/CMSIS/Include/cmsis_gcc.h ****   #pragma GCC diagnostic ignored "-Wattributes"
 106:Drivers/CMSIS/Include/cmsis_gcc.h ****   __PACKED_STRUCT T_UINT32_READ { uint32_t v; };
 107:Drivers/CMSIS/Include/cmsis_gcc.h ****   #pragma GCC diagnostic pop
 108:Drivers/CMSIS/Include/cmsis_gcc.h ****   #define __UNALIGNED_UINT32_READ(addr)          (((const struct T_UINT32_READ *)(const void *)(add
 109:Drivers/CMSIS/Include/cmsis_gcc.h **** #endif
 110:Drivers/CMSIS/Include/cmsis_gcc.h **** #ifndef   __ALIGNED
 111:Drivers/CMSIS/Include/cmsis_gcc.h ****   #define __ALIGNED(x)                           __attribute__((aligned(x)))
 112:Drivers/CMSIS/Include/cmsis_gcc.h **** #endif
 113:Drivers/CMSIS/Include/cmsis_gcc.h **** #ifndef   __RESTRICT
 114:Drivers/CMSIS/Include/cmsis_gcc.h ****   #define __RESTRICT                             __restrict
 115:Drivers/CMSIS/Include/cmsis_gcc.h **** #endif
 116:Drivers/CMSIS/Include/cmsis_gcc.h **** 
 117:Drivers/CMSIS/Include/cmsis_gcc.h **** 
 118:Drivers/CMSIS/Include/cmsis_gcc.h **** /* ###########################  Core Function Access  ########################### */
 119:Drivers/CMSIS/Include/cmsis_gcc.h **** /** \ingroup  CMSIS_Core_FunctionInterface
 120:Drivers/CMSIS/Include/cmsis_gcc.h ****     \defgroup CMSIS_Core_RegAccFunctions CMSIS Core Register Access Functions
 121:Drivers/CMSIS/Include/cmsis_gcc.h ****   @{
 122:Drivers/CMSIS/Include/cmsis_gcc.h ****  */
 123:Drivers/CMSIS/Include/cmsis_gcc.h **** 
 124:Drivers/CMSIS/Include/cmsis_gcc.h **** /**
 125:Drivers/CMSIS/Include/cmsis_gcc.h ****   \brief   Enable IRQ Interrupts
 126:Drivers/CMSIS/Include/cmsis_gcc.h ****   \details Enables IRQ interrupts by clearing the I-bit in the CPSR.
 127:Drivers/CMSIS/Include/cmsis_gcc.h ****            Can only be executed in Privileged modes.
 128:Drivers/CMSIS/Include/cmsis_gcc.h ****  */
 129:Drivers/CMSIS/Include/cmsis_gcc.h **** __STATIC_FORCEINLINE void __enable_irq(void)
 130:Drivers/CMSIS/Include/cmsis_gcc.h **** {
 131:Drivers/CMSIS/Include/cmsis_gcc.h ****   __ASM volatile ("cpsie i" : : : "memory");
 132:Drivers/CMSIS/Include/cmsis_gcc.h **** }
 133:Drivers/CMSIS/Include/cmsis_gcc.h **** 
 134:Drivers/CMSIS/Include/cmsis_gcc.h **** 
 135:Drivers/CMSIS/Include/cmsis_gcc.h **** /**
 136:Drivers/CMSIS/Include/cmsis_gcc.h ****   \brief   Disable IRQ Interrupts
 137:Drivers/CMSIS/Include/cmsis_gcc.h ****   \details Disables IRQ interrupts by setting the I-bit in the CPSR.
 138:Drivers/CMSIS/Include/cmsis_gcc.h ****            Can only be executed in Privileged modes.
 139:Drivers/CMSIS/Include/cmsis_gcc.h ****  */
 140:Drivers/CMSIS/Include/cmsis_gcc.h **** __STATIC_FORCEINLINE void __disable_irq(void)
ARM GAS  /tmp/ccw0tTki.s 			page 25


 595              		.loc 4 140 27 view .LVU126
 596              	.LBB70:
 141:Drivers/CMSIS/Include/cmsis_gcc.h **** {
 142:Drivers/CMSIS/Include/cmsis_gcc.h ****   __ASM volatile ("cpsid i" : : : "memory");
 597              		.loc 4 142 3 view .LVU127
 598              		.syntax unified
 599              	@ 142 "Drivers/CMSIS/Include/cmsis_gcc.h" 1
 600 0000 72B6     		cpsid i
 601              	@ 0 "" 2
 602              		.thumb
 603              		.syntax unified
 604              	.L26:
 605              	.LBE70:
 606              	.LBE69:
 503:Core/Src/main.cpp ****   {
 607              		.loc 1 503 3 view .LVU128
 503:Core/Src/main.cpp ****   {
 608              		.loc 1 503 3 view .LVU129
 609 0002 FEE7     		b	.L26
 610              		.cfi_endproc
 611              	.LFE612:
 612              		.cantunwind
 613              		.fnend
 615              		.section	.text._ZL12MX_I2C1_Initv,"ax",%progbits
 616              		.align	1
 617              		.syntax unified
 618              		.thumb
 619              		.thumb_func
 621              	_ZL12MX_I2C1_Initv:
 622              		.fnstart
 623              	.LFB602:
 197:Core/Src/main.cpp **** 
 624              		.loc 1 197 1 view -0
 625              		.cfi_startproc
 626              		@ args = 0, pretend = 0, frame = 0
 627              		@ frame_needed = 0, uses_anonymous_args = 0
 628 0000 08B5     		push	{r3, lr}
 629              		.save {r3, lr}
 630              		.cfi_def_cfa_offset 8
 631              		.cfi_offset 3, -8
 632              		.cfi_offset 14, -4
 206:Core/Src/main.cpp ****   hi2c1.Init.ClockSpeed = 100000;
 633              		.loc 1 206 3 view .LVU131
 206:Core/Src/main.cpp ****   hi2c1.Init.ClockSpeed = 100000;
 634              		.loc 1 206 18 is_stmt 0 view .LVU132
 635 0002 0A48     		ldr	r0, .L31
 636 0004 0A4B     		ldr	r3, .L31+4
 637 0006 0360     		str	r3, [r0]
 207:Core/Src/main.cpp ****   hi2c1.Init.DutyCycle = I2C_DUTYCYCLE_2;
 638              		.loc 1 207 3 is_stmt 1 view .LVU133
 207:Core/Src/main.cpp ****   hi2c1.Init.DutyCycle = I2C_DUTYCYCLE_2;
 639              		.loc 1 207 25 is_stmt 0 view .LVU134
 640 0008 0A4B     		ldr	r3, .L31+8
 641 000a 4360     		str	r3, [r0, #4]
 208:Core/Src/main.cpp ****   hi2c1.Init.OwnAddress1 = 0;
 642              		.loc 1 208 3 is_stmt 1 view .LVU135
 208:Core/Src/main.cpp ****   hi2c1.Init.OwnAddress1 = 0;
ARM GAS  /tmp/ccw0tTki.s 			page 26


 643              		.loc 1 208 24 is_stmt 0 view .LVU136
 644 000c 0023     		movs	r3, #0
 645 000e 8360     		str	r3, [r0, #8]
 209:Core/Src/main.cpp ****   hi2c1.Init.AddressingMode = I2C_ADDRESSINGMODE_7BIT;
 646              		.loc 1 209 3 is_stmt 1 view .LVU137
 209:Core/Src/main.cpp ****   hi2c1.Init.AddressingMode = I2C_ADDRESSINGMODE_7BIT;
 647              		.loc 1 209 26 is_stmt 0 view .LVU138
 648 0010 C360     		str	r3, [r0, #12]
 210:Core/Src/main.cpp ****   hi2c1.Init.DualAddressMode = I2C_DUALADDRESS_DISABLE;
 649              		.loc 1 210 3 is_stmt 1 view .LVU139
 210:Core/Src/main.cpp ****   hi2c1.Init.DualAddressMode = I2C_DUALADDRESS_DISABLE;
 650              		.loc 1 210 29 is_stmt 0 view .LVU140
 651 0012 4FF48042 		mov	r2, #16384
 652 0016 0261     		str	r2, [r0, #16]
 211:Core/Src/main.cpp ****   hi2c1.Init.OwnAddress2 = 0;
 653              		.loc 1 211 3 is_stmt 1 view .LVU141
 211:Core/Src/main.cpp ****   hi2c1.Init.OwnAddress2 = 0;
 654              		.loc 1 211 30 is_stmt 0 view .LVU142
 655 0018 4361     		str	r3, [r0, #20]
 212:Core/Src/main.cpp ****   hi2c1.Init.GeneralCallMode = I2C_GENERALCALL_DISABLE;
 656              		.loc 1 212 3 is_stmt 1 view .LVU143
 212:Core/Src/main.cpp ****   hi2c1.Init.GeneralCallMode = I2C_GENERALCALL_DISABLE;
 657              		.loc 1 212 26 is_stmt 0 view .LVU144
 658 001a 8361     		str	r3, [r0, #24]
 213:Core/Src/main.cpp ****   hi2c1.Init.NoStretchMode = I2C_NOSTRETCH_DISABLE;
 659              		.loc 1 213 3 is_stmt 1 view .LVU145
 213:Core/Src/main.cpp ****   hi2c1.Init.NoStretchMode = I2C_NOSTRETCH_DISABLE;
 660              		.loc 1 213 30 is_stmt 0 view .LVU146
 661 001c C361     		str	r3, [r0, #28]
 214:Core/Src/main.cpp ****   if (HAL_I2C_Init(&hi2c1) != HAL_OK)
 662              		.loc 1 214 3 is_stmt 1 view .LVU147
 214:Core/Src/main.cpp ****   if (HAL_I2C_Init(&hi2c1) != HAL_OK)
 663              		.loc 1 214 28 is_stmt 0 view .LVU148
 664 001e 0362     		str	r3, [r0, #32]
 215:Core/Src/main.cpp ****   {
 665              		.loc 1 215 3 is_stmt 1 view .LVU149
 215:Core/Src/main.cpp ****   {
 666              		.loc 1 215 19 is_stmt 0 view .LVU150
 667 0020 FFF7FEFF 		bl	HAL_I2C_Init
 668              	.LVL25:
 215:Core/Src/main.cpp ****   {
 669              		.loc 1 215 3 discriminator 1 view .LVU151
 670 0024 00B9     		cbnz	r0, .L30
 223:Core/Src/main.cpp **** 
 671              		.loc 1 223 1 view .LVU152
 672 0026 08BD     		pop	{r3, pc}
 673              	.L30:
 217:Core/Src/main.cpp ****   }
 674              		.loc 1 217 5 is_stmt 1 view .LVU153
 217:Core/Src/main.cpp ****   }
 675              		.loc 1 217 18 is_stmt 0 view .LVU154
 676 0028 FFF7FEFF 		bl	Error_Handler
 677              	.LVL26:
 678              	.L32:
 679              		.align	2
 680              	.L31:
 681 002c 00000000 		.word	hi2c1
ARM GAS  /tmp/ccw0tTki.s 			page 27


 682 0030 00540040 		.word	1073763328
 683 0034 A0860100 		.word	100000
 684              		.cfi_endproc
 685              	.LFE602:
 686              		.fnend
 688              		.section	.text._ZL12MX_I2S2_Initv,"ax",%progbits
 689              		.align	1
 690              		.syntax unified
 691              		.thumb
 692              		.thumb_func
 694              	_ZL12MX_I2S2_Initv:
 695              		.fnstart
 696              	.LFB603:
 231:Core/Src/main.cpp **** 
 697              		.loc 1 231 1 is_stmt 1 view -0
 698              		.cfi_startproc
 699              		@ args = 0, pretend = 0, frame = 0
 700              		@ frame_needed = 0, uses_anonymous_args = 0
 701 0000 08B5     		push	{r3, lr}
 702              		.save {r3, lr}
 703              		.cfi_def_cfa_offset 8
 704              		.cfi_offset 3, -8
 705              		.cfi_offset 14, -4
 240:Core/Src/main.cpp ****   hi2s2.Init.Mode = I2S_MODE_MASTER_TX;
 706              		.loc 1 240 3 view .LVU156
 240:Core/Src/main.cpp ****   hi2s2.Init.Mode = I2S_MODE_MASTER_TX;
 707              		.loc 1 240 18 is_stmt 0 view .LVU157
 708 0002 0B48     		ldr	r0, .L37
 709 0004 0B4B     		ldr	r3, .L37+4
 710 0006 0360     		str	r3, [r0]
 241:Core/Src/main.cpp ****   hi2s2.Init.Standard = I2S_STANDARD_MSB;
 711              		.loc 1 241 3 is_stmt 1 view .LVU158
 241:Core/Src/main.cpp ****   hi2s2.Init.Standard = I2S_STANDARD_MSB;
 712              		.loc 1 241 19 is_stmt 0 view .LVU159
 713 0008 4FF40073 		mov	r3, #512
 714 000c 4360     		str	r3, [r0, #4]
 242:Core/Src/main.cpp ****   hi2s2.Init.DataFormat = I2S_DATAFORMAT_32B;
 715              		.loc 1 242 3 is_stmt 1 view .LVU160
 242:Core/Src/main.cpp ****   hi2s2.Init.DataFormat = I2S_DATAFORMAT_32B;
 716              		.loc 1 242 23 is_stmt 0 view .LVU161
 717 000e 1023     		movs	r3, #16
 718 0010 8360     		str	r3, [r0, #8]
 243:Core/Src/main.cpp ****   hi2s2.Init.MCLKOutput = I2S_MCLKOUTPUT_DISABLE;
 719              		.loc 1 243 3 is_stmt 1 view .LVU162
 243:Core/Src/main.cpp ****   hi2s2.Init.MCLKOutput = I2S_MCLKOUTPUT_DISABLE;
 720              		.loc 1 243 25 is_stmt 0 view .LVU163
 721 0012 0523     		movs	r3, #5
 722 0014 C360     		str	r3, [r0, #12]
 244:Core/Src/main.cpp ****   hi2s2.Init.AudioFreq = I2S_AUDIOFREQ_96K;
 723              		.loc 1 244 3 is_stmt 1 view .LVU164
 244:Core/Src/main.cpp ****   hi2s2.Init.AudioFreq = I2S_AUDIOFREQ_96K;
 724              		.loc 1 244 25 is_stmt 0 view .LVU165
 725 0016 0023     		movs	r3, #0
 726 0018 0361     		str	r3, [r0, #16]
 245:Core/Src/main.cpp ****   hi2s2.Init.CPOL = I2S_CPOL_LOW;
 727              		.loc 1 245 3 is_stmt 1 view .LVU166
 245:Core/Src/main.cpp ****   hi2s2.Init.CPOL = I2S_CPOL_LOW;
ARM GAS  /tmp/ccw0tTki.s 			page 28


 728              		.loc 1 245 24 is_stmt 0 view .LVU167
 729 001a 074A     		ldr	r2, .L37+8
 730 001c 4261     		str	r2, [r0, #20]
 246:Core/Src/main.cpp ****   hi2s2.Init.ClockSource = I2S_CLOCK_PLL;
 731              		.loc 1 246 3 is_stmt 1 view .LVU168
 246:Core/Src/main.cpp ****   hi2s2.Init.ClockSource = I2S_CLOCK_PLL;
 732              		.loc 1 246 19 is_stmt 0 view .LVU169
 733 001e 8361     		str	r3, [r0, #24]
 247:Core/Src/main.cpp ****   hi2s2.Init.FullDuplexMode = I2S_FULLDUPLEXMODE_DISABLE;
 734              		.loc 1 247 3 is_stmt 1 view .LVU170
 247:Core/Src/main.cpp ****   hi2s2.Init.FullDuplexMode = I2S_FULLDUPLEXMODE_DISABLE;
 735              		.loc 1 247 26 is_stmt 0 view .LVU171
 736 0020 C361     		str	r3, [r0, #28]
 248:Core/Src/main.cpp ****   if (HAL_I2S_Init(&hi2s2) != HAL_OK)
 737              		.loc 1 248 3 is_stmt 1 view .LVU172
 248:Core/Src/main.cpp ****   if (HAL_I2S_Init(&hi2s2) != HAL_OK)
 738              		.loc 1 248 29 is_stmt 0 view .LVU173
 739 0022 0362     		str	r3, [r0, #32]
 249:Core/Src/main.cpp ****   {
 740              		.loc 1 249 3 is_stmt 1 view .LVU174
 249:Core/Src/main.cpp ****   {
 741              		.loc 1 249 19 is_stmt 0 view .LVU175
 742 0024 FFF7FEFF 		bl	HAL_I2S_Init
 743              	.LVL27:
 249:Core/Src/main.cpp ****   {
 744              		.loc 1 249 3 discriminator 1 view .LVU176
 745 0028 00B9     		cbnz	r0, .L36
 257:Core/Src/main.cpp **** 
 746              		.loc 1 257 1 view .LVU177
 747 002a 08BD     		pop	{r3, pc}
 748              	.L36:
 251:Core/Src/main.cpp ****   }
 749              		.loc 1 251 5 is_stmt 1 view .LVU178
 251:Core/Src/main.cpp ****   }
 750              		.loc 1 251 18 is_stmt 0 view .LVU179
 751 002c FFF7FEFF 		bl	Error_Handler
 752              	.LVL28:
 753              	.L38:
 754              		.align	2
 755              	.L37:
 756 0030 00000000 		.word	hi2s2
 757 0034 00380040 		.word	1073756160
 758 0038 00770100 		.word	96000
 759              		.cfi_endproc
 760              	.LFE603:
 761              		.fnend
 763              		.section	.text._ZL12MX_SPI1_Initv,"ax",%progbits
 764              		.align	1
 765              		.syntax unified
 766              		.thumb
 767              		.thumb_func
 769              	_ZL12MX_SPI1_Initv:
 770              		.fnstart
 771              	.LFB605:
 348:Core/Src/main.cpp **** 
 772              		.loc 1 348 1 is_stmt 1 view -0
 773              		.cfi_startproc
ARM GAS  /tmp/ccw0tTki.s 			page 29


 774              		@ args = 0, pretend = 0, frame = 0
 775              		@ frame_needed = 0, uses_anonymous_args = 0
 776 0000 08B5     		push	{r3, lr}
 777              		.save {r3, lr}
 778              		.cfi_def_cfa_offset 8
 779              		.cfi_offset 3, -8
 780              		.cfi_offset 14, -4
 358:Core/Src/main.cpp ****   hspi1.Init.Mode = SPI_MODE_MASTER;
 781              		.loc 1 358 3 view .LVU181
 358:Core/Src/main.cpp ****   hspi1.Init.Mode = SPI_MODE_MASTER;
 782              		.loc 1 358 18 is_stmt 0 view .LVU182
 783 0002 0D48     		ldr	r0, .L43
 784 0004 0D4B     		ldr	r3, .L43+4
 785 0006 0360     		str	r3, [r0]
 359:Core/Src/main.cpp ****   hspi1.Init.Direction = SPI_DIRECTION_2LINES;
 786              		.loc 1 359 3 is_stmt 1 view .LVU183
 359:Core/Src/main.cpp ****   hspi1.Init.Direction = SPI_DIRECTION_2LINES;
 787              		.loc 1 359 19 is_stmt 0 view .LVU184
 788 0008 4FF48273 		mov	r3, #260
 789 000c 4360     		str	r3, [r0, #4]
 360:Core/Src/main.cpp ****   hspi1.Init.DataSize = SPI_DATASIZE_8BIT;
 790              		.loc 1 360 3 is_stmt 1 view .LVU185
 360:Core/Src/main.cpp ****   hspi1.Init.DataSize = SPI_DATASIZE_8BIT;
 791              		.loc 1 360 24 is_stmt 0 view .LVU186
 792 000e 0023     		movs	r3, #0
 793 0010 8360     		str	r3, [r0, #8]
 361:Core/Src/main.cpp ****   hspi1.Init.CLKPolarity = SPI_POLARITY_LOW;
 794              		.loc 1 361 3 is_stmt 1 view .LVU187
 361:Core/Src/main.cpp ****   hspi1.Init.CLKPolarity = SPI_POLARITY_LOW;
 795              		.loc 1 361 23 is_stmt 0 view .LVU188
 796 0012 C360     		str	r3, [r0, #12]
 362:Core/Src/main.cpp ****   hspi1.Init.CLKPhase = SPI_PHASE_1EDGE;
 797              		.loc 1 362 3 is_stmt 1 view .LVU189
 362:Core/Src/main.cpp ****   hspi1.Init.CLKPhase = SPI_PHASE_1EDGE;
 798              		.loc 1 362 26 is_stmt 0 view .LVU190
 799 0014 0361     		str	r3, [r0, #16]
 363:Core/Src/main.cpp ****   hspi1.Init.NSS = SPI_NSS_SOFT;
 800              		.loc 1 363 3 is_stmt 1 view .LVU191
 363:Core/Src/main.cpp ****   hspi1.Init.NSS = SPI_NSS_SOFT;
 801              		.loc 1 363 23 is_stmt 0 view .LVU192
 802 0016 4361     		str	r3, [r0, #20]
 364:Core/Src/main.cpp ****   hspi1.Init.BaudRatePrescaler = SPI_BAUDRATEPRESCALER_2;
 803              		.loc 1 364 3 is_stmt 1 view .LVU193
 364:Core/Src/main.cpp ****   hspi1.Init.BaudRatePrescaler = SPI_BAUDRATEPRESCALER_2;
 804              		.loc 1 364 18 is_stmt 0 view .LVU194
 805 0018 4FF40072 		mov	r2, #512
 806 001c 8261     		str	r2, [r0, #24]
 365:Core/Src/main.cpp ****   hspi1.Init.FirstBit = SPI_FIRSTBIT_MSB;
 807              		.loc 1 365 3 is_stmt 1 view .LVU195
 365:Core/Src/main.cpp ****   hspi1.Init.FirstBit = SPI_FIRSTBIT_MSB;
 808              		.loc 1 365 32 is_stmt 0 view .LVU196
 809 001e C361     		str	r3, [r0, #28]
 366:Core/Src/main.cpp ****   hspi1.Init.TIMode = SPI_TIMODE_DISABLE;
 810              		.loc 1 366 3 is_stmt 1 view .LVU197
 366:Core/Src/main.cpp ****   hspi1.Init.TIMode = SPI_TIMODE_DISABLE;
 811              		.loc 1 366 23 is_stmt 0 view .LVU198
 812 0020 0362     		str	r3, [r0, #32]
ARM GAS  /tmp/ccw0tTki.s 			page 30


 367:Core/Src/main.cpp ****   hspi1.Init.CRCCalculation = SPI_CRCCALCULATION_DISABLE;
 813              		.loc 1 367 3 is_stmt 1 view .LVU199
 367:Core/Src/main.cpp ****   hspi1.Init.CRCCalculation = SPI_CRCCALCULATION_DISABLE;
 814              		.loc 1 367 21 is_stmt 0 view .LVU200
 815 0022 4362     		str	r3, [r0, #36]
 368:Core/Src/main.cpp ****   hspi1.Init.CRCPolynomial = 10;
 816              		.loc 1 368 3 is_stmt 1 view .LVU201
 368:Core/Src/main.cpp ****   hspi1.Init.CRCPolynomial = 10;
 817              		.loc 1 368 29 is_stmt 0 view .LVU202
 818 0024 8362     		str	r3, [r0, #40]
 369:Core/Src/main.cpp ****   if (HAL_SPI_Init(&hspi1) != HAL_OK)
 819              		.loc 1 369 3 is_stmt 1 view .LVU203
 369:Core/Src/main.cpp ****   if (HAL_SPI_Init(&hspi1) != HAL_OK)
 820              		.loc 1 369 28 is_stmt 0 view .LVU204
 821 0026 0A23     		movs	r3, #10
 822 0028 C362     		str	r3, [r0, #44]
 370:Core/Src/main.cpp ****   {
 823              		.loc 1 370 3 is_stmt 1 view .LVU205
 370:Core/Src/main.cpp ****   {
 824              		.loc 1 370 19 is_stmt 0 view .LVU206
 825 002a FFF7FEFF 		bl	HAL_SPI_Init
 826              	.LVL29:
 370:Core/Src/main.cpp ****   {
 827              		.loc 1 370 3 discriminator 1 view .LVU207
 828 002e 00B9     		cbnz	r0, .L42
 378:Core/Src/main.cpp **** 
 829              		.loc 1 378 1 view .LVU208
 830 0030 08BD     		pop	{r3, pc}
 831              	.L42:
 372:Core/Src/main.cpp ****   }
 832              		.loc 1 372 5 is_stmt 1 view .LVU209
 372:Core/Src/main.cpp ****   }
 833              		.loc 1 372 18 is_stmt 0 view .LVU210
 834 0032 FFF7FEFF 		bl	Error_Handler
 835              	.LVL30:
 836              	.L44:
 837 0036 00BF     		.align	2
 838              	.L43:
 839 0038 00000000 		.word	hspi1
 840 003c 00300140 		.word	1073819648
 841              		.cfi_endproc
 842              	.LFE605:
 843              		.fnend
 845              		.section	.text._ZL19MX_USART1_UART_Initv,"ax",%progbits
 846              		.align	1
 847              		.syntax unified
 848              		.thumb
 849              		.thumb_func
 851              	_ZL19MX_USART1_UART_Initv:
 852              		.fnstart
 853              	.LFB606:
 386:Core/Src/main.cpp **** 
 854              		.loc 1 386 1 is_stmt 1 view -0
 855              		.cfi_startproc
 856              		@ args = 0, pretend = 0, frame = 0
 857              		@ frame_needed = 0, uses_anonymous_args = 0
 858 0000 08B5     		push	{r3, lr}
ARM GAS  /tmp/ccw0tTki.s 			page 31


 859              		.save {r3, lr}
 860              		.cfi_def_cfa_offset 8
 861              		.cfi_offset 3, -8
 862              		.cfi_offset 14, -4
 395:Core/Src/main.cpp ****   huart1.Init.BaudRate = 115200;
 863              		.loc 1 395 3 view .LVU212
 395:Core/Src/main.cpp ****   huart1.Init.BaudRate = 115200;
 864              		.loc 1 395 19 is_stmt 0 view .LVU213
 865 0002 0B48     		ldr	r0, .L49
 866 0004 0B4B     		ldr	r3, .L49+4
 867 0006 0360     		str	r3, [r0]
 396:Core/Src/main.cpp ****   huart1.Init.WordLength = UART_WORDLENGTH_8B;
 868              		.loc 1 396 3 is_stmt 1 view .LVU214
 396:Core/Src/main.cpp ****   huart1.Init.WordLength = UART_WORDLENGTH_8B;
 869              		.loc 1 396 24 is_stmt 0 view .LVU215
 870 0008 4FF4E133 		mov	r3, #115200
 871 000c 4360     		str	r3, [r0, #4]
 397:Core/Src/main.cpp ****   huart1.Init.StopBits = UART_STOPBITS_1;
 872              		.loc 1 397 3 is_stmt 1 view .LVU216
 397:Core/Src/main.cpp ****   huart1.Init.StopBits = UART_STOPBITS_1;
 873              		.loc 1 397 26 is_stmt 0 view .LVU217
 874 000e 0023     		movs	r3, #0
 875 0010 8360     		str	r3, [r0, #8]
 398:Core/Src/main.cpp ****   huart1.Init.Parity = UART_PARITY_NONE;
 876              		.loc 1 398 3 is_stmt 1 view .LVU218
 398:Core/Src/main.cpp ****   huart1.Init.Parity = UART_PARITY_NONE;
 877              		.loc 1 398 24 is_stmt 0 view .LVU219
 878 0012 C360     		str	r3, [r0, #12]
 399:Core/Src/main.cpp ****   huart1.Init.Mode = UART_MODE_TX_RX;
 879              		.loc 1 399 3 is_stmt 1 view .LVU220
 399:Core/Src/main.cpp ****   huart1.Init.Mode = UART_MODE_TX_RX;
 880              		.loc 1 399 22 is_stmt 0 view .LVU221
 881 0014 0361     		str	r3, [r0, #16]
 400:Core/Src/main.cpp ****   huart1.Init.HwFlowCtl = UART_HWCONTROL_RTS_CTS;
 882              		.loc 1 400 3 is_stmt 1 view .LVU222
 400:Core/Src/main.cpp ****   huart1.Init.HwFlowCtl = UART_HWCONTROL_RTS_CTS;
 883              		.loc 1 400 20 is_stmt 0 view .LVU223
 884 0016 0C22     		movs	r2, #12
 885 0018 4261     		str	r2, [r0, #20]
 401:Core/Src/main.cpp ****   huart1.Init.OverSampling = UART_OVERSAMPLING_16;
 886              		.loc 1 401 3 is_stmt 1 view .LVU224
 401:Core/Src/main.cpp ****   huart1.Init.OverSampling = UART_OVERSAMPLING_16;
 887              		.loc 1 401 25 is_stmt 0 view .LVU225
 888 001a 4FF44072 		mov	r2, #768
 889 001e 8261     		str	r2, [r0, #24]
 402:Core/Src/main.cpp ****   if (HAL_UART_Init(&huart1) != HAL_OK)
 890              		.loc 1 402 3 is_stmt 1 view .LVU226
 402:Core/Src/main.cpp ****   if (HAL_UART_Init(&huart1) != HAL_OK)
 891              		.loc 1 402 28 is_stmt 0 view .LVU227
 892 0020 C361     		str	r3, [r0, #28]
 403:Core/Src/main.cpp ****   {
 893              		.loc 1 403 3 is_stmt 1 view .LVU228
 403:Core/Src/main.cpp ****   {
 894              		.loc 1 403 20 is_stmt 0 view .LVU229
 895 0022 FFF7FEFF 		bl	HAL_UART_Init
 896              	.LVL31:
 403:Core/Src/main.cpp ****   {
ARM GAS  /tmp/ccw0tTki.s 			page 32


 897              		.loc 1 403 3 discriminator 1 view .LVU230
 898 0026 00B9     		cbnz	r0, .L48
 411:Core/Src/main.cpp **** 
 899              		.loc 1 411 1 view .LVU231
 900 0028 08BD     		pop	{r3, pc}
 901              	.L48:
 405:Core/Src/main.cpp ****   }
 902              		.loc 1 405 5 is_stmt 1 view .LVU232
 405:Core/Src/main.cpp ****   }
 903              		.loc 1 405 18 is_stmt 0 view .LVU233
 904 002a FFF7FEFF 		bl	Error_Handler
 905              	.LVL32:
 906              	.L50:
 907 002e 00BF     		.align	2
 908              	.L49:
 909 0030 00000000 		.word	huart1
 910 0034 00100140 		.word	1073811456
 911              		.cfi_endproc
 912              	.LFE606:
 913              		.fnend
 915              		.section	.text._ZL11MX_RTC_Initv,"ax",%progbits
 916              		.align	1
 917              		.syntax unified
 918              		.thumb
 919              		.thumb_func
 921              	_ZL11MX_RTC_Initv:
 922              		.fnstart
 923              	.LFB604:
 265:Core/Src/main.cpp **** 
 924              		.loc 1 265 1 is_stmt 1 view -0
 925              		.cfi_startproc
 926              		@ args = 0, pretend = 0, frame = 64
 927              		@ frame_needed = 0, uses_anonymous_args = 0
 928 0000 10B5     		push	{r4, lr}
 929              		.save {r4, lr}
 930              		.cfi_def_cfa_offset 8
 931              		.cfi_offset 4, -8
 932              		.cfi_offset 14, -4
 933              		.pad #64
 934 0002 90B0     		sub	sp, sp, #64
 935              		.cfi_def_cfa_offset 72
 271:Core/Src/main.cpp ****   RTC_DateTypeDef sDate = {0};
 936              		.loc 1 271 3 view .LVU235
 271:Core/Src/main.cpp ****   RTC_DateTypeDef sDate = {0};
 937              		.loc 1 271 19 is_stmt 0 view .LVU236
 938 0004 0024     		movs	r4, #0
 939 0006 0B94     		str	r4, [sp, #44]
 940 0008 0C94     		str	r4, [sp, #48]
 941 000a 0D94     		str	r4, [sp, #52]
 942 000c 0E94     		str	r4, [sp, #56]
 943 000e 0F94     		str	r4, [sp, #60]
 272:Core/Src/main.cpp ****   RTC_AlarmTypeDef sAlarm = {0};
 944              		.loc 1 272 3 is_stmt 1 view .LVU237
 272:Core/Src/main.cpp ****   RTC_AlarmTypeDef sAlarm = {0};
 945              		.loc 1 272 19 is_stmt 0 view .LVU238
 946 0010 0A94     		str	r4, [sp, #40]
 273:Core/Src/main.cpp **** 
ARM GAS  /tmp/ccw0tTki.s 			page 33


 947              		.loc 1 273 3 is_stmt 1 view .LVU239
 273:Core/Src/main.cpp **** 
 948              		.loc 1 273 20 is_stmt 0 view .LVU240
 949 0012 2822     		movs	r2, #40
 950 0014 2146     		mov	r1, r4
 951 0016 6846     		mov	r0, sp
 952 0018 FFF7FEFF 		bl	memset
 953              	.LVL33:
 281:Core/Src/main.cpp ****   hrtc.Init.HourFormat = RTC_HOURFORMAT_24;
 954              		.loc 1 281 3 is_stmt 1 view .LVU241
 281:Core/Src/main.cpp ****   hrtc.Init.HourFormat = RTC_HOURFORMAT_24;
 955              		.loc 1 281 17 is_stmt 0 view .LVU242
 956 001c 2B48     		ldr	r0, .L61
 957 001e 2C4B     		ldr	r3, .L61+4
 958 0020 0360     		str	r3, [r0]
 282:Core/Src/main.cpp ****   hrtc.Init.AsynchPrediv = 127;
 959              		.loc 1 282 3 is_stmt 1 view .LVU243
 282:Core/Src/main.cpp ****   hrtc.Init.AsynchPrediv = 127;
 960              		.loc 1 282 24 is_stmt 0 view .LVU244
 961 0022 4460     		str	r4, [r0, #4]
 283:Core/Src/main.cpp ****   hrtc.Init.SynchPrediv = 255;
 962              		.loc 1 283 3 is_stmt 1 view .LVU245
 283:Core/Src/main.cpp ****   hrtc.Init.SynchPrediv = 255;
 963              		.loc 1 283 26 is_stmt 0 view .LVU246
 964 0024 7F23     		movs	r3, #127
 965 0026 8360     		str	r3, [r0, #8]
 284:Core/Src/main.cpp ****   hrtc.Init.OutPut = RTC_OUTPUT_ALARMA;
 966              		.loc 1 284 3 is_stmt 1 view .LVU247
 284:Core/Src/main.cpp ****   hrtc.Init.OutPut = RTC_OUTPUT_ALARMA;
 967              		.loc 1 284 25 is_stmt 0 view .LVU248
 968 0028 FF23     		movs	r3, #255
 969 002a C360     		str	r3, [r0, #12]
 285:Core/Src/main.cpp ****   hrtc.Init.OutPutPolarity = RTC_OUTPUT_POLARITY_LOW;
 970              		.loc 1 285 3 is_stmt 1 view .LVU249
 285:Core/Src/main.cpp ****   hrtc.Init.OutPutPolarity = RTC_OUTPUT_POLARITY_LOW;
 971              		.loc 1 285 20 is_stmt 0 view .LVU250
 972 002c 4FF40013 		mov	r3, #2097152
 973 0030 0361     		str	r3, [r0, #16]
 286:Core/Src/main.cpp ****   hrtc.Init.OutPutType = RTC_OUTPUT_TYPE_PUSHPULL;
 974              		.loc 1 286 3 is_stmt 1 view .LVU251
 286:Core/Src/main.cpp ****   hrtc.Init.OutPutType = RTC_OUTPUT_TYPE_PUSHPULL;
 975              		.loc 1 286 28 is_stmt 0 view .LVU252
 976 0032 4FF48013 		mov	r3, #1048576
 977 0036 4361     		str	r3, [r0, #20]
 287:Core/Src/main.cpp ****   if (HAL_RTC_Init(&hrtc) != HAL_OK)
 978              		.loc 1 287 3 is_stmt 1 view .LVU253
 287:Core/Src/main.cpp ****   if (HAL_RTC_Init(&hrtc) != HAL_OK)
 979              		.loc 1 287 24 is_stmt 0 view .LVU254
 980 0038 4FF48023 		mov	r3, #262144
 981 003c 8361     		str	r3, [r0, #24]
 288:Core/Src/main.cpp ****   {
 982              		.loc 1 288 3 is_stmt 1 view .LVU255
 288:Core/Src/main.cpp ****   {
 983              		.loc 1 288 19 is_stmt 0 view .LVU256
 984 003e FFF7FEFF 		bl	HAL_RTC_Init
 985              	.LVL34:
 288:Core/Src/main.cpp ****   {
ARM GAS  /tmp/ccw0tTki.s 			page 34


 986              		.loc 1 288 3 discriminator 1 view .LVU257
 987 0042 0028     		cmp	r0, #0
 988 0044 39D1     		bne	.L57
 299:Core/Src/main.cpp ****   sTime.Minutes = 0x0;
 989              		.loc 1 299 3 is_stmt 1 view .LVU258
 299:Core/Src/main.cpp ****   sTime.Minutes = 0x0;
 990              		.loc 1 299 15 is_stmt 0 view .LVU259
 991 0046 0023     		movs	r3, #0
 992 0048 8DF82C30 		strb	r3, [sp, #44]
 300:Core/Src/main.cpp ****   sTime.Seconds = 0x0;
 993              		.loc 1 300 3 is_stmt 1 view .LVU260
 300:Core/Src/main.cpp ****   sTime.Seconds = 0x0;
 994              		.loc 1 300 17 is_stmt 0 view .LVU261
 995 004c 8DF82D30 		strb	r3, [sp, #45]
 301:Core/Src/main.cpp ****   sTime.DayLightSaving = RTC_DAYLIGHTSAVING_NONE;
 996              		.loc 1 301 3 is_stmt 1 view .LVU262
 301:Core/Src/main.cpp ****   sTime.DayLightSaving = RTC_DAYLIGHTSAVING_NONE;
 997              		.loc 1 301 17 is_stmt 0 view .LVU263
 998 0050 8DF82E30 		strb	r3, [sp, #46]
 302:Core/Src/main.cpp ****   sTime.StoreOperation = RTC_STOREOPERATION_RESET;
 999              		.loc 1 302 3 is_stmt 1 view .LVU264
 302:Core/Src/main.cpp ****   sTime.StoreOperation = RTC_STOREOPERATION_RESET;
 1000              		.loc 1 302 24 is_stmt 0 view .LVU265
 1001 0054 0E93     		str	r3, [sp, #56]
 303:Core/Src/main.cpp ****   if (HAL_RTC_SetTime(&hrtc, &sTime, RTC_FORMAT_BCD) != HAL_OK)
 1002              		.loc 1 303 3 is_stmt 1 view .LVU266
 303:Core/Src/main.cpp ****   if (HAL_RTC_SetTime(&hrtc, &sTime, RTC_FORMAT_BCD) != HAL_OK)
 1003              		.loc 1 303 24 is_stmt 0 view .LVU267
 1004 0056 0F93     		str	r3, [sp, #60]
 304:Core/Src/main.cpp ****   {
 1005              		.loc 1 304 3 is_stmt 1 view .LVU268
 304:Core/Src/main.cpp ****   {
 1006              		.loc 1 304 22 is_stmt 0 view .LVU269
 1007 0058 0122     		movs	r2, #1
 1008 005a 0BA9     		add	r1, sp, #44
 1009 005c 1B48     		ldr	r0, .L61
 1010 005e FFF7FEFF 		bl	HAL_RTC_SetTime
 1011              	.LVL35:
 304:Core/Src/main.cpp ****   {
 1012              		.loc 1 304 3 discriminator 1 view .LVU270
 1013 0062 60BB     		cbnz	r0, .L58
 308:Core/Src/main.cpp ****   sDate.Month = RTC_MONTH_JANUARY;
 1014              		.loc 1 308 3 is_stmt 1 view .LVU271
 308:Core/Src/main.cpp ****   sDate.Month = RTC_MONTH_JANUARY;
 1015              		.loc 1 308 17 is_stmt 0 view .LVU272
 1016 0064 0122     		movs	r2, #1
 1017 0066 8DF82820 		strb	r2, [sp, #40]
 309:Core/Src/main.cpp ****   sDate.Date = 0x1;
 1018              		.loc 1 309 3 is_stmt 1 view .LVU273
 309:Core/Src/main.cpp ****   sDate.Date = 0x1;
 1019              		.loc 1 309 15 is_stmt 0 view .LVU274
 1020 006a 8DF82920 		strb	r2, [sp, #41]
 310:Core/Src/main.cpp ****   sDate.Year = 0x0;
 1021              		.loc 1 310 3 is_stmt 1 view .LVU275
 310:Core/Src/main.cpp ****   sDate.Year = 0x0;
 1022              		.loc 1 310 14 is_stmt 0 view .LVU276
 1023 006e 8DF82A20 		strb	r2, [sp, #42]
ARM GAS  /tmp/ccw0tTki.s 			page 35


 311:Core/Src/main.cpp **** 
 1024              		.loc 1 311 3 is_stmt 1 view .LVU277
 311:Core/Src/main.cpp **** 
 1025              		.loc 1 311 14 is_stmt 0 view .LVU278
 1026 0072 0023     		movs	r3, #0
 1027 0074 8DF82B30 		strb	r3, [sp, #43]
 313:Core/Src/main.cpp ****   {
 1028              		.loc 1 313 3 is_stmt 1 view .LVU279
 313:Core/Src/main.cpp ****   {
 1029              		.loc 1 313 22 is_stmt 0 view .LVU280
 1030 0078 0AA9     		add	r1, sp, #40
 1031 007a 1448     		ldr	r0, .L61
 1032 007c FFF7FEFF 		bl	HAL_RTC_SetDate
 1033              	.LVL36:
 313:Core/Src/main.cpp ****   {
 1034              		.loc 1 313 3 discriminator 1 view .LVU281
 1035 0080 F8B9     		cbnz	r0, .L59
 320:Core/Src/main.cpp ****   sAlarm.AlarmTime.Minutes = 0x0;
 1036              		.loc 1 320 3 is_stmt 1 view .LVU282
 320:Core/Src/main.cpp ****   sAlarm.AlarmTime.Minutes = 0x0;
 1037              		.loc 1 320 26 is_stmt 0 view .LVU283
 1038 0082 0023     		movs	r3, #0
 1039 0084 8DF80030 		strb	r3, [sp]
 321:Core/Src/main.cpp ****   sAlarm.AlarmTime.Seconds = 0x10;
 1040              		.loc 1 321 3 is_stmt 1 view .LVU284
 321:Core/Src/main.cpp ****   sAlarm.AlarmTime.Seconds = 0x10;
 1041              		.loc 1 321 28 is_stmt 0 view .LVU285
 1042 0088 8DF80130 		strb	r3, [sp, #1]
 322:Core/Src/main.cpp ****   sAlarm.AlarmTime.SubSeconds = 0x0;
 1043              		.loc 1 322 3 is_stmt 1 view .LVU286
 322:Core/Src/main.cpp ****   sAlarm.AlarmTime.SubSeconds = 0x0;
 1044              		.loc 1 322 28 is_stmt 0 view .LVU287
 1045 008c 1022     		movs	r2, #16
 1046 008e 8DF80220 		strb	r2, [sp, #2]
 323:Core/Src/main.cpp ****   sAlarm.AlarmTime.DayLightSaving = RTC_DAYLIGHTSAVING_NONE;
 1047              		.loc 1 323 3 is_stmt 1 view .LVU288
 323:Core/Src/main.cpp ****   sAlarm.AlarmTime.DayLightSaving = RTC_DAYLIGHTSAVING_NONE;
 1048              		.loc 1 323 31 is_stmt 0 view .LVU289
 1049 0092 0193     		str	r3, [sp, #4]
 324:Core/Src/main.cpp ****   sAlarm.AlarmTime.StoreOperation = RTC_STOREOPERATION_RESET;
 1050              		.loc 1 324 3 is_stmt 1 view .LVU290
 324:Core/Src/main.cpp ****   sAlarm.AlarmTime.StoreOperation = RTC_STOREOPERATION_RESET;
 1051              		.loc 1 324 35 is_stmt 0 view .LVU291
 1052 0094 0393     		str	r3, [sp, #12]
 325:Core/Src/main.cpp ****   sAlarm.AlarmMask = RTC_ALARMMASK_DATEWEEKDAY|RTC_ALARMMASK_HOURS
 1053              		.loc 1 325 3 is_stmt 1 view .LVU292
 325:Core/Src/main.cpp ****   sAlarm.AlarmMask = RTC_ALARMMASK_DATEWEEKDAY|RTC_ALARMMASK_HOURS
 1054              		.loc 1 325 35 is_stmt 0 view .LVU293
 1055 0096 0493     		str	r3, [sp, #16]
 326:Core/Src/main.cpp ****                               |RTC_ALARMMASK_MINUTES;
 1056              		.loc 1 326 3 is_stmt 1 view .LVU294
 326:Core/Src/main.cpp ****                               |RTC_ALARMMASK_MINUTES;
 1057              		.loc 1 326 20 is_stmt 0 view .LVU295
 1058 0098 0E4A     		ldr	r2, .L61+8
 1059 009a 0592     		str	r2, [sp, #20]
 328:Core/Src/main.cpp ****   sAlarm.AlarmDateWeekDaySel = RTC_ALARMDATEWEEKDAYSEL_DATE;
 1060              		.loc 1 328 3 is_stmt 1 view .LVU296
ARM GAS  /tmp/ccw0tTki.s 			page 36


 328:Core/Src/main.cpp ****   sAlarm.AlarmDateWeekDaySel = RTC_ALARMDATEWEEKDAYSEL_DATE;
 1061              		.loc 1 328 29 is_stmt 0 view .LVU297
 1062 009c 0693     		str	r3, [sp, #24]
 329:Core/Src/main.cpp ****   sAlarm.AlarmDateWeekDay = 0x1;
 1063              		.loc 1 329 3 is_stmt 1 view .LVU298
 329:Core/Src/main.cpp ****   sAlarm.AlarmDateWeekDay = 0x1;
 1064              		.loc 1 329 30 is_stmt 0 view .LVU299
 1065 009e 0793     		str	r3, [sp, #28]
 330:Core/Src/main.cpp ****   sAlarm.Alarm = RTC_ALARM_A;
 1066              		.loc 1 330 3 is_stmt 1 view .LVU300
 330:Core/Src/main.cpp ****   sAlarm.Alarm = RTC_ALARM_A;
 1067              		.loc 1 330 27 is_stmt 0 view .LVU301
 1068 00a0 0122     		movs	r2, #1
 1069 00a2 8DF82020 		strb	r2, [sp, #32]
 331:Core/Src/main.cpp ****   if (HAL_RTC_SetAlarm_IT(&hrtc, &sAlarm, RTC_FORMAT_BCD) != HAL_OK)
 1070              		.loc 1 331 3 is_stmt 1 view .LVU302
 331:Core/Src/main.cpp ****   if (HAL_RTC_SetAlarm_IT(&hrtc, &sAlarm, RTC_FORMAT_BCD) != HAL_OK)
 1071              		.loc 1 331 16 is_stmt 0 view .LVU303
 1072 00a6 4FF48073 		mov	r3, #256
 1073 00aa 0993     		str	r3, [sp, #36]
 332:Core/Src/main.cpp ****   {
 1074              		.loc 1 332 3 is_stmt 1 view .LVU304
 332:Core/Src/main.cpp ****   {
 1075              		.loc 1 332 26 is_stmt 0 view .LVU305
 1076 00ac 6946     		mov	r1, sp
 1077 00ae 0748     		ldr	r0, .L61
 1078 00b0 FFF7FEFF 		bl	HAL_RTC_SetAlarm_IT
 1079              	.LVL37:
 332:Core/Src/main.cpp ****   {
 1080              		.loc 1 332 3 discriminator 1 view .LVU306
 1081 00b4 38B9     		cbnz	r0, .L60
 340:Core/Src/main.cpp **** 
 1082              		.loc 1 340 1 view .LVU307
 1083 00b6 10B0     		add	sp, sp, #64
 1084              		.cfi_remember_state
 1085              		.cfi_def_cfa_offset 8
 1086              		@ sp needed
 1087 00b8 10BD     		pop	{r4, pc}
 1088              	.L57:
 1089              		.cfi_restore_state
 290:Core/Src/main.cpp ****   }
 1090              		.loc 1 290 5 is_stmt 1 view .LVU308
 290:Core/Src/main.cpp ****   }
 1091              		.loc 1 290 18 is_stmt 0 view .LVU309
 1092 00ba FFF7FEFF 		bl	Error_Handler
 1093              	.LVL38:
 1094              	.L58:
 306:Core/Src/main.cpp ****   }
 1095              		.loc 1 306 5 is_stmt 1 view .LVU310
 306:Core/Src/main.cpp ****   }
 1096              		.loc 1 306 18 is_stmt 0 view .LVU311
 1097 00be FFF7FEFF 		bl	Error_Handler
 1098              	.LVL39:
 1099              	.L59:
 315:Core/Src/main.cpp ****   }
 1100              		.loc 1 315 5 is_stmt 1 view .LVU312
 315:Core/Src/main.cpp ****   }
ARM GAS  /tmp/ccw0tTki.s 			page 37


 1101              		.loc 1 315 18 is_stmt 0 view .LVU313
 1102 00c2 FFF7FEFF 		bl	Error_Handler
 1103              	.LVL40:
 1104              	.L60:
 334:Core/Src/main.cpp ****   }
 1105              		.loc 1 334 5 is_stmt 1 view .LVU314
 334:Core/Src/main.cpp ****   }
 1106              		.loc 1 334 18 is_stmt 0 view .LVU315
 1107 00c6 FFF7FEFF 		bl	Error_Handler
 1108              	.LVL41:
 1109              	.L62:
 1110 00ca 00BF     		.align	2
 1111              	.L61:
 1112 00cc 00000000 		.word	hrtc
 1113 00d0 00280040 		.word	1073752064
 1114 00d4 00808080 		.word	-2139062272
 1115              		.cfi_endproc
 1116              	.LFE604:
 1117              		.fnend
 1119              		.section	.text._Z18SystemClock_Configv,"ax",%progbits
 1120              		.align	1
 1121              		.global	_Z18SystemClock_Configv
 1122              		.syntax unified
 1123              		.thumb
 1124              		.thumb_func
 1126              	_Z18SystemClock_Configv:
 1127              		.fnstart
 1128              	.LFB601:
 146:Core/Src/main.cpp ****   RCC_OscInitTypeDef RCC_OscInitStruct = {0};
 1129              		.loc 1 146 1 is_stmt 1 view -0
 1130              		.cfi_startproc
 1131              		@ args = 0, pretend = 0, frame = 80
 1132              		@ frame_needed = 0, uses_anonymous_args = 0
 1133 0000 10B5     		push	{r4, lr}
 1134              		.save {r4, lr}
 1135              		.cfi_def_cfa_offset 8
 1136              		.cfi_offset 4, -8
 1137              		.cfi_offset 14, -4
 1138              		.pad #80
 1139 0002 94B0     		sub	sp, sp, #80
 1140              		.cfi_def_cfa_offset 88
 147:Core/Src/main.cpp ****   RCC_ClkInitTypeDef RCC_ClkInitStruct = {0};
 1141              		.loc 1 147 3 view .LVU317
 147:Core/Src/main.cpp ****   RCC_ClkInitTypeDef RCC_ClkInitStruct = {0};
 1142              		.loc 1 147 22 is_stmt 0 view .LVU318
 1143 0004 08AC     		add	r4, sp, #32
 1144 0006 3022     		movs	r2, #48
 1145 0008 0021     		movs	r1, #0
 1146 000a 2046     		mov	r0, r4
 1147 000c FFF7FEFF 		bl	memset
 1148              	.LVL42:
 148:Core/Src/main.cpp **** 
 1149              		.loc 1 148 3 is_stmt 1 view .LVU319
 148:Core/Src/main.cpp **** 
 1150              		.loc 1 148 22 is_stmt 0 view .LVU320
 1151 0010 0023     		movs	r3, #0
 1152 0012 0393     		str	r3, [sp, #12]
ARM GAS  /tmp/ccw0tTki.s 			page 38


 1153 0014 0493     		str	r3, [sp, #16]
 1154 0016 0593     		str	r3, [sp, #20]
 1155 0018 0693     		str	r3, [sp, #24]
 1156 001a 0793     		str	r3, [sp, #28]
 152:Core/Src/main.cpp ****   __HAL_PWR_VOLTAGESCALING_CONFIG(PWR_REGULATOR_VOLTAGE_SCALE2);
 1157              		.loc 1 152 3 is_stmt 1 view .LVU321
 1158              	.LBB71:
 152:Core/Src/main.cpp ****   __HAL_PWR_VOLTAGESCALING_CONFIG(PWR_REGULATOR_VOLTAGE_SCALE2);
 1159              		.loc 1 152 3 view .LVU322
 1160 001c 0193     		str	r3, [sp, #4]
 152:Core/Src/main.cpp ****   __HAL_PWR_VOLTAGESCALING_CONFIG(PWR_REGULATOR_VOLTAGE_SCALE2);
 1161              		.loc 1 152 3 view .LVU323
 1162 001e 254A     		ldr	r2, .L69
 1163 0020 116C     		ldr	r1, [r2, #64]
 1164 0022 41F08051 		orr	r1, r1, #268435456
 1165 0026 1164     		str	r1, [r2, #64]
 152:Core/Src/main.cpp ****   __HAL_PWR_VOLTAGESCALING_CONFIG(PWR_REGULATOR_VOLTAGE_SCALE2);
 1166              		.loc 1 152 3 view .LVU324
 1167 0028 126C     		ldr	r2, [r2, #64]
 1168 002a 02F08052 		and	r2, r2, #268435456
 1169 002e 0192     		str	r2, [sp, #4]
 152:Core/Src/main.cpp ****   __HAL_PWR_VOLTAGESCALING_CONFIG(PWR_REGULATOR_VOLTAGE_SCALE2);
 1170              		.loc 1 152 3 view .LVU325
 1171 0030 019A     		ldr	r2, [sp, #4]
 1172              	.LBE71:
 152:Core/Src/main.cpp ****   __HAL_PWR_VOLTAGESCALING_CONFIG(PWR_REGULATOR_VOLTAGE_SCALE2);
 1173              		.loc 1 152 3 view .LVU326
 153:Core/Src/main.cpp **** 
 1174              		.loc 1 153 3 view .LVU327
 1175              	.LBB72:
 153:Core/Src/main.cpp **** 
 1176              		.loc 1 153 3 view .LVU328
 1177 0032 0293     		str	r3, [sp, #8]
 153:Core/Src/main.cpp **** 
 1178              		.loc 1 153 3 view .LVU329
 1179 0034 204A     		ldr	r2, .L69+4
 1180 0036 1368     		ldr	r3, [r2]
 1181 0038 23F44043 		bic	r3, r3, #49152
 1182 003c 43F40043 		orr	r3, r3, #32768
 1183 0040 1360     		str	r3, [r2]
 153:Core/Src/main.cpp **** 
 1184              		.loc 1 153 3 view .LVU330
 1185 0042 1368     		ldr	r3, [r2]
 1186 0044 03F44043 		and	r3, r3, #49152
 1187 0048 0293     		str	r3, [sp, #8]
 153:Core/Src/main.cpp **** 
 1188              		.loc 1 153 3 view .LVU331
 1189 004a 029B     		ldr	r3, [sp, #8]
 1190              	.LBE72:
 153:Core/Src/main.cpp **** 
 1191              		.loc 1 153 3 view .LVU332
 158:Core/Src/main.cpp ****                               |RCC_OSCILLATORTYPE_HSE;
 1192              		.loc 1 158 3 view .LVU333
 158:Core/Src/main.cpp ****                               |RCC_OSCILLATORTYPE_HSE;
 1193              		.loc 1 158 36 is_stmt 0 view .LVU334
 1194 004c 0B23     		movs	r3, #11
 1195 004e 0893     		str	r3, [sp, #32]
ARM GAS  /tmp/ccw0tTki.s 			page 39


 160:Core/Src/main.cpp ****   RCC_OscInitStruct.HSIState = RCC_HSI_ON;
 1196              		.loc 1 160 3 is_stmt 1 view .LVU335
 160:Core/Src/main.cpp ****   RCC_OscInitStruct.HSIState = RCC_HSI_ON;
 1197              		.loc 1 160 30 is_stmt 0 view .LVU336
 1198 0050 4FF48033 		mov	r3, #65536
 1199 0054 0993     		str	r3, [sp, #36]
 161:Core/Src/main.cpp ****   RCC_OscInitStruct.HSICalibrationValue = RCC_HSICALIBRATION_DEFAULT;
 1200              		.loc 1 161 3 is_stmt 1 view .LVU337
 161:Core/Src/main.cpp ****   RCC_OscInitStruct.HSICalibrationValue = RCC_HSICALIBRATION_DEFAULT;
 1201              		.loc 1 161 30 is_stmt 0 view .LVU338
 1202 0056 0123     		movs	r3, #1
 1203 0058 0B93     		str	r3, [sp, #44]
 162:Core/Src/main.cpp ****   RCC_OscInitStruct.LSIState = RCC_LSI_ON;
 1204              		.loc 1 162 3 is_stmt 1 view .LVU339
 162:Core/Src/main.cpp ****   RCC_OscInitStruct.LSIState = RCC_LSI_ON;
 1205              		.loc 1 162 41 is_stmt 0 view .LVU340
 1206 005a 1022     		movs	r2, #16
 1207 005c 0C92     		str	r2, [sp, #48]
 163:Core/Src/main.cpp ****   RCC_OscInitStruct.PLL.PLLState = RCC_PLL_ON;
 1208              		.loc 1 163 3 is_stmt 1 view .LVU341
 163:Core/Src/main.cpp ****   RCC_OscInitStruct.PLL.PLLState = RCC_PLL_ON;
 1209              		.loc 1 163 30 is_stmt 0 view .LVU342
 1210 005e 0D93     		str	r3, [sp, #52]
 164:Core/Src/main.cpp ****   RCC_OscInitStruct.PLL.PLLSource = RCC_PLLSOURCE_HSE;
 1211              		.loc 1 164 3 is_stmt 1 view .LVU343
 164:Core/Src/main.cpp ****   RCC_OscInitStruct.PLL.PLLSource = RCC_PLLSOURCE_HSE;
 1212              		.loc 1 164 34 is_stmt 0 view .LVU344
 1213 0060 0223     		movs	r3, #2
 1214 0062 0E93     		str	r3, [sp, #56]
 165:Core/Src/main.cpp ****   RCC_OscInitStruct.PLL.PLLM = 25;
 1215              		.loc 1 165 3 is_stmt 1 view .LVU345
 165:Core/Src/main.cpp ****   RCC_OscInitStruct.PLL.PLLM = 25;
 1216              		.loc 1 165 35 is_stmt 0 view .LVU346
 1217 0064 4FF48002 		mov	r2, #4194304
 1218 0068 0F92     		str	r2, [sp, #60]
 166:Core/Src/main.cpp ****   RCC_OscInitStruct.PLL.PLLN = 168;
 1219              		.loc 1 166 3 is_stmt 1 view .LVU347
 166:Core/Src/main.cpp ****   RCC_OscInitStruct.PLL.PLLN = 168;
 1220              		.loc 1 166 30 is_stmt 0 view .LVU348
 1221 006a 1922     		movs	r2, #25
 1222 006c 1092     		str	r2, [sp, #64]
 167:Core/Src/main.cpp ****   RCC_OscInitStruct.PLL.PLLP = RCC_PLLP_DIV2;
 1223              		.loc 1 167 3 is_stmt 1 view .LVU349
 167:Core/Src/main.cpp ****   RCC_OscInitStruct.PLL.PLLP = RCC_PLLP_DIV2;
 1224              		.loc 1 167 30 is_stmt 0 view .LVU350
 1225 006e A822     		movs	r2, #168
 1226 0070 1192     		str	r2, [sp, #68]
 168:Core/Src/main.cpp ****   RCC_OscInitStruct.PLL.PLLQ = 4;
 1227              		.loc 1 168 3 is_stmt 1 view .LVU351
 168:Core/Src/main.cpp ****   RCC_OscInitStruct.PLL.PLLQ = 4;
 1228              		.loc 1 168 30 is_stmt 0 view .LVU352
 1229 0072 1293     		str	r3, [sp, #72]
 169:Core/Src/main.cpp ****   if (HAL_RCC_OscConfig(&RCC_OscInitStruct) != HAL_OK)
 1230              		.loc 1 169 3 is_stmt 1 view .LVU353
 169:Core/Src/main.cpp ****   if (HAL_RCC_OscConfig(&RCC_OscInitStruct) != HAL_OK)
 1231              		.loc 1 169 30 is_stmt 0 view .LVU354
 1232 0074 0423     		movs	r3, #4
ARM GAS  /tmp/ccw0tTki.s 			page 40


 1233 0076 1393     		str	r3, [sp, #76]
 170:Core/Src/main.cpp ****   {
 1234              		.loc 1 170 3 is_stmt 1 view .LVU355
 170:Core/Src/main.cpp ****   {
 1235              		.loc 1 170 24 is_stmt 0 view .LVU356
 1236 0078 2046     		mov	r0, r4
 1237 007a FFF7FEFF 		bl	HAL_RCC_OscConfig
 1238              	.LVL43:
 170:Core/Src/main.cpp ****   {
 1239              		.loc 1 170 3 discriminator 1 view .LVU357
 1240 007e A0B9     		cbnz	r0, .L67
 177:Core/Src/main.cpp ****                               |RCC_CLOCKTYPE_PCLK1|RCC_CLOCKTYPE_PCLK2;
 1241              		.loc 1 177 3 is_stmt 1 view .LVU358
 177:Core/Src/main.cpp ****                               |RCC_CLOCKTYPE_PCLK1|RCC_CLOCKTYPE_PCLK2;
 1242              		.loc 1 177 31 is_stmt 0 view .LVU359
 1243 0080 0F23     		movs	r3, #15
 1244 0082 0393     		str	r3, [sp, #12]
 179:Core/Src/main.cpp ****   RCC_ClkInitStruct.AHBCLKDivider = RCC_SYSCLK_DIV1;
 1245              		.loc 1 179 3 is_stmt 1 view .LVU360
 179:Core/Src/main.cpp ****   RCC_ClkInitStruct.AHBCLKDivider = RCC_SYSCLK_DIV1;
 1246              		.loc 1 179 34 is_stmt 0 view .LVU361
 1247 0084 0221     		movs	r1, #2
 1248 0086 0491     		str	r1, [sp, #16]
 180:Core/Src/main.cpp ****   RCC_ClkInitStruct.APB1CLKDivider = RCC_HCLK_DIV2;
 1249              		.loc 1 180 3 is_stmt 1 view .LVU362
 180:Core/Src/main.cpp ****   RCC_ClkInitStruct.APB1CLKDivider = RCC_HCLK_DIV2;
 1250              		.loc 1 180 35 is_stmt 0 view .LVU363
 1251 0088 0023     		movs	r3, #0
 1252 008a 0593     		str	r3, [sp, #20]
 181:Core/Src/main.cpp ****   RCC_ClkInitStruct.APB2CLKDivider = RCC_HCLK_DIV1;
 1253              		.loc 1 181 3 is_stmt 1 view .LVU364
 181:Core/Src/main.cpp ****   RCC_ClkInitStruct.APB2CLKDivider = RCC_HCLK_DIV1;
 1254              		.loc 1 181 36 is_stmt 0 view .LVU365
 1255 008c 4FF48052 		mov	r2, #4096
 1256 0090 0692     		str	r2, [sp, #24]
 182:Core/Src/main.cpp **** 
 1257              		.loc 1 182 3 is_stmt 1 view .LVU366
 182:Core/Src/main.cpp **** 
 1258              		.loc 1 182 36 is_stmt 0 view .LVU367
 1259 0092 0793     		str	r3, [sp, #28]
 184:Core/Src/main.cpp ****   {
 1260              		.loc 1 184 3 is_stmt 1 view .LVU368
 184:Core/Src/main.cpp ****   {
 1261              		.loc 1 184 26 is_stmt 0 view .LVU369
 1262 0094 03A8     		add	r0, sp, #12
 1263 0096 FFF7FEFF 		bl	HAL_RCC_ClockConfig
 1264              	.LVL44:
 184:Core/Src/main.cpp ****   {
 1265              		.loc 1 184 3 discriminator 1 view .LVU370
 1266 009a 40B9     		cbnz	r0, .L68
 188:Core/Src/main.cpp **** }
 1267              		.loc 1 188 3 is_stmt 1 view .LVU371
 188:Core/Src/main.cpp **** }
 1268              		.loc 1 188 20 is_stmt 0 view .LVU372
 1269 009c 0022     		movs	r2, #0
 1270 009e 1146     		mov	r1, r2
 1271 00a0 1046     		mov	r0, r2
ARM GAS  /tmp/ccw0tTki.s 			page 41


 1272 00a2 FFF7FEFF 		bl	HAL_RCC_MCOConfig
 1273              	.LVL45:
 189:Core/Src/main.cpp **** 
 1274              		.loc 1 189 1 view .LVU373
 1275 00a6 14B0     		add	sp, sp, #80
 1276              		.cfi_remember_state
 1277              		.cfi_def_cfa_offset 8
 1278              		@ sp needed
 1279 00a8 10BD     		pop	{r4, pc}
 1280              	.L67:
 1281              		.cfi_restore_state
 172:Core/Src/main.cpp ****   }
 1282              		.loc 1 172 5 is_stmt 1 view .LVU374
 172:Core/Src/main.cpp ****   }
 1283              		.loc 1 172 18 is_stmt 0 view .LVU375
 1284 00aa FFF7FEFF 		bl	Error_Handler
 1285              	.LVL46:
 1286              	.L68:
 186:Core/Src/main.cpp ****   }
 1287              		.loc 1 186 5 is_stmt 1 view .LVU376
 186:Core/Src/main.cpp ****   }
 1288              		.loc 1 186 18 is_stmt 0 view .LVU377
 1289 00ae FFF7FEFF 		bl	Error_Handler
 1290              	.LVL47:
 1291              	.L70:
 1292 00b2 00BF     		.align	2
 1293              	.L69:
 1294 00b4 00380240 		.word	1073887232
 1295 00b8 00700040 		.word	1073770496
 1296              		.cfi_endproc
 1297              	.LFE601:
 1298              		.fnend
 1300              		.section	.text.main,"ax",%progbits
 1301              		.align	1
 1302              		.global	main
 1303              		.syntax unified
 1304              		.thumb
 1305              		.thumb_func
 1307              	main:
 1308              		.fnstart
 1309              	.LFB600:
  93:Core/Src/main.cpp ****   /* USER CODE BEGIN 1 */
 1310              		.loc 1 93 1 is_stmt 1 view -0
 1311              		.cfi_startproc
 1312              		@ args = 0, pretend = 0, frame = 0
 1313              		@ frame_needed = 0, uses_anonymous_args = 0
 1314 0000 08B5     		push	{r3, lr}
 1315              		.save {r3, lr}
 1316              		.cfi_def_cfa_offset 8
 1317              		.cfi_offset 3, -8
 1318              		.cfi_offset 14, -4
 101:Core/Src/main.cpp **** 
 1319              		.loc 1 101 3 view .LVU379
 101:Core/Src/main.cpp **** 
 1320              		.loc 1 101 11 is_stmt 0 view .LVU380
 1321 0002 FFF7FEFF 		bl	HAL_Init
 1322              	.LVL48:
ARM GAS  /tmp/ccw0tTki.s 			page 42


 108:Core/Src/main.cpp **** 
 1323              		.loc 1 108 3 is_stmt 1 view .LVU381
 108:Core/Src/main.cpp **** 
 1324              		.loc 1 108 21 is_stmt 0 view .LVU382
 1325 0006 FFF7FEFF 		bl	_Z18SystemClock_Configv
 1326              	.LVL49:
 115:Core/Src/main.cpp ****   MX_DMA_Init();
 1327              		.loc 1 115 3 is_stmt 1 view .LVU383
 115:Core/Src/main.cpp ****   MX_DMA_Init();
 1328              		.loc 1 115 15 is_stmt 0 view .LVU384
 1329 000a FFF7FEFF 		bl	_ZL12MX_GPIO_Initv
 1330              	.LVL50:
 116:Core/Src/main.cpp ****   MX_I2C1_Init();
 1331              		.loc 1 116 3 is_stmt 1 view .LVU385
 116:Core/Src/main.cpp ****   MX_I2C1_Init();
 1332              		.loc 1 116 14 is_stmt 0 view .LVU386
 1333 000e FFF7FEFF 		bl	_ZL11MX_DMA_Initv
 1334              	.LVL51:
 117:Core/Src/main.cpp ****   MX_I2S2_Init();
 1335              		.loc 1 117 3 is_stmt 1 view .LVU387
 117:Core/Src/main.cpp ****   MX_I2S2_Init();
 1336              		.loc 1 117 15 is_stmt 0 view .LVU388
 1337 0012 FFF7FEFF 		bl	_ZL12MX_I2C1_Initv
 1338              	.LVL52:
 118:Core/Src/main.cpp ****   MX_SPI1_Init();
 1339              		.loc 1 118 3 is_stmt 1 view .LVU389
 118:Core/Src/main.cpp ****   MX_SPI1_Init();
 1340              		.loc 1 118 15 is_stmt 0 view .LVU390
 1341 0016 FFF7FEFF 		bl	_ZL12MX_I2S2_Initv
 1342              	.LVL53:
 119:Core/Src/main.cpp ****   MX_USART1_UART_Init();
 1343              		.loc 1 119 3 is_stmt 1 view .LVU391
 119:Core/Src/main.cpp ****   MX_USART1_UART_Init();
 1344              		.loc 1 119 15 is_stmt 0 view .LVU392
 1345 001a FFF7FEFF 		bl	_ZL12MX_SPI1_Initv
 1346              	.LVL54:
 120:Core/Src/main.cpp ****   MX_RTC_Init();
 1347              		.loc 1 120 3 is_stmt 1 view .LVU393
 120:Core/Src/main.cpp ****   MX_RTC_Init();
 1348              		.loc 1 120 22 is_stmt 0 view .LVU394
 1349 001e FFF7FEFF 		bl	_ZL19MX_USART1_UART_Initv
 1350              	.LVL55:
 121:Core/Src/main.cpp ****   /* USER CODE BEGIN 2 */
 1351              		.loc 1 121 3 is_stmt 1 view .LVU395
 121:Core/Src/main.cpp ****   /* USER CODE BEGIN 2 */
 1352              		.loc 1 121 14 is_stmt 0 view .LVU396
 1353 0022 FFF7FEFF 		bl	_ZL11MX_RTC_Initv
 1354              	.LVL56:
 123:Core/Src/main.cpp ****   register_handler(alarm_wakeup_irqn, &alarmObj);
 1355              		.loc 1 123 3 is_stmt 1 view .LVU397
 123:Core/Src/main.cpp ****   register_handler(alarm_wakeup_irqn, &alarmObj);
 1356              		.loc 1 123 19 is_stmt 0 view .LVU398
 1357 0026 0649     		ldr	r1, .L74
 1358 0028 0020     		movs	r0, #0
 1359 002a FFF7FEFF 		bl	_Z16register_handleriP16InterruptHandler
 1360              	.LVL57:
 124:Core/Src/main.cpp ****   //audio_test::runTest(hi2c1, hdma_spi2_tx, i2sObj);
ARM GAS  /tmp/ccw0tTki.s 			page 43


 1361              		.loc 1 124 3 is_stmt 1 view .LVU399
 124:Core/Src/main.cpp ****   //audio_test::runTest(hi2c1, hdma_spi2_tx, i2sObj);
 1362              		.loc 1 124 19 is_stmt 0 view .LVU400
 1363 002e 0549     		ldr	r1, .L74+4
 1364 0030 0120     		movs	r0, #1
 1365 0032 FFF7FEFF 		bl	_Z16register_handleriP16InterruptHandler
 1366              	.LVL58:
 126:Core/Src/main.cpp **** 
 1367              		.loc 1 126 3 is_stmt 1 view .LVU401
 126:Core/Src/main.cpp **** 
 1368              		.loc 1 126 22 is_stmt 0 view .LVU402
 1369 0036 0448     		ldr	r0, .L74+8
 1370 0038 FFF7FEFF 		bl	_ZN10sleep_test7runTestER17RTC_HandleTypeDef
 1371              	.LVL59:
 1372              	.L72:
 132:Core/Src/main.cpp ****   {
 1373              		.loc 1 132 3 is_stmt 1 view .LVU403
 132:Core/Src/main.cpp ****   {
 1374              		.loc 1 132 3 view .LVU404
 1375 003c FEE7     		b	.L72
 1376              	.L75:
 1377 003e 00BF     		.align	2
 1378              	.L74:
 1379 0040 00000000 		.word	i2sObj
 1380 0044 00000000 		.word	alarmObj
 1381 0048 00000000 		.word	hrtc
 1382              		.cfi_endproc
 1383              	.LFE600:
 1384              		.fnend
 1386              		.section	.text._GLOBAL__sub_I_hi2c1,"ax",%progbits
 1387              		.align	1
 1388              		.syntax unified
 1389              		.thumb
 1390              		.thumb_func
 1392              	_GLOBAL__sub_I_hi2c1:
 1393              		.fnstart
 1394              	.LFB627:
 1395              		.loc 1 507 1 view -0
 1396              		.cfi_startproc
 1397              		@ args = 0, pretend = 0, frame = 0
 1398              		@ frame_needed = 0, uses_anonymous_args = 0
 1399 0000 08B5     		push	{r3, lr}
 1400              		.cfi_def_cfa_offset 8
 1401              		.cfi_offset 3, -8
 1402              		.cfi_offset 14, -4
 1403              		.loc 1 507 1 is_stmt 0 view .LVU406
 1404 0002 FFF7FEFF 		bl	_Z41__static_initialization_and_destruction_0v
 1405              	.LVL60:
 1406 0006 08BD     		pop	{r3, pc}
 1407              		.cfi_endproc
 1408              	.LFE627:
 1409              		.cantunwind
 1410              		.fnend
 1412              		.section	.init_array,"aw",%init_array
 1413              		.align	2
 1414 0000 00000000 		.word	_GLOBAL__sub_I_hi2c1(target1)
 1415              		.weak	_ZTS16InterruptHandler
ARM GAS  /tmp/ccw0tTki.s 			page 44


 1416              		.section	.rodata._ZTS16InterruptHandler,"aG",%progbits,_ZTS16InterruptHandler,comdat
 1417              		.align	2
 1420              	_ZTS16InterruptHandler:
 1421 0000 3136496E 		.ascii	"16InterruptHandler\000"
 1421      74657272 
 1421      75707448 
 1421      616E646C 
 1421      657200
 1422              		.weak	_ZTI16InterruptHandler
 1423              		.section	.rodata._ZTI16InterruptHandler,"aG",%progbits,_ZTI16InterruptHandler,comdat
 1424              		.align	2
 1427              	_ZTI16InterruptHandler:
 1428 0000 08000000 		.word	_ZTVN10__cxxabiv117__class_type_infoE+8
 1429 0004 00000000 		.word	_ZTS16InterruptHandler
 1430              		.weak	_ZTS15InterruptObjectI19__I2S_HandleTypeDefE
 1431              		.section	.rodata._ZTS15InterruptObjectI19__I2S_HandleTypeDefE,"aG",%progbits,_ZTS15InterruptObject
 1432              		.align	2
 1435              	_ZTS15InterruptObjectI19__I2S_HandleTypeDefE:
 1436 0000 3135496E 		.ascii	"15InterruptObjectI19__I2S_HandleTypeDefE\000"
 1436      74657272 
 1436      7570744F 
 1436      626A6563 
 1436      74493139 
 1437              		.weak	_ZTI15InterruptObjectI19__I2S_HandleTypeDefE
 1438              		.section	.rodata._ZTI15InterruptObjectI19__I2S_HandleTypeDefE,"aG",%progbits,_ZTI15InterruptObject
 1439              		.align	2
 1442              	_ZTI15InterruptObjectI19__I2S_HandleTypeDefE:
 1443 0000 08000000 		.word	_ZTVN10__cxxabiv120__si_class_type_infoE+8
 1444 0004 00000000 		.word	_ZTS15InterruptObjectI19__I2S_HandleTypeDefE
 1445 0008 00000000 		.word	_ZTI16InterruptHandler
 1446              		.weak	_ZTS9i2sObject
 1447              		.section	.rodata._ZTS9i2sObject,"aG",%progbits,_ZTS9i2sObject,comdat
 1448              		.align	2
 1451              	_ZTS9i2sObject:
 1452 0000 39693273 		.ascii	"9i2sObject\000"
 1452      4F626A65 
 1452      637400
 1453              		.weak	_ZTI9i2sObject
 1454              		.section	.rodata._ZTI9i2sObject,"aG",%progbits,_ZTI9i2sObject,comdat
 1455              		.align	2
 1458              	_ZTI9i2sObject:
 1459 0000 08000000 		.word	_ZTVN10__cxxabiv120__si_class_type_infoE+8
 1460 0004 00000000 		.word	_ZTS9i2sObject
 1461 0008 00000000 		.word	_ZTI15InterruptObjectI19__I2S_HandleTypeDefE
 1462              		.weak	_ZTS15InterruptObjectI17RTC_HandleTypeDefE
 1463              		.section	.rodata._ZTS15InterruptObjectI17RTC_HandleTypeDefE,"aG",%progbits,_ZTS15InterruptObjectI1
 1464              		.align	2
 1467              	_ZTS15InterruptObjectI17RTC_HandleTypeDefE:
 1468 0000 3135496E 		.ascii	"15InterruptObjectI17RTC_HandleTypeDefE\000"
 1468      74657272 
 1468      7570744F 
 1468      626A6563 
 1468      74493137 
 1469              		.weak	_ZTI15InterruptObjectI17RTC_HandleTypeDefE
 1470              		.section	.rodata._ZTI15InterruptObjectI17RTC_HandleTypeDefE,"aG",%progbits,_ZTI15InterruptObjectI1
 1471              		.align	2
 1474              	_ZTI15InterruptObjectI17RTC_HandleTypeDefE:
ARM GAS  /tmp/ccw0tTki.s 			page 45


 1475 0000 08000000 		.word	_ZTVN10__cxxabiv120__si_class_type_infoE+8
 1476 0004 00000000 		.word	_ZTS15InterruptObjectI17RTC_HandleTypeDefE
 1477 0008 00000000 		.word	_ZTI16InterruptHandler
 1478              		.weak	_ZTS11alarmObject
 1479              		.section	.rodata._ZTS11alarmObject,"aG",%progbits,_ZTS11alarmObject,comdat
 1480              		.align	2
 1483              	_ZTS11alarmObject:
 1484 0000 3131616C 		.ascii	"11alarmObject\000"
 1484      61726D4F 
 1484      626A6563 
 1484      7400
 1485              		.weak	_ZTI11alarmObject
 1486              		.section	.rodata._ZTI11alarmObject,"aG",%progbits,_ZTI11alarmObject,comdat
 1487              		.align	2
 1490              	_ZTI11alarmObject:
 1491 0000 08000000 		.word	_ZTVN10__cxxabiv120__si_class_type_infoE+8
 1492 0004 00000000 		.word	_ZTS11alarmObject
 1493 0008 00000000 		.word	_ZTI15InterruptObjectI17RTC_HandleTypeDefE
 1494              		.weak	_ZTV16InterruptHandler
 1495              		.section	.rodata._ZTV16InterruptHandler,"aG",%progbits,_ZTV16InterruptHandler,comdat
 1496              		.align	2
 1499              	_ZTV16InterruptHandler:
 1500 0000 00000000 		.word	0
 1501 0004 00000000 		.word	_ZTI16InterruptHandler
 1502 0008 00000000 		.word	__cxa_pure_virtual
 1503              		.weak	_ZTV15InterruptObjectI19__I2S_HandleTypeDefE
 1504              		.section	.rodata._ZTV15InterruptObjectI19__I2S_HandleTypeDefE,"aG",%progbits,_ZTV15InterruptObject
 1505              		.align	2
 1508              	_ZTV15InterruptObjectI19__I2S_HandleTypeDefE:
 1509 0000 00000000 		.word	0
 1510 0004 00000000 		.word	_ZTI15InterruptObjectI19__I2S_HandleTypeDefE
 1511 0008 00000000 		.word	_ZN15InterruptObjectI19__I2S_HandleTypeDefE3irqEv
 1512              		.weak	_ZTV9i2sObject
 1513              		.section	.rodata._ZTV9i2sObject,"aG",%progbits,_ZTV9i2sObject,comdat
 1514              		.align	2
 1517              	_ZTV9i2sObject:
 1518 0000 00000000 		.word	0
 1519 0004 00000000 		.word	_ZTI9i2sObject
 1520 0008 00000000 		.word	_ZN15InterruptObjectI19__I2S_HandleTypeDefE3irqEv
 1521              		.weak	_ZTV15InterruptObjectI17RTC_HandleTypeDefE
 1522              		.section	.rodata._ZTV15InterruptObjectI17RTC_HandleTypeDefE,"aG",%progbits,_ZTV15InterruptObjectI1
 1523              		.align	2
 1526              	_ZTV15InterruptObjectI17RTC_HandleTypeDefE:
 1527 0000 00000000 		.word	0
 1528 0004 00000000 		.word	_ZTI15InterruptObjectI17RTC_HandleTypeDefE
 1529 0008 00000000 		.word	_ZN15InterruptObjectI17RTC_HandleTypeDefE3irqEv
 1530              		.weak	_ZTV11alarmObject
 1531              		.section	.rodata._ZTV11alarmObject,"aG",%progbits,_ZTV11alarmObject,comdat
 1532              		.align	2
 1535              	_ZTV11alarmObject:
 1536 0000 00000000 		.word	0
 1537 0004 00000000 		.word	_ZTI11alarmObject
 1538 0008 00000000 		.word	_ZN15InterruptObjectI17RTC_HandleTypeDefE3irqEv
 1539              		.section	.bss._ZL8Handlers,"aw",%nobits
 1540              		.align	2
 1543              	_ZL8Handlers:
 1544 0000 00000000 		.space	8
ARM GAS  /tmp/ccw0tTki.s 			page 46


 1544      00000000 
 1545              		.global	alarmObj
 1546              		.section	.bss.alarmObj,"aw",%nobits
 1547              		.align	2
 1550              	alarmObj:
 1551 0000 00000000 		.space	12
 1551      00000000 
 1551      00000000 
 1552              		.global	i2sObj
 1553              		.section	.bss.i2sObj,"aw",%nobits
 1554              		.align	2
 1557              	i2sObj:
 1558 0000 00000000 		.space	12
 1558      00000000 
 1558      00000000 
 1559              		.global	huart1
 1560              		.section	.bss.huart1,"aw",%nobits
 1561              		.align	2
 1564              	huart1:
 1565 0000 00000000 		.space	68
 1565      00000000 
 1565      00000000 
 1565      00000000 
 1565      00000000 
 1566              		.global	hspi1
 1567              		.section	.bss.hspi1,"aw",%nobits
 1568              		.align	2
 1571              	hspi1:
 1572 0000 00000000 		.space	88
 1572      00000000 
 1572      00000000 
 1572      00000000 
 1572      00000000 
 1573              		.global	hrtc
 1574              		.section	.bss.hrtc,"aw",%nobits
 1575              		.align	2
 1578              	hrtc:
 1579 0000 00000000 		.space	32
 1579      00000000 
 1579      00000000 
 1579      00000000 
 1579      00000000 
 1580              		.global	hdma_spi2_tx
 1581              		.section	.bss.hdma_spi2_tx,"aw",%nobits
 1582              		.align	2
 1585              	hdma_spi2_tx:
 1586 0000 00000000 		.space	96
 1586      00000000 
 1586      00000000 
 1586      00000000 
 1586      00000000 
 1587              		.global	hi2s2
 1588              		.section	.bss.hi2s2,"aw",%nobits
 1589              		.align	2
 1592              	hi2s2:
 1593 0000 00000000 		.space	72
 1593      00000000 
ARM GAS  /tmp/ccw0tTki.s 			page 47


 1593      00000000 
 1593      00000000 
 1593      00000000 
 1594              		.global	hi2c1
 1595              		.section	.bss.hi2c1,"aw",%nobits
 1596              		.align	2
 1599              	hi2c1:
 1600 0000 00000000 		.space	84
 1600      00000000 
 1600      00000000 
 1600      00000000 
 1600      00000000 
 1601              		.weak	__cxa_pure_virtual
 1602              		.text
 1603              	.Letext0:
 1604              		.file 5 "Drivers/CMSIS/Device/ST/STM32F4xx/Include/stm32f401xc.h"
 1605              		.file 6 "/usr/arm-none-eabi/include/machine/_default_types.h"
 1606              		.file 7 "/usr/arm-none-eabi/include/sys/_stdint.h"
 1607              		.file 8 "/usr/arm-none-eabi/include/stdint.h"
 1608              		.file 9 "Drivers/STM32F4xx_HAL_Driver/Inc/stm32f4xx_hal_def.h"
 1609              		.file 10 "Drivers/STM32F4xx_HAL_Driver/Inc/stm32f4xx_hal_rcc_ex.h"
 1610              		.file 11 "Drivers/STM32F4xx_HAL_Driver/Inc/stm32f4xx_hal_rcc.h"
 1611              		.file 12 "Drivers/STM32F4xx_HAL_Driver/Inc/stm32f4xx_hal_gpio.h"
 1612              		.file 13 "Drivers/STM32F4xx_HAL_Driver/Inc/stm32f4xx_hal_dma.h"
 1613              		.file 14 "Drivers/STM32F4xx_HAL_Driver/Inc/stm32f4xx_hal_i2c.h"
 1614              		.file 15 "Drivers/STM32F4xx_HAL_Driver/Inc/stm32f4xx_hal_i2s.h"
 1615              		.file 16 "Drivers/STM32F4xx_HAL_Driver/Inc/stm32f4xx_hal_rtc.h"
 1616              		.file 17 "Drivers/STM32F4xx_HAL_Driver/Inc/stm32f4xx_hal_spi.h"
 1617              		.file 18 "Drivers/STM32F4xx_HAL_Driver/Inc/stm32f4xx_hal_uart.h"
 1618              		.file 19 "/usr/arm-none-eabi/include/c++/14.1.0/type_traits"
 1619              		.file 20 "/usr/arm-none-eabi/include/c++/14.1.0/debug/debug.h"
 1620              		.file 21 "/usr/arm-none-eabi/include/c++/14.1.0/cstdint"
 1621              		.file 22 "/usr/arm-none-eabi/include/c++/14.1.0/bits/predefined_ops.h"
 1622              		.file 23 "/usr/arm-none-eabi/include/c++/14.1.0/arm-none-eabi/thumb/v7e-m+fp/hard/bits/c++config.h
 1623              		.file 24 "Core/Inc/sys_const.h"
 1624              		.file 25 "Test/Inc/audio_test.h"
 1625              		.file 26 "Drivers/STM32F4xx_HAL_Driver/Inc/stm32f4xx_hal_cortex.h"
 1626              		.file 27 "Test/Inc/sleep_test.h"
 1627              		.file 28 "Drivers/STM32F4xx_HAL_Driver/Inc/stm32f4xx_hal.h"
ARM GAS  /tmp/ccw0tTki.s 			page 48

