ARM GAS  /tmp/cc3dJOKu.s 			page 1


   1              		.cpu cortex-m4
   2              		.arch armv7e-m
   3              		.fpu fpv4-sp-d16
   4              		.eabi_attribute 27, 1
   5              		.eabi_attribute 28, 1
   6              		.eabi_attribute 20, 1
   7              		.eabi_attribute 21, 1
   8              		.eabi_attribute 23, 3
   9              		.eabi_attribute 24, 1
  10              		.eabi_attribute 25, 1
  11              		.eabi_attribute 26, 1
  12              		.eabi_attribute 30, 1
  13              		.eabi_attribute 34, 1
  14              		.eabi_attribute 18, 4
  15              		.file	"main.cpp"
  16              		.text
  17              	.Ltext0:
  18              		.cfi_sections	.debug_frame
  19              		.file 1 "Core/Src/main.cpp"
  20              		.section	.text._ZN15InterruptObjectI17RTC_HandleTypeDefE19defaultErrorHandlerEv,"axG",%progbits,_Z
  21              		.align	1
  22              		.weak	_ZN15InterruptObjectI17RTC_HandleTypeDefE19defaultErrorHandlerEv
  23              		.syntax unified
  24              		.thumb
  25              		.thumb_func
  27              	_ZN15InterruptObjectI17RTC_HandleTypeDefE19defaultErrorHandlerEv:
  28              		.fnstart
  29              	.LFB643:
  30              		.file 2 "Intermediate/Inc/interrupt_handler.h"
   1:Intermediate/Inc/interrupt_handler.h **** #pragma once
   2:Intermediate/Inc/interrupt_handler.h **** // Minimal virtual interrupt handler
   3:Intermediate/Inc/interrupt_handler.h **** class InterruptHandler {
   4:Intermediate/Inc/interrupt_handler.h ****     public:
   5:Intermediate/Inc/interrupt_handler.h ****     virtual void irq() = 0;
   6:Intermediate/Inc/interrupt_handler.h **** };
   7:Intermediate/Inc/interrupt_handler.h **** 
   8:Intermediate/Inc/interrupt_handler.h **** // Interrupt handler object with added bells and whistles that make it usable
   9:Intermediate/Inc/interrupt_handler.h **** template <typename T>
  10:Intermediate/Inc/interrupt_handler.h **** class InterruptObject : public InterruptHandler {
  11:Intermediate/Inc/interrupt_handler.h **** public:
  12:Intermediate/Inc/interrupt_handler.h **** 
  13:Intermediate/Inc/interrupt_handler.h ****     // Constructors
  14:Intermediate/Inc/interrupt_handler.h ****     InterruptObject() : _interruptFlag(false), _myErrorHandler(&defaultErrorHandler) {}
  15:Intermediate/Inc/interrupt_handler.h ****     InterruptObject(T& resource) : 
  16:Intermediate/Inc/interrupt_handler.h ****         _interruptFlag(false), _resource(&resource),
  17:Intermediate/Inc/interrupt_handler.h ****         _myErrorHandler(&(defaultErrorHandler)) {}
  18:Intermediate/Inc/interrupt_handler.h ****     InterruptObject(T& resource, void (*errorHandler)) : 
  19:Intermediate/Inc/interrupt_handler.h ****         _interruptFlag(false), _resource(&resource), _myErrorHandler(&errorHandler)  {}
  20:Intermediate/Inc/interrupt_handler.h **** 
  21:Intermediate/Inc/interrupt_handler.h ****     // "Default" irq behavior is simply to set the flag boolean to true.
  22:Intermediate/Inc/interrupt_handler.h ****     void irq() { setFlag(); }
  23:Intermediate/Inc/interrupt_handler.h **** 
  24:Intermediate/Inc/interrupt_handler.h ****     // IRQ flag boolean management
  25:Intermediate/Inc/interrupt_handler.h ****     inline bool isInterruptFired() { return this->_interruptFlag; }
  26:Intermediate/Inc/interrupt_handler.h ****     void resetFlag() { this->_interruptFlag = false; }
  27:Intermediate/Inc/interrupt_handler.h **** 
  28:Intermediate/Inc/interrupt_handler.h ****     // Resource management
ARM GAS  /tmp/cc3dJOKu.s 			page 2


  29:Intermediate/Inc/interrupt_handler.h ****     void setResouce(T& resource) { this->_resource = &resource; }
  30:Intermediate/Inc/interrupt_handler.h ****     T& getResource() { return (*(this->_resource)); }
  31:Intermediate/Inc/interrupt_handler.h **** 
  32:Intermediate/Inc/interrupt_handler.h ****     // Allow the ability to set the error handler after initialization
  33:Intermediate/Inc/interrupt_handler.h ****     void setErrorHandler(void (*errorHandler)) { this->_myErrorHandler = errorHandler; }
  34:Intermediate/Inc/interrupt_handler.h **** 
  35:Intermediate/Inc/interrupt_handler.h **** protected:
  36:Intermediate/Inc/interrupt_handler.h ****     // Protected Constructors (For derived objects)
  37:Intermediate/Inc/interrupt_handler.h ****     // Allow inherited objects to set the _resource pointer directly
  38:Intermediate/Inc/interrupt_handler.h ****     InterruptObject(T* resource) : 
  39:Intermediate/Inc/interrupt_handler.h ****         _interruptFlag(false), _resource(resource),
  40:Intermediate/Inc/interrupt_handler.h ****         _myErrorHandler(&(defaultErrorHandler)) {}
  41:Intermediate/Inc/interrupt_handler.h ****     InterruptObject(T* resource, void (*errorHandler)) : 
  42:Intermediate/Inc/interrupt_handler.h ****         _interruptFlag(false), _resource(resource), _myErrorHandler(&errorHandler)  {}
  43:Intermediate/Inc/interrupt_handler.h **** 
  44:Intermediate/Inc/interrupt_handler.h ****     void setFlag() {  this->_interruptFlag = true;  }
  45:Intermediate/Inc/interrupt_handler.h ****     static void defaultErrorHandler() { while(true) {} };
  31              		.loc 2 45 17 view -0
  32              		.cfi_startproc
  33              		@ Volatile: function does not return.
  34              		@ args = 0, pretend = 0, frame = 0
  35              		@ frame_needed = 0, uses_anonymous_args = 0
  36              		@ link register save eliminated.
  37              	.L2:
  38              		.loc 2 45 41 view .LVU1
  39 0000 FEE7     		b	.L2
  40              		.cfi_endproc
  41              	.LFE643:
  42              		.cantunwind
  43              		.fnend
  45              		.section	.text._ZN15InterruptObjectI12GPIO_TypeDefE19defaultErrorHandlerEv,"axG",%progbits,_ZN15In
  46              		.align	1
  47              		.weak	_ZN15InterruptObjectI12GPIO_TypeDefE19defaultErrorHandlerEv
  48              		.syntax unified
  49              		.thumb
  50              		.thumb_func
  52              	_ZN15InterruptObjectI12GPIO_TypeDefE19defaultErrorHandlerEv:
  53              		.fnstart
  54              	.LFB644:
  55              		.loc 2 45 17 view -0
  56              		.cfi_startproc
  57              		@ Volatile: function does not return.
  58              		@ args = 0, pretend = 0, frame = 0
  59              		@ frame_needed = 0, uses_anonymous_args = 0
  60              		@ link register save eliminated.
  61              	.L4:
  62              		.loc 2 45 41 view .LVU3
  63 0000 FEE7     		b	.L4
  64              		.cfi_endproc
  65              	.LFE644:
  66              		.cantunwind
  67              		.fnend
  69              		.section	.text._ZN15InterruptObjectI19__I2S_HandleTypeDefE19defaultErrorHandlerEv,"axG",%progbits,
  70              		.align	1
  71              		.weak	_ZN15InterruptObjectI19__I2S_HandleTypeDefE19defaultErrorHandlerEv
  72              		.syntax unified
  73              		.thumb
ARM GAS  /tmp/cc3dJOKu.s 			page 3


  74              		.thumb_func
  76              	_ZN15InterruptObjectI19__I2S_HandleTypeDefE19defaultErrorHandlerEv:
  77              		.fnstart
  78              	.LFB645:
  79              		.loc 2 45 17 view -0
  80              		.cfi_startproc
  81              		@ Volatile: function does not return.
  82              		@ args = 0, pretend = 0, frame = 0
  83              		@ frame_needed = 0, uses_anonymous_args = 0
  84              		@ link register save eliminated.
  85              	.L6:
  86              		.loc 2 45 41 view .LVU5
  87 0000 FEE7     		b	.L6
  88              		.cfi_endproc
  89              	.LFE645:
  90              		.cantunwind
  91              		.fnend
  93              		.section	.text._Z41__static_initialization_and_destruction_0v,"ax",%progbits
  94              		.align	1
  95              		.syntax unified
  96              		.thumb
  97              		.thumb_func
  99              	_Z41__static_initialization_and_destruction_0v:
 100              		.fnstart
 101              	.LFB646:
   1:Core/Src/main.cpp **** /* USER CODE BEGIN Header */
   2:Core/Src/main.cpp **** /**
   3:Core/Src/main.cpp ****   ******************************************************************************
   4:Core/Src/main.cpp ****   * @file           : main.c
   5:Core/Src/main.cpp ****   * @brief          : Main program body
   6:Core/Src/main.cpp ****   ******************************************************************************
   7:Core/Src/main.cpp ****   * @attention
   8:Core/Src/main.cpp ****   *
   9:Core/Src/main.cpp ****   * Copyright (c) 2024 STMicroelectronics.
  10:Core/Src/main.cpp ****   * All rights reserved.
  11:Core/Src/main.cpp ****   *
  12:Core/Src/main.cpp ****   * This software is licensed under terms that can be found in the LICENSE file
  13:Core/Src/main.cpp ****   * in the root directory of this software component.
  14:Core/Src/main.cpp ****   * If no LICENSE file comes with this software, it is provided AS-IS.
  15:Core/Src/main.cpp ****   *
  16:Core/Src/main.cpp ****   ******************************************************************************
  17:Core/Src/main.cpp ****   */
  18:Core/Src/main.cpp **** /* USER CODE END Header */
  19:Core/Src/main.cpp **** /* Includes ------------------------------------------------------------------*/
  20:Core/Src/main.cpp **** 
  21:Core/Src/main.cpp **** #include "main.h"
  22:Core/Src/main.cpp **** 
  23:Core/Src/main.cpp **** 
  24:Core/Src/main.cpp **** /* Private includes ----------------------------------------------------------*/
  25:Core/Src/main.cpp **** /* USER CODE BEGIN Includes */
  26:Core/Src/main.cpp **** #include "audio_test.h"
  27:Core/Src/main.cpp **** #include "sleep_test.h"
  28:Core/Src/main.cpp **** #include "reset_test.h"
  29:Core/Src/main.cpp **** /* USER CODE END Includes */
  30:Core/Src/main.cpp **** 
  31:Core/Src/main.cpp **** /* Private typedef -----------------------------------------------------------*/
  32:Core/Src/main.cpp **** /* USER CODE BEGIN PTD */
ARM GAS  /tmp/cc3dJOKu.s 			page 4


  33:Core/Src/main.cpp **** 
  34:Core/Src/main.cpp **** /* USER CODE END PTD */
  35:Core/Src/main.cpp **** 
  36:Core/Src/main.cpp **** /* Private define ------------------------------------------------------------*/
  37:Core/Src/main.cpp **** /* USER CODE BEGIN PD */
  38:Core/Src/main.cpp **** const int n_interrupts = 2;
  39:Core/Src/main.cpp **** 
  40:Core/Src/main.cpp **** const int spi_txcplt_irqn = 0;
  41:Core/Src/main.cpp **** const int alarm_wakeup_irqn = 1;
  42:Core/Src/main.cpp **** const int gpio_wakeup_irqn = 1;
  43:Core/Src/main.cpp **** /* USER CODE END PD */
  44:Core/Src/main.cpp **** 
  45:Core/Src/main.cpp **** /* Private macro -------------------------------------------------------------*/
  46:Core/Src/main.cpp **** /* USER CODE BEGIN PM */
  47:Core/Src/main.cpp **** 
  48:Core/Src/main.cpp **** /* USER CODE END PM */
  49:Core/Src/main.cpp **** 
  50:Core/Src/main.cpp **** /* Private variables ---------------------------------------------------------*/
  51:Core/Src/main.cpp **** I2C_HandleTypeDef hi2c1;
  52:Core/Src/main.cpp **** 
  53:Core/Src/main.cpp **** I2S_HandleTypeDef hi2s2;
  54:Core/Src/main.cpp **** DMA_HandleTypeDef hdma_spi2_tx;
  55:Core/Src/main.cpp **** 
  56:Core/Src/main.cpp **** RTC_HandleTypeDef hrtc;
  57:Core/Src/main.cpp **** 
  58:Core/Src/main.cpp **** SPI_HandleTypeDef hspi1;
  59:Core/Src/main.cpp **** 
  60:Core/Src/main.cpp **** UART_HandleTypeDef huart1;
  61:Core/Src/main.cpp **** 
  62:Core/Src/main.cpp **** /* USER CODE BEGIN PV */
  63:Core/Src/main.cpp **** 
  64:Core/Src/main.cpp **** i2sObject i2sObj(hi2s2);
  65:Core/Src/main.cpp **** rtcObject rtcObj(hrtc);
  66:Core/Src/main.cpp **** gpioObject gpioObj(GPIOA);
  67:Core/Src/main.cpp **** 
  68:Core/Src/main.cpp **** InterruptHandler* Handlers[n_interrupts];
  69:Core/Src/main.cpp **** 
  70:Core/Src/main.cpp **** resetCause latestResetCause;
  71:Core/Src/main.cpp **** 
  72:Core/Src/main.cpp **** /* USER CODE END PV */
  73:Core/Src/main.cpp **** 
  74:Core/Src/main.cpp **** /* Private function prototypes -----------------------------------------------*/
  75:Core/Src/main.cpp **** void SystemClock_Config(void);
  76:Core/Src/main.cpp **** static void MX_GPIO_Init(void);
  77:Core/Src/main.cpp **** static void MX_DMA_Init(void);
  78:Core/Src/main.cpp **** static void MX_I2C1_Init(void);
  79:Core/Src/main.cpp **** static void MX_I2S2_Init(void);
  80:Core/Src/main.cpp **** static void MX_SPI1_Init(void);
  81:Core/Src/main.cpp **** static void MX_USART1_UART_Init(void);
  82:Core/Src/main.cpp **** static void MX_RTC_Init(void);
  83:Core/Src/main.cpp **** void register_handler(int irq_n, InterruptHandler* handler);
  84:Core/Src/main.cpp **** /* USER CODE BEGIN PFP */
  85:Core/Src/main.cpp **** 
  86:Core/Src/main.cpp **** /* USER CODE END PFP */
  87:Core/Src/main.cpp **** 
  88:Core/Src/main.cpp **** /* Private user code ---------------------------------------------------------*/
  89:Core/Src/main.cpp **** /* USER CODE BEGIN 0 */
ARM GAS  /tmp/cc3dJOKu.s 			page 5


  90:Core/Src/main.cpp **** 
  91:Core/Src/main.cpp **** /* USER CODE END 0 */
  92:Core/Src/main.cpp **** 
  93:Core/Src/main.cpp **** /**
  94:Core/Src/main.cpp ****   * @brief  The application entry point.
  95:Core/Src/main.cpp ****   * @retval int
  96:Core/Src/main.cpp ****   */
  97:Core/Src/main.cpp **** int main(void)
  98:Core/Src/main.cpp **** {
  99:Core/Src/main.cpp ****   /* USER CODE BEGIN 1 */
 100:Core/Src/main.cpp ****   
 101:Core/Src/main.cpp ****   /* USER CODE END 1 */
 102:Core/Src/main.cpp **** 
 103:Core/Src/main.cpp ****   /* MCU Configuration--------------------------------------------------------*/
 104:Core/Src/main.cpp **** 
 105:Core/Src/main.cpp ****   /* Reset of all peripherals, Initializes the Flash interface and the Systick. */
 106:Core/Src/main.cpp ****   HAL_Init();
 107:Core/Src/main.cpp **** 
 108:Core/Src/main.cpp ****   /* USER CODE BEGIN Init */
 109:Core/Src/main.cpp ****   
 110:Core/Src/main.cpp ****   /* USER CODE END Init */
 111:Core/Src/main.cpp **** 
 112:Core/Src/main.cpp ****   /* Configure the system clock */
 113:Core/Src/main.cpp ****   SystemClock_Config();
 114:Core/Src/main.cpp **** 
 115:Core/Src/main.cpp ****   /* USER CODE BEGIN SysInit */
 116:Core/Src/main.cpp **** 
 117:Core/Src/main.cpp ****   /* USER CODE END SysInit */
 118:Core/Src/main.cpp **** 
 119:Core/Src/main.cpp ****   /* Initialize all configured peripherals */
 120:Core/Src/main.cpp ****   MX_GPIO_Init();
 121:Core/Src/main.cpp ****   MX_DMA_Init();
 122:Core/Src/main.cpp ****   MX_I2C1_Init();
 123:Core/Src/main.cpp ****   MX_I2S2_Init();
 124:Core/Src/main.cpp ****   MX_SPI1_Init();
 125:Core/Src/main.cpp ****   MX_USART1_UART_Init();
 126:Core/Src/main.cpp ****   MX_RTC_Init();
 127:Core/Src/main.cpp ****   /* USER CODE BEGIN 2 */
 128:Core/Src/main.cpp ****   //register_handler(spi_txcplt_irqn, &i2sObj);
 129:Core/Src/main.cpp ****   //audio_test::runTest(hi2c1, hdma_spi2_tx, i2sObj);
 130:Core/Src/main.cpp ****   //sleep_test::runTest(hrtc);
 131:Core/Src/main.cpp ****   //reset_test::runTest(rtcObj,gpioObj);
 132:Core/Src/main.cpp ****   /* USER CODE END 2 */
 133:Core/Src/main.cpp ****  
 134:Core/Src/main.cpp ****   /* Infinite loop */
 135:Core/Src/main.cpp ****   /* USER CODE BEGIN WHILE */
 136:Core/Src/main.cpp ****   while (1)
 137:Core/Src/main.cpp ****   {
 138:Core/Src/main.cpp ****     gpioObj.setPin(8);
 139:Core/Src/main.cpp ****     gpioObj.resetPin(8);
 140:Core/Src/main.cpp ****     /* USER CODE END WHILE */
 141:Core/Src/main.cpp ****     /* USER CODE BEGIN 3 */
 142:Core/Src/main.cpp ****   }
 143:Core/Src/main.cpp ****   /* USER CODE END 3 */
 144:Core/Src/main.cpp **** }
 145:Core/Src/main.cpp **** 
 146:Core/Src/main.cpp **** /**
ARM GAS  /tmp/cc3dJOKu.s 			page 6


 147:Core/Src/main.cpp ****   * @brief System Clock Configuration
 148:Core/Src/main.cpp ****   * @retval None
 149:Core/Src/main.cpp ****   */
 150:Core/Src/main.cpp **** void SystemClock_Config(void)
 151:Core/Src/main.cpp **** {
 152:Core/Src/main.cpp ****   RCC_OscInitTypeDef RCC_OscInitStruct = {0};
 153:Core/Src/main.cpp ****   RCC_ClkInitTypeDef RCC_ClkInitStruct = {0};
 154:Core/Src/main.cpp **** 
 155:Core/Src/main.cpp ****   /** Configure the main internal regulator output voltage
 156:Core/Src/main.cpp ****   */
 157:Core/Src/main.cpp ****   __HAL_RCC_PWR_CLK_ENABLE();
 158:Core/Src/main.cpp ****   __HAL_PWR_VOLTAGESCALING_CONFIG(PWR_REGULATOR_VOLTAGE_SCALE2);
 159:Core/Src/main.cpp **** 
 160:Core/Src/main.cpp ****   /** Initializes the RCC Oscillators according to the specified parameters
 161:Core/Src/main.cpp ****   * in the RCC_OscInitTypeDef structure.
 162:Core/Src/main.cpp ****   */
 163:Core/Src/main.cpp ****   RCC_OscInitStruct.OscillatorType = RCC_OSCILLATORTYPE_HSI|RCC_OSCILLATORTYPE_LSI
 164:Core/Src/main.cpp ****                               |RCC_OSCILLATORTYPE_HSE;
 165:Core/Src/main.cpp ****   RCC_OscInitStruct.HSEState = RCC_HSE_ON;
 166:Core/Src/main.cpp ****   RCC_OscInitStruct.HSIState = RCC_HSI_ON;
 167:Core/Src/main.cpp ****   RCC_OscInitStruct.HSICalibrationValue = RCC_HSICALIBRATION_DEFAULT;
 168:Core/Src/main.cpp ****   RCC_OscInitStruct.LSIState = RCC_LSI_ON;
 169:Core/Src/main.cpp ****   RCC_OscInitStruct.PLL.PLLState = RCC_PLL_ON;
 170:Core/Src/main.cpp ****   RCC_OscInitStruct.PLL.PLLSource = RCC_PLLSOURCE_HSE;
 171:Core/Src/main.cpp ****   RCC_OscInitStruct.PLL.PLLM = 25;
 172:Core/Src/main.cpp ****   RCC_OscInitStruct.PLL.PLLN = 168;
 173:Core/Src/main.cpp ****   RCC_OscInitStruct.PLL.PLLP = RCC_PLLP_DIV2;
 174:Core/Src/main.cpp ****   RCC_OscInitStruct.PLL.PLLQ = 4;
 175:Core/Src/main.cpp ****   if (HAL_RCC_OscConfig(&RCC_OscInitStruct) != HAL_OK)
 176:Core/Src/main.cpp ****   {
 177:Core/Src/main.cpp ****     Error_Handler();
 178:Core/Src/main.cpp ****   }
 179:Core/Src/main.cpp **** 
 180:Core/Src/main.cpp ****   /** Initializes the CPU, AHB and APB buses clocks
 181:Core/Src/main.cpp ****   */
 182:Core/Src/main.cpp ****   RCC_ClkInitStruct.ClockType = RCC_CLOCKTYPE_HCLK|RCC_CLOCKTYPE_SYSCLK
 183:Core/Src/main.cpp ****                               |RCC_CLOCKTYPE_PCLK1|RCC_CLOCKTYPE_PCLK2;
 184:Core/Src/main.cpp ****   RCC_ClkInitStruct.SYSCLKSource = RCC_SYSCLKSOURCE_PLLCLK;
 185:Core/Src/main.cpp ****   RCC_ClkInitStruct.AHBCLKDivider = RCC_SYSCLK_DIV1;
 186:Core/Src/main.cpp ****   RCC_ClkInitStruct.APB1CLKDivider = RCC_HCLK_DIV2;
 187:Core/Src/main.cpp ****   RCC_ClkInitStruct.APB2CLKDivider = RCC_HCLK_DIV1;
 188:Core/Src/main.cpp **** 
 189:Core/Src/main.cpp ****   if (HAL_RCC_ClockConfig(&RCC_ClkInitStruct, FLASH_LATENCY_2) != HAL_OK)
 190:Core/Src/main.cpp ****   {
 191:Core/Src/main.cpp ****     Error_Handler();
 192:Core/Src/main.cpp ****   }
 193:Core/Src/main.cpp ****   HAL_RCC_MCOConfig(RCC_MCO1, RCC_MCO1SOURCE_HSI, RCC_MCODIV_1);
 194:Core/Src/main.cpp **** }
 195:Core/Src/main.cpp **** 
 196:Core/Src/main.cpp **** /**
 197:Core/Src/main.cpp ****   * @brief I2C1 Initialization Function
 198:Core/Src/main.cpp ****   * @param None
 199:Core/Src/main.cpp ****   * @retval None
 200:Core/Src/main.cpp ****   */
 201:Core/Src/main.cpp **** static void MX_I2C1_Init(void)
 202:Core/Src/main.cpp **** {
 203:Core/Src/main.cpp **** 
ARM GAS  /tmp/cc3dJOKu.s 			page 7


 204:Core/Src/main.cpp ****   /* USER CODE BEGIN I2C1_Init 0 */
 205:Core/Src/main.cpp **** 
 206:Core/Src/main.cpp ****   /* USER CODE END I2C1_Init 0 */
 207:Core/Src/main.cpp **** 
 208:Core/Src/main.cpp ****   /* USER CODE BEGIN I2C1_Init 1 */
 209:Core/Src/main.cpp **** 
 210:Core/Src/main.cpp ****   /* USER CODE END I2C1_Init 1 */
 211:Core/Src/main.cpp ****   hi2c1.Instance = I2C1;
 212:Core/Src/main.cpp ****   hi2c1.Init.ClockSpeed = 100000;
 213:Core/Src/main.cpp ****   hi2c1.Init.DutyCycle = I2C_DUTYCYCLE_2;
 214:Core/Src/main.cpp ****   hi2c1.Init.OwnAddress1 = 0;
 215:Core/Src/main.cpp ****   hi2c1.Init.AddressingMode = I2C_ADDRESSINGMODE_7BIT;
 216:Core/Src/main.cpp ****   hi2c1.Init.DualAddressMode = I2C_DUALADDRESS_DISABLE;
 217:Core/Src/main.cpp ****   hi2c1.Init.OwnAddress2 = 0;
 218:Core/Src/main.cpp ****   hi2c1.Init.GeneralCallMode = I2C_GENERALCALL_DISABLE;
 219:Core/Src/main.cpp ****   hi2c1.Init.NoStretchMode = I2C_NOSTRETCH_DISABLE;
 220:Core/Src/main.cpp ****   if (HAL_I2C_Init(&hi2c1) != HAL_OK)
 221:Core/Src/main.cpp ****   {
 222:Core/Src/main.cpp ****     Error_Handler();
 223:Core/Src/main.cpp ****   }
 224:Core/Src/main.cpp ****   /* USER CODE BEGIN I2C1_Init 2 */
 225:Core/Src/main.cpp **** 
 226:Core/Src/main.cpp ****   /* USER CODE END I2C1_Init 2 */
 227:Core/Src/main.cpp **** 
 228:Core/Src/main.cpp **** }
 229:Core/Src/main.cpp **** 
 230:Core/Src/main.cpp **** /**
 231:Core/Src/main.cpp ****   * @brief I2S2 Initialization Function
 232:Core/Src/main.cpp ****   * @param None
 233:Core/Src/main.cpp ****   * @retval None
 234:Core/Src/main.cpp ****   */
 235:Core/Src/main.cpp **** static void MX_I2S2_Init(void)
 236:Core/Src/main.cpp **** {
 237:Core/Src/main.cpp **** 
 238:Core/Src/main.cpp ****   /* USER CODE BEGIN I2S2_Init 0 */
 239:Core/Src/main.cpp **** 
 240:Core/Src/main.cpp ****   /* USER CODE END I2S2_Init 0 */
 241:Core/Src/main.cpp **** 
 242:Core/Src/main.cpp ****   /* USER CODE BEGIN I2S2_Init 1 */
 243:Core/Src/main.cpp **** 
 244:Core/Src/main.cpp ****   /* USER CODE END I2S2_Init 1 */
 245:Core/Src/main.cpp ****   hi2s2.Instance = SPI2;
 246:Core/Src/main.cpp ****   hi2s2.Init.Mode = I2S_MODE_MASTER_TX;
 247:Core/Src/main.cpp ****   hi2s2.Init.Standard = I2S_STANDARD_MSB;
 248:Core/Src/main.cpp ****   hi2s2.Init.DataFormat = I2S_DATAFORMAT_32B;
 249:Core/Src/main.cpp ****   hi2s2.Init.MCLKOutput = I2S_MCLKOUTPUT_DISABLE;
 250:Core/Src/main.cpp ****   hi2s2.Init.AudioFreq = I2S_AUDIOFREQ_96K;
 251:Core/Src/main.cpp ****   hi2s2.Init.CPOL = I2S_CPOL_LOW;
 252:Core/Src/main.cpp ****   hi2s2.Init.ClockSource = I2S_CLOCK_PLL;
 253:Core/Src/main.cpp ****   hi2s2.Init.FullDuplexMode = I2S_FULLDUPLEXMODE_DISABLE;
 254:Core/Src/main.cpp ****   if (HAL_I2S_Init(&hi2s2) != HAL_OK)
 255:Core/Src/main.cpp ****   {
 256:Core/Src/main.cpp ****     Error_Handler();
 257:Core/Src/main.cpp ****   }
 258:Core/Src/main.cpp ****   /* USER CODE BEGIN I2S2_Init 2 */
 259:Core/Src/main.cpp **** 
 260:Core/Src/main.cpp ****   /* USER CODE END I2S2_Init 2 */
ARM GAS  /tmp/cc3dJOKu.s 			page 8


 261:Core/Src/main.cpp **** 
 262:Core/Src/main.cpp **** }
 263:Core/Src/main.cpp **** 
 264:Core/Src/main.cpp **** /**
 265:Core/Src/main.cpp ****   * @brief RTC Initialization Function
 266:Core/Src/main.cpp ****   * @param None
 267:Core/Src/main.cpp ****   * @retval None
 268:Core/Src/main.cpp ****   */
 269:Core/Src/main.cpp **** static void MX_RTC_Init(void)
 270:Core/Src/main.cpp **** {
 271:Core/Src/main.cpp **** 
 272:Core/Src/main.cpp ****   /* USER CODE BEGIN RTC_Init 0 */
 273:Core/Src/main.cpp ****   uint32_t backupMagic;
 274:Core/Src/main.cpp ****   /* USER CODE END RTC_Init 0 */
 275:Core/Src/main.cpp **** 
 276:Core/Src/main.cpp ****   RTC_TimeTypeDef sTime = {0};
 277:Core/Src/main.cpp ****   RTC_DateTypeDef sDate = {0};
 278:Core/Src/main.cpp ****   RTC_AlarmTypeDef sAlarm = {0};
 279:Core/Src/main.cpp **** 
 280:Core/Src/main.cpp ****   /* USER CODE BEGIN RTC_Init 1 */
 281:Core/Src/main.cpp ****   
 282:Core/Src/main.cpp ****   /* USER CODE END RTC_Init 1 */
 283:Core/Src/main.cpp **** 
 284:Core/Src/main.cpp ****   /** Initialize RTC Only
 285:Core/Src/main.cpp ****   */
 286:Core/Src/main.cpp ****   hrtc.Instance = RTC;
 287:Core/Src/main.cpp ****   hrtc.Init.HourFormat = RTC_HOURFORMAT_24;
 288:Core/Src/main.cpp ****   hrtc.Init.AsynchPrediv = 127;
 289:Core/Src/main.cpp ****   hrtc.Init.SynchPrediv = 255;
 290:Core/Src/main.cpp ****   hrtc.Init.OutPut = RTC_OUTPUT_ALARMA;
 291:Core/Src/main.cpp ****   hrtc.Init.OutPutPolarity = RTC_OUTPUT_POLARITY_LOW;
 292:Core/Src/main.cpp ****   hrtc.Init.OutPutType = RTC_OUTPUT_TYPE_PUSHPULL;
 293:Core/Src/main.cpp ****   if (HAL_RTC_Init(&hrtc) != HAL_OK)
 294:Core/Src/main.cpp ****   {
 295:Core/Src/main.cpp ****     Error_Handler();
 296:Core/Src/main.cpp ****   }
 297:Core/Src/main.cpp **** 
 298:Core/Src/main.cpp ****   /* USER CODE BEGIN Check_RTC_BKUP */
 299:Core/Src/main.cpp **** 
 300:Core/Src/main.cpp ****     // Retrieve the RTC magic number stored in the last RTC backup register.
 301:Core/Src/main.cpp ****   // RTC magic number: corresponds to UNIX seconds timestamp.
 302:Core/Src/main.cpp ****   backupMagic = HAL_RTCEx_BKUPRead(&hrtc, RTC_BKP_DR10);
 303:Core/Src/main.cpp ****   
 304:Core/Src/main.cpp ****   // If the backup magic number is the same as the predefined magic number,
 305:Core/Src/main.cpp ****   // then don't do anything to the RTC time or alarms (End RTC Initialization).
 306:Core/Src/main.cpp ****   if (backupMagic == RTC_MAGIC) {
 307:Core/Src/main.cpp ****     return;
 308:Core/Src/main.cpp ****   }
 309:Core/Src/main.cpp **** 
 310:Core/Src/main.cpp ****   /* USER CODE END Check_RTC_BKUP */
 311:Core/Src/main.cpp **** 
 312:Core/Src/main.cpp ****   /** Initialize RTC and set the Time and Date
 313:Core/Src/main.cpp ****   */
 314:Core/Src/main.cpp ****   sTime.Hours = RTC_HOUR;
 315:Core/Src/main.cpp ****   sTime.Minutes = RTC_MINUTE;
 316:Core/Src/main.cpp ****   sTime.Seconds = RTC_SECOND;
 317:Core/Src/main.cpp ****   sTime.DayLightSaving = RTC_DAYLIGHTSAVING_NONE;
ARM GAS  /tmp/cc3dJOKu.s 			page 9


 318:Core/Src/main.cpp ****   sTime.StoreOperation = RTC_STOREOPERATION_RESET;
 319:Core/Src/main.cpp ****   if (HAL_RTC_SetTime(&hrtc, &sTime, RTC_FORMAT_BCD) != HAL_OK)
 320:Core/Src/main.cpp ****   {
 321:Core/Src/main.cpp ****     Error_Handler();
 322:Core/Src/main.cpp ****   }
 323:Core/Src/main.cpp ****   sDate.WeekDay = RTC_WEEKDAY;
 324:Core/Src/main.cpp ****   sDate.Month = RTC_MONTH;
 325:Core/Src/main.cpp ****   sDate.Date = RTC_DAY;
 326:Core/Src/main.cpp ****   sDate.Year = RTC_YEAR;
 327:Core/Src/main.cpp **** 
 328:Core/Src/main.cpp ****   if (HAL_RTC_SetDate(&hrtc, &sDate, RTC_FORMAT_BCD) != HAL_OK)
 329:Core/Src/main.cpp ****   {
 330:Core/Src/main.cpp ****     Error_Handler();
 331:Core/Src/main.cpp ****   }
 332:Core/Src/main.cpp **** 
 333:Core/Src/main.cpp ****   /** Enable the Alarm A
 334:Core/Src/main.cpp ****   */
 335:Core/Src/main.cpp ****   sAlarm.AlarmTime.Hours = 0x0;
 336:Core/Src/main.cpp ****   sAlarm.AlarmTime.Minutes = 0x0;
 337:Core/Src/main.cpp ****   sAlarm.AlarmTime.Seconds = 0x10;
 338:Core/Src/main.cpp ****   sAlarm.AlarmTime.SubSeconds = 0x0;
 339:Core/Src/main.cpp ****   sAlarm.AlarmTime.DayLightSaving = RTC_DAYLIGHTSAVING_NONE;
 340:Core/Src/main.cpp ****   sAlarm.AlarmTime.StoreOperation = RTC_STOREOPERATION_RESET;
 341:Core/Src/main.cpp ****   sAlarm.AlarmMask = RTC_ALARMMASK_DATEWEEKDAY|RTC_ALARMMASK_HOURS
 342:Core/Src/main.cpp ****                               |RTC_ALARMMASK_MINUTES;
 343:Core/Src/main.cpp ****   sAlarm.AlarmSubSecondMask = RTC_ALARMSUBSECONDMASK_ALL;
 344:Core/Src/main.cpp ****   sAlarm.AlarmDateWeekDaySel = RTC_ALARMDATEWEEKDAYSEL_DATE;
 345:Core/Src/main.cpp ****   sAlarm.AlarmDateWeekDay = 0x1;
 346:Core/Src/main.cpp ****   sAlarm.Alarm = RTC_ALARM_A;
 347:Core/Src/main.cpp ****   if (HAL_RTC_SetAlarm_IT(&hrtc, &sAlarm, RTC_FORMAT_BCD) != HAL_OK)
 348:Core/Src/main.cpp ****   {
 349:Core/Src/main.cpp ****     Error_Handler();
 350:Core/Src/main.cpp ****   }
 351:Core/Src/main.cpp ****   /* USER CODE BEGIN RTC_Init 2 */
 352:Core/Src/main.cpp **** 
 353:Core/Src/main.cpp ****   //write the predefined magic number to the backup register and
 354:Core/Src/main.cpp ****   // set the RTC time to the predefined time values.
 355:Core/Src/main.cpp ****   HAL_PWR_EnableBkUpAccess();
 356:Core/Src/main.cpp ****   HAL_Delay(10);
 357:Core/Src/main.cpp ****   HAL_RTCEx_BKUPWrite(&hrtc, RTC_BKP_DR10, RTC_MAGIC);
 358:Core/Src/main.cpp ****   HAL_PWR_DisableBkUpAccess();
 359:Core/Src/main.cpp **** 
 360:Core/Src/main.cpp ****   /* USER CODE END RTC_Init 2 */
 361:Core/Src/main.cpp **** 
 362:Core/Src/main.cpp **** }
 363:Core/Src/main.cpp **** 
 364:Core/Src/main.cpp **** /**
 365:Core/Src/main.cpp ****   * @brief SPI1 Initialization Function
 366:Core/Src/main.cpp ****   * @param None
 367:Core/Src/main.cpp ****   * @retval None
 368:Core/Src/main.cpp ****   */
 369:Core/Src/main.cpp **** static void MX_SPI1_Init(void)
 370:Core/Src/main.cpp **** {
 371:Core/Src/main.cpp **** 
 372:Core/Src/main.cpp ****   /* USER CODE BEGIN SPI1_Init 0 */
 373:Core/Src/main.cpp **** 
 374:Core/Src/main.cpp ****   /* USER CODE END SPI1_Init 0 */
ARM GAS  /tmp/cc3dJOKu.s 			page 10


 375:Core/Src/main.cpp **** 
 376:Core/Src/main.cpp ****   /* USER CODE BEGIN SPI1_Init 1 */
 377:Core/Src/main.cpp **** 
 378:Core/Src/main.cpp ****   /* USER CODE END SPI1_Init 1 */
 379:Core/Src/main.cpp ****   /* SPI1 parameter configuration*/
 380:Core/Src/main.cpp ****   hspi1.Instance = SPI1;
 381:Core/Src/main.cpp ****   hspi1.Init.Mode = SPI_MODE_MASTER;
 382:Core/Src/main.cpp ****   hspi1.Init.Direction = SPI_DIRECTION_2LINES;
 383:Core/Src/main.cpp ****   hspi1.Init.DataSize = SPI_DATASIZE_8BIT;
 384:Core/Src/main.cpp ****   hspi1.Init.CLKPolarity = SPI_POLARITY_LOW;
 385:Core/Src/main.cpp ****   hspi1.Init.CLKPhase = SPI_PHASE_1EDGE;
 386:Core/Src/main.cpp ****   hspi1.Init.NSS = SPI_NSS_SOFT;
 387:Core/Src/main.cpp ****   hspi1.Init.BaudRatePrescaler = SPI_BAUDRATEPRESCALER_2;
 388:Core/Src/main.cpp ****   hspi1.Init.FirstBit = SPI_FIRSTBIT_MSB;
 389:Core/Src/main.cpp ****   hspi1.Init.TIMode = SPI_TIMODE_DISABLE;
 390:Core/Src/main.cpp ****   hspi1.Init.CRCCalculation = SPI_CRCCALCULATION_DISABLE;
 391:Core/Src/main.cpp ****   hspi1.Init.CRCPolynomial = 10;
 392:Core/Src/main.cpp ****   if (HAL_SPI_Init(&hspi1) != HAL_OK)
 393:Core/Src/main.cpp ****   {
 394:Core/Src/main.cpp ****     Error_Handler();
 395:Core/Src/main.cpp ****   }
 396:Core/Src/main.cpp ****   /* USER CODE BEGIN SPI1_Init 2 */
 397:Core/Src/main.cpp **** 
 398:Core/Src/main.cpp ****   /* USER CODE END SPI1_Init 2 */
 399:Core/Src/main.cpp **** 
 400:Core/Src/main.cpp **** }
 401:Core/Src/main.cpp **** 
 402:Core/Src/main.cpp **** /**
 403:Core/Src/main.cpp ****   * @brief USART1 Initialization Function
 404:Core/Src/main.cpp ****   * @param None
 405:Core/Src/main.cpp ****   * @retval None
 406:Core/Src/main.cpp ****   */
 407:Core/Src/main.cpp **** static void MX_USART1_UART_Init(void)
 408:Core/Src/main.cpp **** {
 409:Core/Src/main.cpp **** 
 410:Core/Src/main.cpp ****   /* USER CODE BEGIN USART1_Init 0 */
 411:Core/Src/main.cpp **** 
 412:Core/Src/main.cpp ****   /* USER CODE END USART1_Init 0 */
 413:Core/Src/main.cpp **** 
 414:Core/Src/main.cpp ****   /* USER CODE BEGIN USART1_Init 1 */
 415:Core/Src/main.cpp **** 
 416:Core/Src/main.cpp ****   /* USER CODE END USART1_Init 1 */
 417:Core/Src/main.cpp ****   huart1.Instance = USART1;
 418:Core/Src/main.cpp ****   huart1.Init.BaudRate = 115200;
 419:Core/Src/main.cpp ****   huart1.Init.WordLength = UART_WORDLENGTH_8B;
 420:Core/Src/main.cpp ****   huart1.Init.StopBits = UART_STOPBITS_1;
 421:Core/Src/main.cpp ****   huart1.Init.Parity = UART_PARITY_NONE;
 422:Core/Src/main.cpp ****   huart1.Init.Mode = UART_MODE_TX_RX;
 423:Core/Src/main.cpp ****   huart1.Init.HwFlowCtl = UART_HWCONTROL_RTS_CTS;
 424:Core/Src/main.cpp ****   huart1.Init.OverSampling = UART_OVERSAMPLING_16;
 425:Core/Src/main.cpp ****   if (HAL_UART_Init(&huart1) != HAL_OK)
 426:Core/Src/main.cpp ****   {
 427:Core/Src/main.cpp ****     Error_Handler();
 428:Core/Src/main.cpp ****   }
 429:Core/Src/main.cpp ****   /* USER CODE BEGIN USART1_Init 2 */
 430:Core/Src/main.cpp **** 
 431:Core/Src/main.cpp ****   /* USER CODE END USART1_Init 2 */
ARM GAS  /tmp/cc3dJOKu.s 			page 11


 432:Core/Src/main.cpp **** 
 433:Core/Src/main.cpp **** }
 434:Core/Src/main.cpp **** 
 435:Core/Src/main.cpp **** /**
 436:Core/Src/main.cpp ****   * Enable DMA controller clock
 437:Core/Src/main.cpp ****   */
 438:Core/Src/main.cpp **** static void MX_DMA_Init(void)
 439:Core/Src/main.cpp **** {
 440:Core/Src/main.cpp **** 
 441:Core/Src/main.cpp ****   /* DMA controller clock enable */
 442:Core/Src/main.cpp ****   __HAL_RCC_DMA1_CLK_ENABLE();
 443:Core/Src/main.cpp **** 
 444:Core/Src/main.cpp ****   /* DMA interrupt init */
 445:Core/Src/main.cpp ****   /* DMA1_Stream4_IRQn interrupt configuration */
 446:Core/Src/main.cpp ****   HAL_NVIC_SetPriority(DMA1_Stream4_IRQn, 0, 0);
 447:Core/Src/main.cpp ****   HAL_NVIC_EnableIRQ(DMA1_Stream4_IRQn);
 448:Core/Src/main.cpp **** 
 449:Core/Src/main.cpp **** }
 450:Core/Src/main.cpp **** 
 451:Core/Src/main.cpp **** /**
 452:Core/Src/main.cpp ****   * @brief GPIO Initialization Function
 453:Core/Src/main.cpp ****   * @param None
 454:Core/Src/main.cpp ****   * @retval None
 455:Core/Src/main.cpp ****   */
 456:Core/Src/main.cpp **** static void MX_GPIO_Init(void)
 457:Core/Src/main.cpp **** {
 458:Core/Src/main.cpp ****   GPIO_InitTypeDef GPIO_InitStruct = {0};
 459:Core/Src/main.cpp **** /* USER CODE BEGIN MX_GPIO_Init_1 */
 460:Core/Src/main.cpp **** /* USER CODE END MX_GPIO_Init_1 */
 461:Core/Src/main.cpp **** 
 462:Core/Src/main.cpp ****   /* GPIO Ports Clock Enable */
 463:Core/Src/main.cpp ****   __HAL_RCC_GPIOC_CLK_ENABLE();
 464:Core/Src/main.cpp ****   __HAL_RCC_GPIOH_CLK_ENABLE();
 465:Core/Src/main.cpp ****   __HAL_RCC_GPIOA_CLK_ENABLE();
 466:Core/Src/main.cpp ****   __HAL_RCC_GPIOB_CLK_ENABLE();
 467:Core/Src/main.cpp **** 
 468:Core/Src/main.cpp ****   /*Configure GPIO pin Output Level */
 469:Core/Src/main.cpp ****   HAL_GPIO_WritePin(GPIOA, ld_heartbeat_Pin|pwr_eeprom_Pin|write_eeprom_Pin, GPIO_PIN_RESET);
 470:Core/Src/main.cpp **** 
 471:Core/Src/main.cpp ****   /*Configure GPIO pin Output Level */
 472:Core/Src/main.cpp ****   HAL_GPIO_WritePin(GPIOB, hold_eeprom_Pin|pwr_aud_Pin, GPIO_PIN_RESET);
 473:Core/Src/main.cpp **** 
 474:Core/Src/main.cpp ****   /*Configure GPIO pins : ld_heartbeat_Pin pwr_eeprom_Pin write_eeprom_Pin */
 475:Core/Src/main.cpp ****   GPIO_InitStruct.Pin = ld_heartbeat_Pin|pwr_eeprom_Pin|write_eeprom_Pin;
 476:Core/Src/main.cpp ****   GPIO_InitStruct.Mode = GPIO_MODE_OUTPUT_PP;
 477:Core/Src/main.cpp ****   GPIO_InitStruct.Pull = GPIO_NOPULL;
 478:Core/Src/main.cpp ****   GPIO_InitStruct.Speed = GPIO_SPEED_FREQ_LOW;
 479:Core/Src/main.cpp ****   HAL_GPIO_Init(GPIOA, &GPIO_InitStruct);
 480:Core/Src/main.cpp **** 
 481:Core/Src/main.cpp ****   /*Configure GPIO pin : wakeup_Pin */
 482:Core/Src/main.cpp ****   GPIO_InitStruct.Pin = wakeup_Pin;
 483:Core/Src/main.cpp ****   GPIO_InitStruct.Mode = GPIO_MODE_IT_FALLING;
 484:Core/Src/main.cpp ****   GPIO_InitStruct.Pull = GPIO_PULLDOWN;
 485:Core/Src/main.cpp ****   HAL_GPIO_Init(wakeup_GPIO_Port, &GPIO_InitStruct);
 486:Core/Src/main.cpp **** 
 487:Core/Src/main.cpp ****   /*Configure GPIO pins : hold_eeprom_Pin pwr_aud_Pin */
 488:Core/Src/main.cpp ****   GPIO_InitStruct.Pin = hold_eeprom_Pin|pwr_aud_Pin;
ARM GAS  /tmp/cc3dJOKu.s 			page 12


 489:Core/Src/main.cpp ****   GPIO_InitStruct.Mode = GPIO_MODE_OUTPUT_PP;
 490:Core/Src/main.cpp ****   GPIO_InitStruct.Pull = GPIO_NOPULL;
 491:Core/Src/main.cpp ****   GPIO_InitStruct.Speed = GPIO_SPEED_FREQ_LOW;
 492:Core/Src/main.cpp ****   HAL_GPIO_Init(GPIOB, &GPIO_InitStruct);
 493:Core/Src/main.cpp **** 
 494:Core/Src/main.cpp ****   /*Configure GPIO pin : PA8 */
 495:Core/Src/main.cpp ****   GPIO_InitStruct.Pin = GPIO_PIN_8;
 496:Core/Src/main.cpp ****   GPIO_InitStruct.Mode = GPIO_MODE_AF_PP;
 497:Core/Src/main.cpp ****   GPIO_InitStruct.Pull = GPIO_NOPULL;
 498:Core/Src/main.cpp ****   GPIO_InitStruct.Speed = GPIO_SPEED_FREQ_LOW;
 499:Core/Src/main.cpp ****   GPIO_InitStruct.Alternate = GPIO_AF0_MCO;
 500:Core/Src/main.cpp ****   HAL_GPIO_Init(GPIOA, &GPIO_InitStruct);
 501:Core/Src/main.cpp **** 
 502:Core/Src/main.cpp ****   /* EXTI interrupt init*/
 503:Core/Src/main.cpp ****   HAL_NVIC_SetPriority(EXTI2_IRQn, 0, 0);
 504:Core/Src/main.cpp ****   HAL_NVIC_EnableIRQ(EXTI2_IRQn);
 505:Core/Src/main.cpp **** 
 506:Core/Src/main.cpp **** 
 507:Core/Src/main.cpp **** /* USER CODE BEGIN MX_GPIO_Init_2 */
 508:Core/Src/main.cpp **** /* USER CODE END MX_GPIO_Init_2 */
 509:Core/Src/main.cpp **** }
 510:Core/Src/main.cpp **** 
 511:Core/Src/main.cpp **** /* USER CODE BEGIN 4 */
 512:Core/Src/main.cpp **** 
 513:Core/Src/main.cpp **** extern "C" void HAL_I2S_TxCpltCallback(I2S_HandleTypeDef *hi2s) {
 514:Core/Src/main.cpp ****   Handlers[spi_txcplt_irqn]->irq();
 515:Core/Src/main.cpp **** }                      
 516:Core/Src/main.cpp **** 
 517:Core/Src/main.cpp **** extern "C" void HAL_GPIO_EXTI_Callback(uint16_t GPIO_Pin) {
 518:Core/Src/main.cpp **** }
 519:Core/Src/main.cpp **** 
 520:Core/Src/main.cpp **** void register_handler(int irq_n, InterruptHandler* handler) {
 521:Core/Src/main.cpp ****     Handlers[irq_n] = handler;
 522:Core/Src/main.cpp **** }
 523:Core/Src/main.cpp **** 
 524:Core/Src/main.cpp **** /* USER CODE END 4 */
 525:Core/Src/main.cpp **** 
 526:Core/Src/main.cpp **** /**
 527:Core/Src/main.cpp ****   * @brief  This function is executed in case of error occurrence.
 528:Core/Src/main.cpp ****   * @retval None
 529:Core/Src/main.cpp ****   */
 530:Core/Src/main.cpp **** void Error_Handler(void)
 531:Core/Src/main.cpp **** {
 532:Core/Src/main.cpp ****   /* USER CODE BEGIN Error_Handler_Debug */
 533:Core/Src/main.cpp ****   /* User can add his own implementation to report the HAL error return state */
 534:Core/Src/main.cpp ****   __disable_irq();
 535:Core/Src/main.cpp ****   while (1)
 536:Core/Src/main.cpp ****   {
 537:Core/Src/main.cpp ****   }
 538:Core/Src/main.cpp ****   /* USER CODE END Error_Handler_Debug */
 539:Core/Src/main.cpp **** }
 102              		.loc 1 539 1 view -0
 103              		.cfi_startproc
 104              		@ args = 0, pretend = 0, frame = 0
 105              		@ frame_needed = 0, uses_anonymous_args = 0
 106              		@ link register save eliminated.
 107              	.LVL0:
ARM GAS  /tmp/cc3dJOKu.s 			page 13


 108              	.LBB64:
 109              	.LBI64:
 110              		.file 3 "Intermediate/Inc/concrete_interrupt_handlers.h"
   1:Intermediate/Inc/concrete_interrupt_handlers.h **** #pragma once
   2:Intermediate/Inc/concrete_interrupt_handlers.h **** #include "interrupt_handler.h"
   3:Intermediate/Inc/concrete_interrupt_handlers.h **** #include "stm32f4xx_hal.h"
   4:Intermediate/Inc/concrete_interrupt_handlers.h **** 
   5:Intermediate/Inc/concrete_interrupt_handlers.h **** class i2cObject : public InterruptObject<I2C_HandleTypeDef> {
   6:Intermediate/Inc/concrete_interrupt_handlers.h **** public:
   7:Intermediate/Inc/concrete_interrupt_handlers.h ****     using InterruptObject::InterruptObject;
   8:Intermediate/Inc/concrete_interrupt_handlers.h **** };
   9:Intermediate/Inc/concrete_interrupt_handlers.h **** 
  10:Intermediate/Inc/concrete_interrupt_handlers.h **** class i2sObject : public InterruptObject<I2S_HandleTypeDef> {
  11:Intermediate/Inc/concrete_interrupt_handlers.h **** public:
  12:Intermediate/Inc/concrete_interrupt_handlers.h ****     using InterruptObject::InterruptObject;
 111              		.loc 3 12 28 view .LVU7
 112              	.LBB65:
 113              	.LBB66:
 114              	.LBB67:
 115              	.LBI67:
  15:Intermediate/Inc/interrupt_handler.h ****         _interruptFlag(false), _resource(&resource),
 116              		.loc 2 15 5 view .LVU8
 117              	.LBB68:
 118              	.LBB69:
 119              	.LBB70:
 120              	.LBI70:
   3:Intermediate/Inc/interrupt_handler.h ****     public:
 121              		.loc 2 3 7 view .LVU9
 122              	.LBB71:
 123 0000 114B     		ldr	r3, .L8
 124 0002 1249     		ldr	r1, .L8+4
 125 0004 1960     		str	r1, [r3]
 126              	.LVL1:
   3:Intermediate/Inc/interrupt_handler.h ****     public:
 127              		.loc 2 3 7 is_stmt 0 view .LVU10
 128              	.LBE71:
 129              	.LBE70:
  17:Intermediate/Inc/interrupt_handler.h ****     InterruptObject(T& resource, void (*errorHandler)) : 
 130              		.loc 2 17 47 discriminator 1 view .LVU11
 131 0006 124A     		ldr	r2, .L8+8
 132 0008 1A60     		str	r2, [r3]
  16:Intermediate/Inc/interrupt_handler.h ****         _myErrorHandler(&(defaultErrorHandler)) {}
 133              		.loc 2 16 9 view .LVU12
 134 000a 0022     		movs	r2, #0
 135 000c 1A71     		strb	r2, [r3, #4]
  17:Intermediate/Inc/interrupt_handler.h ****     InterruptObject(T& resource, void (*errorHandler)) : 
 136              		.loc 2 17 9 view .LVU13
 137 000e 1148     		ldr	r0, .L8+12
 138 0010 9860     		str	r0, [r3, #8]
  16:Intermediate/Inc/interrupt_handler.h ****         _myErrorHandler(&(defaultErrorHandler)) {}
 139              		.loc 2 16 32 view .LVU14
 140 0012 1148     		ldr	r0, .L8+16
 141 0014 D860     		str	r0, [r3, #12]
 142              	.LVL2:
  16:Intermediate/Inc/interrupt_handler.h ****         _myErrorHandler(&(defaultErrorHandler)) {}
 143              		.loc 2 16 32 view .LVU15
 144              	.LBE69:
ARM GAS  /tmp/cc3dJOKu.s 			page 14


 145              	.LBE68:
 146              	.LBE67:
 147              		.loc 3 12 28 discriminator 1 view .LVU16
 148 0016 1148     		ldr	r0, .L8+20
 149 0018 1860     		str	r0, [r3]
 150              	.LVL3:
 151              		.loc 3 12 28 discriminator 1 view .LVU17
 152              	.LBE66:
 153              	.LBE65:
 154              	.LBE64:
 155              	.LBB72:
 156              	.LBI72:
 157              		.file 4 "Intermediate/Inc/rtcObject.h"
   1:Intermediate/Inc/rtcObject.h **** #pragma once
   2:Intermediate/Inc/rtcObject.h **** #include "reset_cause.h"
   3:Intermediate/Inc/rtcObject.h **** #include "interrupt_handler.h"
   4:Intermediate/Inc/rtcObject.h **** #include "stm32f4xx_hal.h"
   5:Intermediate/Inc/rtcObject.h **** #include <array>
   6:Intermediate/Inc/rtcObject.h **** 
   7:Intermediate/Inc/rtcObject.h **** extern void Error_Handler();
   8:Intermediate/Inc/rtcObject.h **** 
   9:Intermediate/Inc/rtcObject.h **** class rtcObject : public InterruptObject<RTC_HandleTypeDef> {
  10:Intermediate/Inc/rtcObject.h **** public:
  11:Intermediate/Inc/rtcObject.h ****     using InterruptObject::InterruptObject;
 158              		.loc 4 11 28 is_stmt 1 view .LVU18
 159              	.LBB73:
 160              	.LBB74:
 161              	.LBB75:
 162              	.LBI75:
  15:Intermediate/Inc/interrupt_handler.h ****         _interruptFlag(false), _resource(&resource),
 163              		.loc 2 15 5 view .LVU19
 164              	.LBB76:
 165              	.LBB77:
 166              	.LBB78:
 167              	.LBI78:
   3:Intermediate/Inc/interrupt_handler.h ****     public:
 168              		.loc 2 3 7 view .LVU20
 169              	.LBB79:
 170 001a 114B     		ldr	r3, .L8+24
 171 001c 1960     		str	r1, [r3]
 172              	.LVL4:
   3:Intermediate/Inc/interrupt_handler.h ****     public:
 173              		.loc 2 3 7 is_stmt 0 view .LVU21
 174              	.LBE79:
 175              	.LBE78:
  17:Intermediate/Inc/interrupt_handler.h ****     InterruptObject(T& resource, void (*errorHandler)) : 
 176              		.loc 2 17 47 discriminator 1 view .LVU22
 177 001e 1148     		ldr	r0, .L8+28
 178 0020 1860     		str	r0, [r3]
  16:Intermediate/Inc/interrupt_handler.h ****         _myErrorHandler(&(defaultErrorHandler)) {}
 179              		.loc 2 16 9 view .LVU23
 180 0022 1A71     		strb	r2, [r3, #4]
  17:Intermediate/Inc/interrupt_handler.h ****     InterruptObject(T& resource, void (*errorHandler)) : 
 181              		.loc 2 17 9 view .LVU24
 182 0024 1048     		ldr	r0, .L8+32
 183 0026 9860     		str	r0, [r3, #8]
  16:Intermediate/Inc/interrupt_handler.h ****         _myErrorHandler(&(defaultErrorHandler)) {}
ARM GAS  /tmp/cc3dJOKu.s 			page 15


 184              		.loc 2 16 32 view .LVU25
 185 0028 1048     		ldr	r0, .L8+36
 186 002a D860     		str	r0, [r3, #12]
 187              	.LVL5:
  16:Intermediate/Inc/interrupt_handler.h ****         _myErrorHandler(&(defaultErrorHandler)) {}
 188              		.loc 2 16 32 view .LVU26
 189              	.LBE77:
 190              	.LBE76:
 191              	.LBE75:
 192              		.loc 4 11 28 discriminator 1 view .LVU27
 193 002c 1048     		ldr	r0, .L8+40
 194 002e 1860     		str	r0, [r3]
 195              	.LVL6:
 196              		.loc 4 11 28 discriminator 1 view .LVU28
 197              	.LBE74:
 198              	.LBE73:
 199              	.LBE72:
 200              	.LBB80:
 201              	.LBI80:
 202              		.file 5 "Intermediate/Inc/gpioObject.h"
   1:Intermediate/Inc/gpioObject.h **** #pragma once
   2:Intermediate/Inc/gpioObject.h **** #include "interrupt_handler.h"
   3:Intermediate/Inc/gpioObject.h **** #include "stm32f4xx_hal.h"
   4:Intermediate/Inc/gpioObject.h **** 
   5:Intermediate/Inc/gpioObject.h **** class gpioObject : public InterruptObject<GPIO_TypeDef> {
   6:Intermediate/Inc/gpioObject.h **** public:
   7:Intermediate/Inc/gpioObject.h ****     using InterruptObject::InterruptObject;
   8:Intermediate/Inc/gpioObject.h **** 
   9:Intermediate/Inc/gpioObject.h ****     gpioObject() : InterruptObject() {}
  10:Intermediate/Inc/gpioObject.h ****     gpioObject(GPIO_TypeDef* port) : InterruptObject(port) {}
 203              		.loc 5 10 5 is_stmt 1 view .LVU29
 204              	.LBB81:
 205              	.LBB82:
 206              	.LBB83:
 207              	.LBI83:
  38:Intermediate/Inc/interrupt_handler.h ****         _interruptFlag(false), _resource(resource),
 208              		.loc 2 38 5 view .LVU30
 209              	.LBB84:
 210              	.LBB85:
 211              	.LBB86:
 212              	.LBI86:
   3:Intermediate/Inc/interrupt_handler.h ****     public:
 213              		.loc 2 3 7 view .LVU31
 214              	.LBB87:
 215 0030 104B     		ldr	r3, .L8+44
 216 0032 1960     		str	r1, [r3]
 217              	.LVL7:
   3:Intermediate/Inc/interrupt_handler.h ****     public:
 218              		.loc 2 3 7 is_stmt 0 view .LVU32
 219              	.LBE87:
 220              	.LBE86:
  40:Intermediate/Inc/interrupt_handler.h ****     InterruptObject(T* resource, void (*errorHandler)) : 
 221              		.loc 2 40 47 discriminator 1 view .LVU33
 222 0034 1049     		ldr	r1, .L8+48
 223 0036 1960     		str	r1, [r3]
  39:Intermediate/Inc/interrupt_handler.h ****         _myErrorHandler(&(defaultErrorHandler)) {}
 224              		.loc 2 39 9 view .LVU34
ARM GAS  /tmp/cc3dJOKu.s 			page 16


 225 0038 1A71     		strb	r2, [r3, #4]
  40:Intermediate/Inc/interrupt_handler.h ****     InterruptObject(T* resource, void (*errorHandler)) : 
 226              		.loc 2 40 9 view .LVU35
 227 003a 104A     		ldr	r2, .L8+52
 228 003c 9A60     		str	r2, [r3, #8]
  39:Intermediate/Inc/interrupt_handler.h ****         _myErrorHandler(&(defaultErrorHandler)) {}
 229              		.loc 2 39 32 view .LVU36
 230 003e 104A     		ldr	r2, .L8+56
 231 0040 DA60     		str	r2, [r3, #12]
 232              	.LVL8:
  39:Intermediate/Inc/interrupt_handler.h ****         _myErrorHandler(&(defaultErrorHandler)) {}
 233              		.loc 2 39 32 view .LVU37
 234              	.LBE85:
 235              	.LBE84:
 236              	.LBE83:
 237              		.loc 5 10 58 discriminator 1 view .LVU38
 238 0042 104A     		ldr	r2, .L8+60
 239 0044 1A60     		str	r2, [r3]
 240              	.LVL9:
 241              		.loc 5 10 58 discriminator 1 view .LVU39
 242              	.LBE82:
 243              	.LBE81:
 244              	.LBE80:
 245              		.loc 1 539 1 view .LVU40
 246 0046 7047     		bx	lr
 247              	.L9:
 248              		.align	2
 249              	.L8:
 250 0048 00000000 		.word	i2sObj
 251 004c 08000000 		.word	_ZTV16InterruptHandler+8
 252 0050 08000000 		.word	_ZTV15InterruptObjectI19__I2S_HandleTypeDefE+8
 253 0054 00000000 		.word	_ZN15InterruptObjectI19__I2S_HandleTypeDefE19defaultErrorHandlerEv
 254 0058 00000000 		.word	hi2s2
 255 005c 08000000 		.word	_ZTV9i2sObject+8
 256 0060 00000000 		.word	rtcObj
 257 0064 08000000 		.word	_ZTV15InterruptObjectI17RTC_HandleTypeDefE+8
 258 0068 00000000 		.word	_ZN15InterruptObjectI17RTC_HandleTypeDefE19defaultErrorHandlerEv
 259 006c 00000000 		.word	hrtc
 260 0070 08000000 		.word	_ZTV9rtcObject+8
 261 0074 00000000 		.word	gpioObj
 262 0078 08000000 		.word	_ZTV15InterruptObjectI12GPIO_TypeDefE+8
 263 007c 00000000 		.word	_ZN15InterruptObjectI12GPIO_TypeDefE19defaultErrorHandlerEv
 264 0080 00000240 		.word	1073872896
 265 0084 08000000 		.word	_ZTV10gpioObject+8
 266              		.cfi_endproc
 267              	.LFE646:
 268              		.cantunwind
 269              		.fnend
 271              		.section	.text._ZN15InterruptObjectI12GPIO_TypeDefE3irqEv,"axG",%progbits,_ZN15InterruptObjectI12G
 272              		.align	1
 273              		.weak	_ZN15InterruptObjectI12GPIO_TypeDefE3irqEv
 274              		.syntax unified
 275              		.thumb
 276              		.thumb_func
 278              	_ZN15InterruptObjectI12GPIO_TypeDefE3irqEv:
 279              		.fnstart
 280              	.LVL10:
ARM GAS  /tmp/cc3dJOKu.s 			page 17


 281              	.LFB647:
  22:Intermediate/Inc/interrupt_handler.h **** 
 282              		.loc 2 22 10 is_stmt 1 view -0
 283              		.cfi_startproc
 284              		@ args = 0, pretend = 0, frame = 0
 285              		@ frame_needed = 0, uses_anonymous_args = 0
 286              		@ link register save eliminated.
 287              	.LBB88:
 288              	.LBI88:
  44:Intermediate/Inc/interrupt_handler.h ****     static void defaultErrorHandler() { while(true) {} };
 289              		.loc 2 44 10 view .LVU42
 290              	.LBB89:
  44:Intermediate/Inc/interrupt_handler.h ****     static void defaultErrorHandler() { while(true) {} };
 291              		.loc 2 44 44 is_stmt 0 view .LVU43
 292 0000 0123     		movs	r3, #1
 293 0002 0371     		strb	r3, [r0, #4]
 294              	.LVL11:
  44:Intermediate/Inc/interrupt_handler.h ****     static void defaultErrorHandler() { while(true) {} };
 295              		.loc 2 44 44 view .LVU44
 296              	.LBE89:
 297              	.LBE88:
  22:Intermediate/Inc/interrupt_handler.h **** 
 298              		.loc 2 22 29 view .LVU45
 299 0004 7047     		bx	lr
 300              		.cfi_endproc
 301              	.LFE647:
 302              		.cantunwind
 303              		.fnend
 305              		.section	.text._ZN15InterruptObjectI17RTC_HandleTypeDefE3irqEv,"axG",%progbits,_ZN15InterruptObjec
 306              		.align	1
 307              		.weak	_ZN15InterruptObjectI17RTC_HandleTypeDefE3irqEv
 308              		.syntax unified
 309              		.thumb
 310              		.thumb_func
 312              	_ZN15InterruptObjectI17RTC_HandleTypeDefE3irqEv:
 313              		.fnstart
 314              	.LVL12:
 315              	.LFB648:
  22:Intermediate/Inc/interrupt_handler.h **** 
 316              		.loc 2 22 10 is_stmt 1 view -0
 317              		.cfi_startproc
 318              		@ args = 0, pretend = 0, frame = 0
 319              		@ frame_needed = 0, uses_anonymous_args = 0
 320              		@ link register save eliminated.
 321              	.LBB90:
 322              	.LBI90:
  44:Intermediate/Inc/interrupt_handler.h ****     static void defaultErrorHandler() { while(true) {} };
 323              		.loc 2 44 10 view .LVU47
 324              	.LBB91:
  44:Intermediate/Inc/interrupt_handler.h ****     static void defaultErrorHandler() { while(true) {} };
 325              		.loc 2 44 44 is_stmt 0 view .LVU48
 326 0000 0123     		movs	r3, #1
 327 0002 0371     		strb	r3, [r0, #4]
 328              	.LVL13:
  44:Intermediate/Inc/interrupt_handler.h ****     static void defaultErrorHandler() { while(true) {} };
 329              		.loc 2 44 44 view .LVU49
 330              	.LBE91:
ARM GAS  /tmp/cc3dJOKu.s 			page 18


 331              	.LBE90:
  22:Intermediate/Inc/interrupt_handler.h **** 
 332              		.loc 2 22 29 view .LVU50
 333 0004 7047     		bx	lr
 334              		.cfi_endproc
 335              	.LFE648:
 336              		.cantunwind
 337              		.fnend
 339              		.section	.text._ZN15InterruptObjectI19__I2S_HandleTypeDefE3irqEv,"axG",%progbits,_ZN15InterruptObj
 340              		.align	1
 341              		.weak	_ZN15InterruptObjectI19__I2S_HandleTypeDefE3irqEv
 342              		.syntax unified
 343              		.thumb
 344              		.thumb_func
 346              	_ZN15InterruptObjectI19__I2S_HandleTypeDefE3irqEv:
 347              		.fnstart
 348              	.LVL14:
 349              	.LFB649:
  22:Intermediate/Inc/interrupt_handler.h **** 
 350              		.loc 2 22 10 is_stmt 1 view -0
 351              		.cfi_startproc
 352              		@ args = 0, pretend = 0, frame = 0
 353              		@ frame_needed = 0, uses_anonymous_args = 0
 354              		@ link register save eliminated.
 355              	.LBB92:
 356              	.LBI92:
  44:Intermediate/Inc/interrupt_handler.h ****     static void defaultErrorHandler() { while(true) {} };
 357              		.loc 2 44 10 view .LVU52
 358              	.LBB93:
  44:Intermediate/Inc/interrupt_handler.h ****     static void defaultErrorHandler() { while(true) {} };
 359              		.loc 2 44 44 is_stmt 0 view .LVU53
 360 0000 0123     		movs	r3, #1
 361 0002 0371     		strb	r3, [r0, #4]
 362              	.LVL15:
  44:Intermediate/Inc/interrupt_handler.h ****     static void defaultErrorHandler() { while(true) {} };
 363              		.loc 2 44 44 view .LVU54
 364              	.LBE93:
 365              	.LBE92:
  22:Intermediate/Inc/interrupt_handler.h **** 
 366              		.loc 2 22 29 view .LVU55
 367 0004 7047     		bx	lr
 368              		.cfi_endproc
 369              	.LFE649:
 370              		.cantunwind
 371              		.fnend
 373              		.section	.text._ZL12MX_GPIO_Initv,"ax",%progbits
 374              		.align	1
 375              		.syntax unified
 376              		.thumb
 377              		.thumb_func
 379              	_ZL12MX_GPIO_Initv:
 380              		.fnstart
 381              	.LFB623:
 457:Core/Src/main.cpp ****   GPIO_InitTypeDef GPIO_InitStruct = {0};
 382              		.loc 1 457 1 is_stmt 1 view -0
 383              		.cfi_startproc
 384              		@ args = 0, pretend = 0, frame = 40
ARM GAS  /tmp/cc3dJOKu.s 			page 19


 385              		@ frame_needed = 0, uses_anonymous_args = 0
 386 0000 2DE9F043 		push	{r4, r5, r6, r7, r8, r9, lr}
 387              		.save {r4, r5, r6, r7, r8, r9, lr}
 388              		.cfi_def_cfa_offset 28
 389              		.cfi_offset 4, -28
 390              		.cfi_offset 5, -24
 391              		.cfi_offset 6, -20
 392              		.cfi_offset 7, -16
 393              		.cfi_offset 8, -12
 394              		.cfi_offset 9, -8
 395              		.cfi_offset 14, -4
 396              		.pad #44
 397 0004 8BB0     		sub	sp, sp, #44
 398              		.cfi_def_cfa_offset 72
 458:Core/Src/main.cpp **** /* USER CODE BEGIN MX_GPIO_Init_1 */
 399              		.loc 1 458 3 view .LVU57
 458:Core/Src/main.cpp **** /* USER CODE BEGIN MX_GPIO_Init_1 */
 400              		.loc 1 458 20 is_stmt 0 view .LVU58
 401 0006 05AD     		add	r5, sp, #20
 402 0008 0024     		movs	r4, #0
 403 000a 0594     		str	r4, [sp, #20]
 404 000c 0694     		str	r4, [sp, #24]
 405 000e 0794     		str	r4, [sp, #28]
 406 0010 0894     		str	r4, [sp, #32]
 407 0012 0994     		str	r4, [sp, #36]
 463:Core/Src/main.cpp ****   __HAL_RCC_GPIOH_CLK_ENABLE();
 408              		.loc 1 463 3 is_stmt 1 view .LVU59
 409              	.LBB94:
 463:Core/Src/main.cpp ****   __HAL_RCC_GPIOH_CLK_ENABLE();
 410              		.loc 1 463 3 view .LVU60
 411 0014 0194     		str	r4, [sp, #4]
 463:Core/Src/main.cpp ****   __HAL_RCC_GPIOH_CLK_ENABLE();
 412              		.loc 1 463 3 view .LVU61
 413 0016 374B     		ldr	r3, .L15
 414 0018 1A6B     		ldr	r2, [r3, #48]
 415 001a 42F00402 		orr	r2, r2, #4
 416 001e 1A63     		str	r2, [r3, #48]
 463:Core/Src/main.cpp ****   __HAL_RCC_GPIOH_CLK_ENABLE();
 417              		.loc 1 463 3 view .LVU62
 418 0020 1A6B     		ldr	r2, [r3, #48]
 419 0022 02F00402 		and	r2, r2, #4
 420 0026 0192     		str	r2, [sp, #4]
 463:Core/Src/main.cpp ****   __HAL_RCC_GPIOH_CLK_ENABLE();
 421              		.loc 1 463 3 view .LVU63
 422 0028 019A     		ldr	r2, [sp, #4]
 423              	.LBE94:
 463:Core/Src/main.cpp ****   __HAL_RCC_GPIOH_CLK_ENABLE();
 424              		.loc 1 463 3 view .LVU64
 464:Core/Src/main.cpp ****   __HAL_RCC_GPIOA_CLK_ENABLE();
 425              		.loc 1 464 3 view .LVU65
 426              	.LBB95:
 464:Core/Src/main.cpp ****   __HAL_RCC_GPIOA_CLK_ENABLE();
 427              		.loc 1 464 3 view .LVU66
 428 002a 0294     		str	r4, [sp, #8]
 464:Core/Src/main.cpp ****   __HAL_RCC_GPIOA_CLK_ENABLE();
 429              		.loc 1 464 3 view .LVU67
 430 002c 1A6B     		ldr	r2, [r3, #48]
ARM GAS  /tmp/cc3dJOKu.s 			page 20


 431 002e 42F08002 		orr	r2, r2, #128
 432 0032 1A63     		str	r2, [r3, #48]
 464:Core/Src/main.cpp ****   __HAL_RCC_GPIOA_CLK_ENABLE();
 433              		.loc 1 464 3 view .LVU68
 434 0034 1A6B     		ldr	r2, [r3, #48]
 435 0036 02F08002 		and	r2, r2, #128
 436 003a 0292     		str	r2, [sp, #8]
 464:Core/Src/main.cpp ****   __HAL_RCC_GPIOA_CLK_ENABLE();
 437              		.loc 1 464 3 view .LVU69
 438 003c 029A     		ldr	r2, [sp, #8]
 439              	.LBE95:
 464:Core/Src/main.cpp ****   __HAL_RCC_GPIOA_CLK_ENABLE();
 440              		.loc 1 464 3 view .LVU70
 465:Core/Src/main.cpp ****   __HAL_RCC_GPIOB_CLK_ENABLE();
 441              		.loc 1 465 3 view .LVU71
 442              	.LBB96:
 465:Core/Src/main.cpp ****   __HAL_RCC_GPIOB_CLK_ENABLE();
 443              		.loc 1 465 3 view .LVU72
 444 003e 0394     		str	r4, [sp, #12]
 465:Core/Src/main.cpp ****   __HAL_RCC_GPIOB_CLK_ENABLE();
 445              		.loc 1 465 3 view .LVU73
 446 0040 1A6B     		ldr	r2, [r3, #48]
 447 0042 42F00102 		orr	r2, r2, #1
 448 0046 1A63     		str	r2, [r3, #48]
 465:Core/Src/main.cpp ****   __HAL_RCC_GPIOB_CLK_ENABLE();
 449              		.loc 1 465 3 view .LVU74
 450 0048 1A6B     		ldr	r2, [r3, #48]
 451 004a 02F00102 		and	r2, r2, #1
 452 004e 0392     		str	r2, [sp, #12]
 465:Core/Src/main.cpp ****   __HAL_RCC_GPIOB_CLK_ENABLE();
 453              		.loc 1 465 3 view .LVU75
 454 0050 039A     		ldr	r2, [sp, #12]
 455              	.LBE96:
 465:Core/Src/main.cpp ****   __HAL_RCC_GPIOB_CLK_ENABLE();
 456              		.loc 1 465 3 view .LVU76
 466:Core/Src/main.cpp **** 
 457              		.loc 1 466 3 view .LVU77
 458              	.LBB97:
 466:Core/Src/main.cpp **** 
 459              		.loc 1 466 3 view .LVU78
 460 0052 0494     		str	r4, [sp, #16]
 466:Core/Src/main.cpp **** 
 461              		.loc 1 466 3 view .LVU79
 462 0054 1A6B     		ldr	r2, [r3, #48]
 463 0056 42F00202 		orr	r2, r2, #2
 464 005a 1A63     		str	r2, [r3, #48]
 466:Core/Src/main.cpp **** 
 465              		.loc 1 466 3 view .LVU80
 466 005c 1B6B     		ldr	r3, [r3, #48]
 467 005e 03F00203 		and	r3, r3, #2
 468 0062 0493     		str	r3, [sp, #16]
 466:Core/Src/main.cpp **** 
 469              		.loc 1 466 3 view .LVU81
 470 0064 049B     		ldr	r3, [sp, #16]
 471              	.LBE97:
 466:Core/Src/main.cpp **** 
 472              		.loc 1 466 3 view .LVU82
ARM GAS  /tmp/cc3dJOKu.s 			page 21


 469:Core/Src/main.cpp **** 
 473              		.loc 1 469 3 view .LVU83
 469:Core/Src/main.cpp **** 
 474              		.loc 1 469 20 is_stmt 0 view .LVU84
 475 0066 244E     		ldr	r6, .L15+4
 476 0068 2246     		mov	r2, r4
 477 006a 1A21     		movs	r1, #26
 478 006c 3046     		mov	r0, r6
 479 006e FFF7FEFF 		bl	HAL_GPIO_WritePin
 480              	.LVL16:
 472:Core/Src/main.cpp **** 
 481              		.loc 1 472 3 is_stmt 1 view .LVU85
 472:Core/Src/main.cpp **** 
 482              		.loc 1 472 20 is_stmt 0 view .LVU86
 483 0072 DFF88880 		ldr	r8, .L15+8
 484 0076 2246     		mov	r2, r4
 485 0078 40F20141 		movw	r1, #1025
 486 007c 4046     		mov	r0, r8
 487 007e FFF7FEFF 		bl	HAL_GPIO_WritePin
 488              	.LVL17:
 475:Core/Src/main.cpp ****   GPIO_InitStruct.Mode = GPIO_MODE_OUTPUT_PP;
 489              		.loc 1 475 3 is_stmt 1 view .LVU87
 475:Core/Src/main.cpp ****   GPIO_InitStruct.Mode = GPIO_MODE_OUTPUT_PP;
 490              		.loc 1 475 23 is_stmt 0 view .LVU88
 491 0082 1A23     		movs	r3, #26
 492 0084 0593     		str	r3, [sp, #20]
 476:Core/Src/main.cpp ****   GPIO_InitStruct.Pull = GPIO_NOPULL;
 493              		.loc 1 476 3 is_stmt 1 view .LVU89
 476:Core/Src/main.cpp ****   GPIO_InitStruct.Pull = GPIO_NOPULL;
 494              		.loc 1 476 24 is_stmt 0 view .LVU90
 495 0086 4FF00109 		mov	r9, #1
 496 008a CDF81890 		str	r9, [sp, #24]
 477:Core/Src/main.cpp ****   GPIO_InitStruct.Speed = GPIO_SPEED_FREQ_LOW;
 497              		.loc 1 477 3 is_stmt 1 view .LVU91
 477:Core/Src/main.cpp ****   GPIO_InitStruct.Speed = GPIO_SPEED_FREQ_LOW;
 498              		.loc 1 477 24 is_stmt 0 view .LVU92
 499 008e 0794     		str	r4, [sp, #28]
 478:Core/Src/main.cpp ****   HAL_GPIO_Init(GPIOA, &GPIO_InitStruct);
 500              		.loc 1 478 3 is_stmt 1 view .LVU93
 478:Core/Src/main.cpp ****   HAL_GPIO_Init(GPIOA, &GPIO_InitStruct);
 501              		.loc 1 478 25 is_stmt 0 view .LVU94
 502 0090 0894     		str	r4, [sp, #32]
 479:Core/Src/main.cpp **** 
 503              		.loc 1 479 3 is_stmt 1 view .LVU95
 479:Core/Src/main.cpp **** 
 504              		.loc 1 479 16 is_stmt 0 view .LVU96
 505 0092 2946     		mov	r1, r5
 506 0094 3046     		mov	r0, r6
 507 0096 FFF7FEFF 		bl	HAL_GPIO_Init
 508              	.LVL18:
 482:Core/Src/main.cpp ****   GPIO_InitStruct.Mode = GPIO_MODE_IT_FALLING;
 509              		.loc 1 482 3 is_stmt 1 view .LVU97
 482:Core/Src/main.cpp ****   GPIO_InitStruct.Mode = GPIO_MODE_IT_FALLING;
 510              		.loc 1 482 23 is_stmt 0 view .LVU98
 511 009a 0423     		movs	r3, #4
 512 009c 0593     		str	r3, [sp, #20]
 483:Core/Src/main.cpp ****   GPIO_InitStruct.Pull = GPIO_PULLDOWN;
ARM GAS  /tmp/cc3dJOKu.s 			page 22


 513              		.loc 1 483 3 is_stmt 1 view .LVU99
 483:Core/Src/main.cpp ****   GPIO_InitStruct.Pull = GPIO_PULLDOWN;
 514              		.loc 1 483 24 is_stmt 0 view .LVU100
 515 009e 4FF40413 		mov	r3, #2162688
 516 00a2 0693     		str	r3, [sp, #24]
 484:Core/Src/main.cpp ****   HAL_GPIO_Init(wakeup_GPIO_Port, &GPIO_InitStruct);
 517              		.loc 1 484 3 is_stmt 1 view .LVU101
 484:Core/Src/main.cpp ****   HAL_GPIO_Init(wakeup_GPIO_Port, &GPIO_InitStruct);
 518              		.loc 1 484 24 is_stmt 0 view .LVU102
 519 00a4 0227     		movs	r7, #2
 520 00a6 0797     		str	r7, [sp, #28]
 485:Core/Src/main.cpp **** 
 521              		.loc 1 485 3 is_stmt 1 view .LVU103
 485:Core/Src/main.cpp **** 
 522              		.loc 1 485 16 is_stmt 0 view .LVU104
 523 00a8 2946     		mov	r1, r5
 524 00aa 3046     		mov	r0, r6
 525 00ac FFF7FEFF 		bl	HAL_GPIO_Init
 526              	.LVL19:
 488:Core/Src/main.cpp ****   GPIO_InitStruct.Mode = GPIO_MODE_OUTPUT_PP;
 527              		.loc 1 488 3 is_stmt 1 view .LVU105
 488:Core/Src/main.cpp ****   GPIO_InitStruct.Mode = GPIO_MODE_OUTPUT_PP;
 528              		.loc 1 488 23 is_stmt 0 view .LVU106
 529 00b0 40F20143 		movw	r3, #1025
 530 00b4 0593     		str	r3, [sp, #20]
 489:Core/Src/main.cpp ****   GPIO_InitStruct.Pull = GPIO_NOPULL;
 531              		.loc 1 489 3 is_stmt 1 view .LVU107
 489:Core/Src/main.cpp ****   GPIO_InitStruct.Pull = GPIO_NOPULL;
 532              		.loc 1 489 24 is_stmt 0 view .LVU108
 533 00b6 CDF81890 		str	r9, [sp, #24]
 490:Core/Src/main.cpp ****   GPIO_InitStruct.Speed = GPIO_SPEED_FREQ_LOW;
 534              		.loc 1 490 3 is_stmt 1 view .LVU109
 490:Core/Src/main.cpp ****   GPIO_InitStruct.Speed = GPIO_SPEED_FREQ_LOW;
 535              		.loc 1 490 24 is_stmt 0 view .LVU110
 536 00ba 0794     		str	r4, [sp, #28]
 491:Core/Src/main.cpp ****   HAL_GPIO_Init(GPIOB, &GPIO_InitStruct);
 537              		.loc 1 491 3 is_stmt 1 view .LVU111
 491:Core/Src/main.cpp ****   HAL_GPIO_Init(GPIOB, &GPIO_InitStruct);
 538              		.loc 1 491 25 is_stmt 0 view .LVU112
 539 00bc 0894     		str	r4, [sp, #32]
 492:Core/Src/main.cpp **** 
 540              		.loc 1 492 3 is_stmt 1 view .LVU113
 492:Core/Src/main.cpp **** 
 541              		.loc 1 492 16 is_stmt 0 view .LVU114
 542 00be 2946     		mov	r1, r5
 543 00c0 4046     		mov	r0, r8
 544 00c2 FFF7FEFF 		bl	HAL_GPIO_Init
 545              	.LVL20:
 495:Core/Src/main.cpp ****   GPIO_InitStruct.Mode = GPIO_MODE_AF_PP;
 546              		.loc 1 495 3 is_stmt 1 view .LVU115
 495:Core/Src/main.cpp ****   GPIO_InitStruct.Mode = GPIO_MODE_AF_PP;
 547              		.loc 1 495 23 is_stmt 0 view .LVU116
 548 00c6 4FF48073 		mov	r3, #256
 549 00ca 0593     		str	r3, [sp, #20]
 496:Core/Src/main.cpp ****   GPIO_InitStruct.Pull = GPIO_NOPULL;
 550              		.loc 1 496 3 is_stmt 1 view .LVU117
 496:Core/Src/main.cpp ****   GPIO_InitStruct.Pull = GPIO_NOPULL;
ARM GAS  /tmp/cc3dJOKu.s 			page 23


 551              		.loc 1 496 24 is_stmt 0 view .LVU118
 552 00cc 0697     		str	r7, [sp, #24]
 497:Core/Src/main.cpp ****   GPIO_InitStruct.Speed = GPIO_SPEED_FREQ_LOW;
 553              		.loc 1 497 3 is_stmt 1 view .LVU119
 497:Core/Src/main.cpp ****   GPIO_InitStruct.Speed = GPIO_SPEED_FREQ_LOW;
 554              		.loc 1 497 24 is_stmt 0 view .LVU120
 555 00ce 0794     		str	r4, [sp, #28]
 498:Core/Src/main.cpp ****   GPIO_InitStruct.Alternate = GPIO_AF0_MCO;
 556              		.loc 1 498 3 is_stmt 1 view .LVU121
 498:Core/Src/main.cpp ****   GPIO_InitStruct.Alternate = GPIO_AF0_MCO;
 557              		.loc 1 498 25 is_stmt 0 view .LVU122
 558 00d0 0894     		str	r4, [sp, #32]
 499:Core/Src/main.cpp ****   HAL_GPIO_Init(GPIOA, &GPIO_InitStruct);
 559              		.loc 1 499 3 is_stmt 1 view .LVU123
 499:Core/Src/main.cpp ****   HAL_GPIO_Init(GPIOA, &GPIO_InitStruct);
 560              		.loc 1 499 29 is_stmt 0 view .LVU124
 561 00d2 0994     		str	r4, [sp, #36]
 500:Core/Src/main.cpp **** 
 562              		.loc 1 500 3 is_stmt 1 view .LVU125
 500:Core/Src/main.cpp **** 
 563              		.loc 1 500 16 is_stmt 0 view .LVU126
 564 00d4 2946     		mov	r1, r5
 565 00d6 3046     		mov	r0, r6
 566 00d8 FFF7FEFF 		bl	HAL_GPIO_Init
 567              	.LVL21:
 503:Core/Src/main.cpp ****   HAL_NVIC_EnableIRQ(EXTI2_IRQn);
 568              		.loc 1 503 3 is_stmt 1 view .LVU127
 503:Core/Src/main.cpp ****   HAL_NVIC_EnableIRQ(EXTI2_IRQn);
 569              		.loc 1 503 23 is_stmt 0 view .LVU128
 570 00dc 2246     		mov	r2, r4
 571 00de 2146     		mov	r1, r4
 572 00e0 0820     		movs	r0, #8
 573 00e2 FFF7FEFF 		bl	HAL_NVIC_SetPriority
 574              	.LVL22:
 504:Core/Src/main.cpp **** 
 575              		.loc 1 504 3 is_stmt 1 view .LVU129
 504:Core/Src/main.cpp **** 
 576              		.loc 1 504 21 is_stmt 0 view .LVU130
 577 00e6 0820     		movs	r0, #8
 578 00e8 FFF7FEFF 		bl	HAL_NVIC_EnableIRQ
 579              	.LVL23:
 509:Core/Src/main.cpp **** 
 580              		.loc 1 509 1 view .LVU131
 581 00ec 0BB0     		add	sp, sp, #44
 582              		.cfi_def_cfa_offset 28
 583              		@ sp needed
 584 00ee BDE8F083 		pop	{r4, r5, r6, r7, r8, r9, pc}
 585              	.L16:
 586 00f2 00BF     		.align	2
 587              	.L15:
 588 00f4 00380240 		.word	1073887232
 589 00f8 00000240 		.word	1073872896
 590 00fc 00040240 		.word	1073873920
 591              		.cfi_endproc
 592              	.LFE623:
 593              		.fnend
 595              		.section	.text._ZL11MX_DMA_Initv,"ax",%progbits
ARM GAS  /tmp/cc3dJOKu.s 			page 24


 596              		.align	1
 597              		.syntax unified
 598              		.thumb
 599              		.thumb_func
 601              	_ZL11MX_DMA_Initv:
 602              		.fnstart
 603              	.LFB622:
 439:Core/Src/main.cpp **** 
 604              		.loc 1 439 1 is_stmt 1 view -0
 605              		.cfi_startproc
 606              		@ args = 0, pretend = 0, frame = 8
 607              		@ frame_needed = 0, uses_anonymous_args = 0
 608 0000 00B5     		push	{lr}
 609              		.save {lr}
 610              		.cfi_def_cfa_offset 4
 611              		.cfi_offset 14, -4
 612              		.pad #12
 613 0002 83B0     		sub	sp, sp, #12
 614              		.cfi_def_cfa_offset 16
 442:Core/Src/main.cpp **** 
 615              		.loc 1 442 3 view .LVU133
 616              	.LBB98:
 442:Core/Src/main.cpp **** 
 617              		.loc 1 442 3 view .LVU134
 618 0004 0021     		movs	r1, #0
 619 0006 0191     		str	r1, [sp, #4]
 442:Core/Src/main.cpp **** 
 620              		.loc 1 442 3 view .LVU135
 621 0008 094B     		ldr	r3, .L19
 622 000a 1A6B     		ldr	r2, [r3, #48]
 623 000c 42F40012 		orr	r2, r2, #2097152
 624 0010 1A63     		str	r2, [r3, #48]
 442:Core/Src/main.cpp **** 
 625              		.loc 1 442 3 view .LVU136
 626 0012 1B6B     		ldr	r3, [r3, #48]
 627 0014 03F40013 		and	r3, r3, #2097152
 628 0018 0193     		str	r3, [sp, #4]
 442:Core/Src/main.cpp **** 
 629              		.loc 1 442 3 view .LVU137
 630 001a 019B     		ldr	r3, [sp, #4]
 631              	.LBE98:
 442:Core/Src/main.cpp **** 
 632              		.loc 1 442 3 view .LVU138
 446:Core/Src/main.cpp ****   HAL_NVIC_EnableIRQ(DMA1_Stream4_IRQn);
 633              		.loc 1 446 3 view .LVU139
 446:Core/Src/main.cpp ****   HAL_NVIC_EnableIRQ(DMA1_Stream4_IRQn);
 634              		.loc 1 446 23 is_stmt 0 view .LVU140
 635 001c 0A46     		mov	r2, r1
 636 001e 0F20     		movs	r0, #15
 637 0020 FFF7FEFF 		bl	HAL_NVIC_SetPriority
 638              	.LVL24:
 447:Core/Src/main.cpp **** 
 639              		.loc 1 447 3 is_stmt 1 view .LVU141
 447:Core/Src/main.cpp **** 
 640              		.loc 1 447 21 is_stmt 0 view .LVU142
 641 0024 0F20     		movs	r0, #15
 642 0026 FFF7FEFF 		bl	HAL_NVIC_EnableIRQ
ARM GAS  /tmp/cc3dJOKu.s 			page 25


 643              	.LVL25:
 449:Core/Src/main.cpp **** 
 644              		.loc 1 449 1 view .LVU143
 645 002a 03B0     		add	sp, sp, #12
 646              		.cfi_def_cfa_offset 4
 647              		@ sp needed
 648 002c 5DF804FB 		ldr	pc, [sp], #4
 649              	.L20:
 650              		.align	2
 651              	.L19:
 652 0030 00380240 		.word	1073887232
 653              		.cfi_endproc
 654              	.LFE622:
 655              		.fnend
 657              		.section	.text.HAL_I2S_TxCpltCallback,"ax",%progbits
 658              		.align	1
 659              		.global	HAL_I2S_TxCpltCallback
 660              		.syntax unified
 661              		.thumb
 662              		.thumb_func
 664              	HAL_I2S_TxCpltCallback:
 665              		.fnstart
 666              	.LVL26:
 667              	.LFB624:
 513:Core/Src/main.cpp ****   Handlers[spi_txcplt_irqn]->irq();
 668              		.loc 1 513 65 is_stmt 1 view -0
 669              		.cfi_startproc
 670              		@ args = 0, pretend = 0, frame = 0
 671              		@ frame_needed = 0, uses_anonymous_args = 0
 513:Core/Src/main.cpp ****   Handlers[spi_txcplt_irqn]->irq();
 672              		.loc 1 513 65 is_stmt 0 view .LVU145
 673 0000 08B5     		push	{r3, lr}
 674              		.save {r3, lr}
 675              		.cfi_def_cfa_offset 8
 676              		.cfi_offset 3, -8
 677              		.cfi_offset 14, -4
 514:Core/Src/main.cpp **** }                      
 678              		.loc 1 514 3 is_stmt 1 view .LVU146
 514:Core/Src/main.cpp **** }                      
 679              		.loc 1 514 27 is_stmt 0 view .LVU147
 680 0002 034B     		ldr	r3, .L23
 681 0004 1868     		ldr	r0, [r3]
 682              	.LVL27:
 514:Core/Src/main.cpp **** }                      
 683              		.loc 1 514 33 view .LVU148
 684 0006 0368     		ldr	r3, [r0]
 685 0008 1B68     		ldr	r3, [r3]
 686 000a 9847     		blx	r3
 687              	.LVL28:
 515:Core/Src/main.cpp **** 
 688              		.loc 1 515 1 view .LVU149
 689 000c 08BD     		pop	{r3, pc}
 690              	.L24:
 691 000e 00BF     		.align	2
 692              	.L23:
 693 0010 00000000 		.word	Handlers
 694              		.cfi_endproc
ARM GAS  /tmp/cc3dJOKu.s 			page 26


 695              	.LFE624:
 696              		.fnend
 698              		.section	.text.HAL_GPIO_EXTI_Callback,"ax",%progbits
 699              		.align	1
 700              		.global	HAL_GPIO_EXTI_Callback
 701              		.syntax unified
 702              		.thumb
 703              		.thumb_func
 705              	HAL_GPIO_EXTI_Callback:
 706              		.fnstart
 707              	.LVL29:
 708              	.LFB625:
 517:Core/Src/main.cpp **** }
 709              		.loc 1 517 59 is_stmt 1 view -0
 710              		.cfi_startproc
 711              		@ args = 0, pretend = 0, frame = 0
 712              		@ frame_needed = 0, uses_anonymous_args = 0
 713              		@ link register save eliminated.
 518:Core/Src/main.cpp **** 
 714              		.loc 1 518 1 is_stmt 0 view .LVU151
 715 0000 7047     		bx	lr
 716              		.cfi_endproc
 717              	.LFE625:
 718              		.cantunwind
 719              		.fnend
 721              		.section	.text._Z16register_handleriP16InterruptHandler,"ax",%progbits
 722              		.align	1
 723              		.global	_Z16register_handleriP16InterruptHandler
 724              		.syntax unified
 725              		.thumb
 726              		.thumb_func
 728              	_Z16register_handleriP16InterruptHandler:
 729              		.fnstart
 730              	.LVL30:
 731              	.LFB626:
 520:Core/Src/main.cpp ****     Handlers[irq_n] = handler;
 732              		.loc 1 520 61 is_stmt 1 view -0
 733              		.cfi_startproc
 734              		@ args = 0, pretend = 0, frame = 0
 735              		@ frame_needed = 0, uses_anonymous_args = 0
 736              		@ link register save eliminated.
 521:Core/Src/main.cpp **** }
 737              		.loc 1 521 5 view .LVU153
 521:Core/Src/main.cpp **** }
 738              		.loc 1 521 21 is_stmt 0 view .LVU154
 739 0000 014B     		ldr	r3, .L27
 740 0002 43F82010 		str	r1, [r3, r0, lsl #2]
 522:Core/Src/main.cpp **** 
 741              		.loc 1 522 1 view .LVU155
 742 0006 7047     		bx	lr
 743              	.L28:
 744              		.align	2
 745              	.L27:
 746 0008 00000000 		.word	Handlers
 747              		.cfi_endproc
 748              	.LFE626:
 749              		.cantunwind
ARM GAS  /tmp/cc3dJOKu.s 			page 27


 750              		.fnend
 752              		.section	.text.Error_Handler,"ax",%progbits
 753              		.align	1
 754              		.global	Error_Handler
 755              		.syntax unified
 756              		.thumb
 757              		.thumb_func
 759              	Error_Handler:
 760              		.fnstart
 761              	.LFB627:
 531:Core/Src/main.cpp ****   /* USER CODE BEGIN Error_Handler_Debug */
 762              		.loc 1 531 1 is_stmt 1 view -0
 763              		.cfi_startproc
 764              		@ Volatile: function does not return.
 765              		@ args = 0, pretend = 0, frame = 0
 766              		@ frame_needed = 0, uses_anonymous_args = 0
 767              		@ link register save eliminated.
 534:Core/Src/main.cpp ****   while (1)
 768              		.loc 1 534 3 view .LVU157
 769              	.LBB99:
 770              	.LBI99:
 771              		.file 6 "Drivers/CMSIS/Include/cmsis_gcc.h"
   1:Drivers/CMSIS/Include/cmsis_gcc.h **** /**************************************************************************//**
   2:Drivers/CMSIS/Include/cmsis_gcc.h ****  * @file     cmsis_gcc.h
   3:Drivers/CMSIS/Include/cmsis_gcc.h ****  * @brief    CMSIS compiler GCC header file
   4:Drivers/CMSIS/Include/cmsis_gcc.h ****  * @version  V5.0.4
   5:Drivers/CMSIS/Include/cmsis_gcc.h ****  * @date     09. April 2018
   6:Drivers/CMSIS/Include/cmsis_gcc.h ****  ******************************************************************************/
   7:Drivers/CMSIS/Include/cmsis_gcc.h **** /*
   8:Drivers/CMSIS/Include/cmsis_gcc.h ****  * Copyright (c) 2009-2018 Arm Limited. All rights reserved.
   9:Drivers/CMSIS/Include/cmsis_gcc.h ****  *
  10:Drivers/CMSIS/Include/cmsis_gcc.h ****  * SPDX-License-Identifier: Apache-2.0
  11:Drivers/CMSIS/Include/cmsis_gcc.h ****  *
  12:Drivers/CMSIS/Include/cmsis_gcc.h ****  * Licensed under the Apache License, Version 2.0 (the License); you may
  13:Drivers/CMSIS/Include/cmsis_gcc.h ****  * not use this file except in compliance with the License.
  14:Drivers/CMSIS/Include/cmsis_gcc.h ****  * You may obtain a copy of the License at
  15:Drivers/CMSIS/Include/cmsis_gcc.h ****  *
  16:Drivers/CMSIS/Include/cmsis_gcc.h ****  * www.apache.org/licenses/LICENSE-2.0
  17:Drivers/CMSIS/Include/cmsis_gcc.h ****  *
  18:Drivers/CMSIS/Include/cmsis_gcc.h ****  * Unless required by applicable law or agreed to in writing, software
  19:Drivers/CMSIS/Include/cmsis_gcc.h ****  * distributed under the License is distributed on an AS IS BASIS, WITHOUT
  20:Drivers/CMSIS/Include/cmsis_gcc.h ****  * WARRANTIES OR CONDITIONS OF ANY KIND, either express or implied.
  21:Drivers/CMSIS/Include/cmsis_gcc.h ****  * See the License for the specific language governing permissions and
  22:Drivers/CMSIS/Include/cmsis_gcc.h ****  * limitations under the License.
  23:Drivers/CMSIS/Include/cmsis_gcc.h ****  */
  24:Drivers/CMSIS/Include/cmsis_gcc.h **** 
  25:Drivers/CMSIS/Include/cmsis_gcc.h **** #ifndef __CMSIS_GCC_H
  26:Drivers/CMSIS/Include/cmsis_gcc.h **** #define __CMSIS_GCC_H
  27:Drivers/CMSIS/Include/cmsis_gcc.h **** 
  28:Drivers/CMSIS/Include/cmsis_gcc.h **** /* ignore some GCC warnings */
  29:Drivers/CMSIS/Include/cmsis_gcc.h **** #pragma GCC diagnostic push
  30:Drivers/CMSIS/Include/cmsis_gcc.h **** #pragma GCC diagnostic ignored "-Wsign-conversion"
  31:Drivers/CMSIS/Include/cmsis_gcc.h **** #pragma GCC diagnostic ignored "-Wconversion"
  32:Drivers/CMSIS/Include/cmsis_gcc.h **** #pragma GCC diagnostic ignored "-Wunused-parameter"
  33:Drivers/CMSIS/Include/cmsis_gcc.h **** 
  34:Drivers/CMSIS/Include/cmsis_gcc.h **** /* Fallback for __has_builtin */
  35:Drivers/CMSIS/Include/cmsis_gcc.h **** #ifndef __has_builtin
ARM GAS  /tmp/cc3dJOKu.s 			page 28


  36:Drivers/CMSIS/Include/cmsis_gcc.h ****   #define __has_builtin(x) (0)
  37:Drivers/CMSIS/Include/cmsis_gcc.h **** #endif
  38:Drivers/CMSIS/Include/cmsis_gcc.h **** 
  39:Drivers/CMSIS/Include/cmsis_gcc.h **** /* CMSIS compiler specific defines */
  40:Drivers/CMSIS/Include/cmsis_gcc.h **** #ifndef   __ASM
  41:Drivers/CMSIS/Include/cmsis_gcc.h ****   #define __ASM                                  __asm
  42:Drivers/CMSIS/Include/cmsis_gcc.h **** #endif
  43:Drivers/CMSIS/Include/cmsis_gcc.h **** #ifndef   __INLINE
  44:Drivers/CMSIS/Include/cmsis_gcc.h ****   #define __INLINE                               inline
  45:Drivers/CMSIS/Include/cmsis_gcc.h **** #endif
  46:Drivers/CMSIS/Include/cmsis_gcc.h **** #ifndef   __STATIC_INLINE
  47:Drivers/CMSIS/Include/cmsis_gcc.h ****   #define __STATIC_INLINE                        static inline
  48:Drivers/CMSIS/Include/cmsis_gcc.h **** #endif
  49:Drivers/CMSIS/Include/cmsis_gcc.h **** #ifndef   __STATIC_FORCEINLINE                 
  50:Drivers/CMSIS/Include/cmsis_gcc.h ****   #define __STATIC_FORCEINLINE                   __attribute__((always_inline)) static inline
  51:Drivers/CMSIS/Include/cmsis_gcc.h **** #endif                                           
  52:Drivers/CMSIS/Include/cmsis_gcc.h **** #ifndef   __NO_RETURN
  53:Drivers/CMSIS/Include/cmsis_gcc.h ****   #define __NO_RETURN                            __attribute__((__noreturn__))
  54:Drivers/CMSIS/Include/cmsis_gcc.h **** #endif
  55:Drivers/CMSIS/Include/cmsis_gcc.h **** #ifndef   __USED
  56:Drivers/CMSIS/Include/cmsis_gcc.h ****   #define __USED                                 __attribute__((used))
  57:Drivers/CMSIS/Include/cmsis_gcc.h **** #endif
  58:Drivers/CMSIS/Include/cmsis_gcc.h **** #ifndef   __WEAK
  59:Drivers/CMSIS/Include/cmsis_gcc.h ****   #define __WEAK                                 __attribute__((weak))
  60:Drivers/CMSIS/Include/cmsis_gcc.h **** #endif
  61:Drivers/CMSIS/Include/cmsis_gcc.h **** #ifndef   __PACKED
  62:Drivers/CMSIS/Include/cmsis_gcc.h ****   #define __PACKED                               __attribute__((packed, aligned(1)))
  63:Drivers/CMSIS/Include/cmsis_gcc.h **** #endif
  64:Drivers/CMSIS/Include/cmsis_gcc.h **** #ifndef   __PACKED_STRUCT
  65:Drivers/CMSIS/Include/cmsis_gcc.h ****   #define __PACKED_STRUCT                        struct __attribute__((packed, aligned(1)))
  66:Drivers/CMSIS/Include/cmsis_gcc.h **** #endif
  67:Drivers/CMSIS/Include/cmsis_gcc.h **** #ifndef   __PACKED_UNION
  68:Drivers/CMSIS/Include/cmsis_gcc.h ****   #define __PACKED_UNION                         union __attribute__((packed, aligned(1)))
  69:Drivers/CMSIS/Include/cmsis_gcc.h **** #endif
  70:Drivers/CMSIS/Include/cmsis_gcc.h **** #ifndef   __UNALIGNED_UINT32        /* deprecated */
  71:Drivers/CMSIS/Include/cmsis_gcc.h ****   #pragma GCC diagnostic push
  72:Drivers/CMSIS/Include/cmsis_gcc.h ****   #pragma GCC diagnostic ignored "-Wpacked"
  73:Drivers/CMSIS/Include/cmsis_gcc.h ****   #pragma GCC diagnostic ignored "-Wattributes"
  74:Drivers/CMSIS/Include/cmsis_gcc.h ****   struct __attribute__((packed)) T_UINT32 { uint32_t v; };
  75:Drivers/CMSIS/Include/cmsis_gcc.h ****   #pragma GCC diagnostic pop
  76:Drivers/CMSIS/Include/cmsis_gcc.h ****   #define __UNALIGNED_UINT32(x)                  (((struct T_UINT32 *)(x))->v)
  77:Drivers/CMSIS/Include/cmsis_gcc.h **** #endif
  78:Drivers/CMSIS/Include/cmsis_gcc.h **** #ifndef   __UNALIGNED_UINT16_WRITE
  79:Drivers/CMSIS/Include/cmsis_gcc.h ****   #pragma GCC diagnostic push
  80:Drivers/CMSIS/Include/cmsis_gcc.h ****   #pragma GCC diagnostic ignored "-Wpacked"
  81:Drivers/CMSIS/Include/cmsis_gcc.h ****   #pragma GCC diagnostic ignored "-Wattributes"
  82:Drivers/CMSIS/Include/cmsis_gcc.h ****   __PACKED_STRUCT T_UINT16_WRITE { uint16_t v; };
  83:Drivers/CMSIS/Include/cmsis_gcc.h ****   #pragma GCC diagnostic pop
  84:Drivers/CMSIS/Include/cmsis_gcc.h ****   #define __UNALIGNED_UINT16_WRITE(addr, val)    (void)((((struct T_UINT16_WRITE *)(void *)(addr))-
  85:Drivers/CMSIS/Include/cmsis_gcc.h **** #endif
  86:Drivers/CMSIS/Include/cmsis_gcc.h **** #ifndef   __UNALIGNED_UINT16_READ
  87:Drivers/CMSIS/Include/cmsis_gcc.h ****   #pragma GCC diagnostic push
  88:Drivers/CMSIS/Include/cmsis_gcc.h ****   #pragma GCC diagnostic ignored "-Wpacked"
  89:Drivers/CMSIS/Include/cmsis_gcc.h ****   #pragma GCC diagnostic ignored "-Wattributes"
  90:Drivers/CMSIS/Include/cmsis_gcc.h ****   __PACKED_STRUCT T_UINT16_READ { uint16_t v; };
  91:Drivers/CMSIS/Include/cmsis_gcc.h ****   #pragma GCC diagnostic pop
  92:Drivers/CMSIS/Include/cmsis_gcc.h ****   #define __UNALIGNED_UINT16_READ(addr)          (((const struct T_UINT16_READ *)(const void *)(add
ARM GAS  /tmp/cc3dJOKu.s 			page 29


  93:Drivers/CMSIS/Include/cmsis_gcc.h **** #endif
  94:Drivers/CMSIS/Include/cmsis_gcc.h **** #ifndef   __UNALIGNED_UINT32_WRITE
  95:Drivers/CMSIS/Include/cmsis_gcc.h ****   #pragma GCC diagnostic push
  96:Drivers/CMSIS/Include/cmsis_gcc.h ****   #pragma GCC diagnostic ignored "-Wpacked"
  97:Drivers/CMSIS/Include/cmsis_gcc.h ****   #pragma GCC diagnostic ignored "-Wattributes"
  98:Drivers/CMSIS/Include/cmsis_gcc.h ****   __PACKED_STRUCT T_UINT32_WRITE { uint32_t v; };
  99:Drivers/CMSIS/Include/cmsis_gcc.h ****   #pragma GCC diagnostic pop
 100:Drivers/CMSIS/Include/cmsis_gcc.h ****   #define __UNALIGNED_UINT32_WRITE(addr, val)    (void)((((struct T_UINT32_WRITE *)(void *)(addr))-
 101:Drivers/CMSIS/Include/cmsis_gcc.h **** #endif
 102:Drivers/CMSIS/Include/cmsis_gcc.h **** #ifndef   __UNALIGNED_UINT32_READ
 103:Drivers/CMSIS/Include/cmsis_gcc.h ****   #pragma GCC diagnostic push
 104:Drivers/CMSIS/Include/cmsis_gcc.h ****   #pragma GCC diagnostic ignored "-Wpacked"
 105:Drivers/CMSIS/Include/cmsis_gcc.h ****   #pragma GCC diagnostic ignored "-Wattributes"
 106:Drivers/CMSIS/Include/cmsis_gcc.h ****   __PACKED_STRUCT T_UINT32_READ { uint32_t v; };
 107:Drivers/CMSIS/Include/cmsis_gcc.h ****   #pragma GCC diagnostic pop
 108:Drivers/CMSIS/Include/cmsis_gcc.h ****   #define __UNALIGNED_UINT32_READ(addr)          (((const struct T_UINT32_READ *)(const void *)(add
 109:Drivers/CMSIS/Include/cmsis_gcc.h **** #endif
 110:Drivers/CMSIS/Include/cmsis_gcc.h **** #ifndef   __ALIGNED
 111:Drivers/CMSIS/Include/cmsis_gcc.h ****   #define __ALIGNED(x)                           __attribute__((aligned(x)))
 112:Drivers/CMSIS/Include/cmsis_gcc.h **** #endif
 113:Drivers/CMSIS/Include/cmsis_gcc.h **** #ifndef   __RESTRICT
 114:Drivers/CMSIS/Include/cmsis_gcc.h ****   #define __RESTRICT                             __restrict
 115:Drivers/CMSIS/Include/cmsis_gcc.h **** #endif
 116:Drivers/CMSIS/Include/cmsis_gcc.h **** 
 117:Drivers/CMSIS/Include/cmsis_gcc.h **** 
 118:Drivers/CMSIS/Include/cmsis_gcc.h **** /* ###########################  Core Function Access  ########################### */
 119:Drivers/CMSIS/Include/cmsis_gcc.h **** /** \ingroup  CMSIS_Core_FunctionInterface
 120:Drivers/CMSIS/Include/cmsis_gcc.h ****     \defgroup CMSIS_Core_RegAccFunctions CMSIS Core Register Access Functions
 121:Drivers/CMSIS/Include/cmsis_gcc.h ****   @{
 122:Drivers/CMSIS/Include/cmsis_gcc.h ****  */
 123:Drivers/CMSIS/Include/cmsis_gcc.h **** 
 124:Drivers/CMSIS/Include/cmsis_gcc.h **** /**
 125:Drivers/CMSIS/Include/cmsis_gcc.h ****   \brief   Enable IRQ Interrupts
 126:Drivers/CMSIS/Include/cmsis_gcc.h ****   \details Enables IRQ interrupts by clearing the I-bit in the CPSR.
 127:Drivers/CMSIS/Include/cmsis_gcc.h ****            Can only be executed in Privileged modes.
 128:Drivers/CMSIS/Include/cmsis_gcc.h ****  */
 129:Drivers/CMSIS/Include/cmsis_gcc.h **** __STATIC_FORCEINLINE void __enable_irq(void)
 130:Drivers/CMSIS/Include/cmsis_gcc.h **** {
 131:Drivers/CMSIS/Include/cmsis_gcc.h ****   __ASM volatile ("cpsie i" : : : "memory");
 132:Drivers/CMSIS/Include/cmsis_gcc.h **** }
 133:Drivers/CMSIS/Include/cmsis_gcc.h **** 
 134:Drivers/CMSIS/Include/cmsis_gcc.h **** 
 135:Drivers/CMSIS/Include/cmsis_gcc.h **** /**
 136:Drivers/CMSIS/Include/cmsis_gcc.h ****   \brief   Disable IRQ Interrupts
 137:Drivers/CMSIS/Include/cmsis_gcc.h ****   \details Disables IRQ interrupts by setting the I-bit in the CPSR.
 138:Drivers/CMSIS/Include/cmsis_gcc.h ****            Can only be executed in Privileged modes.
 139:Drivers/CMSIS/Include/cmsis_gcc.h ****  */
 140:Drivers/CMSIS/Include/cmsis_gcc.h **** __STATIC_FORCEINLINE void __disable_irq(void)
 772              		.loc 6 140 27 view .LVU158
 773              	.LBB100:
 141:Drivers/CMSIS/Include/cmsis_gcc.h **** {
 142:Drivers/CMSIS/Include/cmsis_gcc.h ****   __ASM volatile ("cpsid i" : : : "memory");
 774              		.loc 6 142 3 view .LVU159
 775              		.syntax unified
 776              	@ 142 "Drivers/CMSIS/Include/cmsis_gcc.h" 1
 777 0000 72B6     		cpsid i
 778              	@ 0 "" 2
ARM GAS  /tmp/cc3dJOKu.s 			page 30


 779              		.thumb
 780              		.syntax unified
 781              	.L30:
 782              	.LBE100:
 783              	.LBE99:
 535:Core/Src/main.cpp ****   {
 784              		.loc 1 535 3 view .LVU160
 535:Core/Src/main.cpp ****   {
 785              		.loc 1 535 3 view .LVU161
 786 0002 FEE7     		b	.L30
 787              		.cfi_endproc
 788              	.LFE627:
 789              		.cantunwind
 790              		.fnend
 792              		.section	.text._ZL12MX_I2C1_Initv,"ax",%progbits
 793              		.align	1
 794              		.syntax unified
 795              		.thumb
 796              		.thumb_func
 798              	_ZL12MX_I2C1_Initv:
 799              		.fnstart
 800              	.LFB617:
 202:Core/Src/main.cpp **** 
 801              		.loc 1 202 1 view -0
 802              		.cfi_startproc
 803              		@ args = 0, pretend = 0, frame = 0
 804              		@ frame_needed = 0, uses_anonymous_args = 0
 805 0000 08B5     		push	{r3, lr}
 806              		.save {r3, lr}
 807              		.cfi_def_cfa_offset 8
 808              		.cfi_offset 3, -8
 809              		.cfi_offset 14, -4
 211:Core/Src/main.cpp ****   hi2c1.Init.ClockSpeed = 100000;
 810              		.loc 1 211 3 view .LVU163
 211:Core/Src/main.cpp ****   hi2c1.Init.ClockSpeed = 100000;
 811              		.loc 1 211 18 is_stmt 0 view .LVU164
 812 0002 0A48     		ldr	r0, .L35
 813 0004 0A4B     		ldr	r3, .L35+4
 814 0006 0360     		str	r3, [r0]
 212:Core/Src/main.cpp ****   hi2c1.Init.DutyCycle = I2C_DUTYCYCLE_2;
 815              		.loc 1 212 3 is_stmt 1 view .LVU165
 212:Core/Src/main.cpp ****   hi2c1.Init.DutyCycle = I2C_DUTYCYCLE_2;
 816              		.loc 1 212 25 is_stmt 0 view .LVU166
 817 0008 0A4B     		ldr	r3, .L35+8
 818 000a 4360     		str	r3, [r0, #4]
 213:Core/Src/main.cpp ****   hi2c1.Init.OwnAddress1 = 0;
 819              		.loc 1 213 3 is_stmt 1 view .LVU167
 213:Core/Src/main.cpp ****   hi2c1.Init.OwnAddress1 = 0;
 820              		.loc 1 213 24 is_stmt 0 view .LVU168
 821 000c 0023     		movs	r3, #0
 822 000e 8360     		str	r3, [r0, #8]
 214:Core/Src/main.cpp ****   hi2c1.Init.AddressingMode = I2C_ADDRESSINGMODE_7BIT;
 823              		.loc 1 214 3 is_stmt 1 view .LVU169
 214:Core/Src/main.cpp ****   hi2c1.Init.AddressingMode = I2C_ADDRESSINGMODE_7BIT;
 824              		.loc 1 214 26 is_stmt 0 view .LVU170
 825 0010 C360     		str	r3, [r0, #12]
 215:Core/Src/main.cpp ****   hi2c1.Init.DualAddressMode = I2C_DUALADDRESS_DISABLE;
ARM GAS  /tmp/cc3dJOKu.s 			page 31


 826              		.loc 1 215 3 is_stmt 1 view .LVU171
 215:Core/Src/main.cpp ****   hi2c1.Init.DualAddressMode = I2C_DUALADDRESS_DISABLE;
 827              		.loc 1 215 29 is_stmt 0 view .LVU172
 828 0012 4FF48042 		mov	r2, #16384
 829 0016 0261     		str	r2, [r0, #16]
 216:Core/Src/main.cpp ****   hi2c1.Init.OwnAddress2 = 0;
 830              		.loc 1 216 3 is_stmt 1 view .LVU173
 216:Core/Src/main.cpp ****   hi2c1.Init.OwnAddress2 = 0;
 831              		.loc 1 216 30 is_stmt 0 view .LVU174
 832 0018 4361     		str	r3, [r0, #20]
 217:Core/Src/main.cpp ****   hi2c1.Init.GeneralCallMode = I2C_GENERALCALL_DISABLE;
 833              		.loc 1 217 3 is_stmt 1 view .LVU175
 217:Core/Src/main.cpp ****   hi2c1.Init.GeneralCallMode = I2C_GENERALCALL_DISABLE;
 834              		.loc 1 217 26 is_stmt 0 view .LVU176
 835 001a 8361     		str	r3, [r0, #24]
 218:Core/Src/main.cpp ****   hi2c1.Init.NoStretchMode = I2C_NOSTRETCH_DISABLE;
 836              		.loc 1 218 3 is_stmt 1 view .LVU177
 218:Core/Src/main.cpp ****   hi2c1.Init.NoStretchMode = I2C_NOSTRETCH_DISABLE;
 837              		.loc 1 218 30 is_stmt 0 view .LVU178
 838 001c C361     		str	r3, [r0, #28]
 219:Core/Src/main.cpp ****   if (HAL_I2C_Init(&hi2c1) != HAL_OK)
 839              		.loc 1 219 3 is_stmt 1 view .LVU179
 219:Core/Src/main.cpp ****   if (HAL_I2C_Init(&hi2c1) != HAL_OK)
 840              		.loc 1 219 28 is_stmt 0 view .LVU180
 841 001e 0362     		str	r3, [r0, #32]
 220:Core/Src/main.cpp ****   {
 842              		.loc 1 220 3 is_stmt 1 view .LVU181
 220:Core/Src/main.cpp ****   {
 843              		.loc 1 220 19 is_stmt 0 view .LVU182
 844 0020 FFF7FEFF 		bl	HAL_I2C_Init
 845              	.LVL31:
 220:Core/Src/main.cpp ****   {
 846              		.loc 1 220 3 discriminator 1 view .LVU183
 847 0024 00B9     		cbnz	r0, .L34
 228:Core/Src/main.cpp **** 
 848              		.loc 1 228 1 view .LVU184
 849 0026 08BD     		pop	{r3, pc}
 850              	.L34:
 222:Core/Src/main.cpp ****   }
 851              		.loc 1 222 5 is_stmt 1 view .LVU185
 222:Core/Src/main.cpp ****   }
 852              		.loc 1 222 18 is_stmt 0 view .LVU186
 853 0028 FFF7FEFF 		bl	Error_Handler
 854              	.LVL32:
 855              	.L36:
 856              		.align	2
 857              	.L35:
 858 002c 00000000 		.word	hi2c1
 859 0030 00540040 		.word	1073763328
 860 0034 A0860100 		.word	100000
 861              		.cfi_endproc
 862              	.LFE617:
 863              		.fnend
 865              		.section	.text._ZL12MX_I2S2_Initv,"ax",%progbits
 866              		.align	1
 867              		.syntax unified
 868              		.thumb
ARM GAS  /tmp/cc3dJOKu.s 			page 32


 869              		.thumb_func
 871              	_ZL12MX_I2S2_Initv:
 872              		.fnstart
 873              	.LFB618:
 236:Core/Src/main.cpp **** 
 874              		.loc 1 236 1 is_stmt 1 view -0
 875              		.cfi_startproc
 876              		@ args = 0, pretend = 0, frame = 0
 877              		@ frame_needed = 0, uses_anonymous_args = 0
 878 0000 08B5     		push	{r3, lr}
 879              		.save {r3, lr}
 880              		.cfi_def_cfa_offset 8
 881              		.cfi_offset 3, -8
 882              		.cfi_offset 14, -4
 245:Core/Src/main.cpp ****   hi2s2.Init.Mode = I2S_MODE_MASTER_TX;
 883              		.loc 1 245 3 view .LVU188
 245:Core/Src/main.cpp ****   hi2s2.Init.Mode = I2S_MODE_MASTER_TX;
 884              		.loc 1 245 18 is_stmt 0 view .LVU189
 885 0002 0B48     		ldr	r0, .L41
 886 0004 0B4B     		ldr	r3, .L41+4
 887 0006 0360     		str	r3, [r0]
 246:Core/Src/main.cpp ****   hi2s2.Init.Standard = I2S_STANDARD_MSB;
 888              		.loc 1 246 3 is_stmt 1 view .LVU190
 246:Core/Src/main.cpp ****   hi2s2.Init.Standard = I2S_STANDARD_MSB;
 889              		.loc 1 246 19 is_stmt 0 view .LVU191
 890 0008 4FF40073 		mov	r3, #512
 891 000c 4360     		str	r3, [r0, #4]
 247:Core/Src/main.cpp ****   hi2s2.Init.DataFormat = I2S_DATAFORMAT_32B;
 892              		.loc 1 247 3 is_stmt 1 view .LVU192
 247:Core/Src/main.cpp ****   hi2s2.Init.DataFormat = I2S_DATAFORMAT_32B;
 893              		.loc 1 247 23 is_stmt 0 view .LVU193
 894 000e 1023     		movs	r3, #16
 895 0010 8360     		str	r3, [r0, #8]
 248:Core/Src/main.cpp ****   hi2s2.Init.MCLKOutput = I2S_MCLKOUTPUT_DISABLE;
 896              		.loc 1 248 3 is_stmt 1 view .LVU194
 248:Core/Src/main.cpp ****   hi2s2.Init.MCLKOutput = I2S_MCLKOUTPUT_DISABLE;
 897              		.loc 1 248 25 is_stmt 0 view .LVU195
 898 0012 0523     		movs	r3, #5
 899 0014 C360     		str	r3, [r0, #12]
 249:Core/Src/main.cpp ****   hi2s2.Init.AudioFreq = I2S_AUDIOFREQ_96K;
 900              		.loc 1 249 3 is_stmt 1 view .LVU196
 249:Core/Src/main.cpp ****   hi2s2.Init.AudioFreq = I2S_AUDIOFREQ_96K;
 901              		.loc 1 249 25 is_stmt 0 view .LVU197
 902 0016 0023     		movs	r3, #0
 903 0018 0361     		str	r3, [r0, #16]
 250:Core/Src/main.cpp ****   hi2s2.Init.CPOL = I2S_CPOL_LOW;
 904              		.loc 1 250 3 is_stmt 1 view .LVU198
 250:Core/Src/main.cpp ****   hi2s2.Init.CPOL = I2S_CPOL_LOW;
 905              		.loc 1 250 24 is_stmt 0 view .LVU199
 906 001a 074A     		ldr	r2, .L41+8
 907 001c 4261     		str	r2, [r0, #20]
 251:Core/Src/main.cpp ****   hi2s2.Init.ClockSource = I2S_CLOCK_PLL;
 908              		.loc 1 251 3 is_stmt 1 view .LVU200
 251:Core/Src/main.cpp ****   hi2s2.Init.ClockSource = I2S_CLOCK_PLL;
 909              		.loc 1 251 19 is_stmt 0 view .LVU201
 910 001e 8361     		str	r3, [r0, #24]
 252:Core/Src/main.cpp ****   hi2s2.Init.FullDuplexMode = I2S_FULLDUPLEXMODE_DISABLE;
ARM GAS  /tmp/cc3dJOKu.s 			page 33


 911              		.loc 1 252 3 is_stmt 1 view .LVU202
 252:Core/Src/main.cpp ****   hi2s2.Init.FullDuplexMode = I2S_FULLDUPLEXMODE_DISABLE;
 912              		.loc 1 252 26 is_stmt 0 view .LVU203
 913 0020 C361     		str	r3, [r0, #28]
 253:Core/Src/main.cpp ****   if (HAL_I2S_Init(&hi2s2) != HAL_OK)
 914              		.loc 1 253 3 is_stmt 1 view .LVU204
 253:Core/Src/main.cpp ****   if (HAL_I2S_Init(&hi2s2) != HAL_OK)
 915              		.loc 1 253 29 is_stmt 0 view .LVU205
 916 0022 0362     		str	r3, [r0, #32]
 254:Core/Src/main.cpp ****   {
 917              		.loc 1 254 3 is_stmt 1 view .LVU206
 254:Core/Src/main.cpp ****   {
 918              		.loc 1 254 19 is_stmt 0 view .LVU207
 919 0024 FFF7FEFF 		bl	HAL_I2S_Init
 920              	.LVL33:
 254:Core/Src/main.cpp ****   {
 921              		.loc 1 254 3 discriminator 1 view .LVU208
 922 0028 00B9     		cbnz	r0, .L40
 262:Core/Src/main.cpp **** 
 923              		.loc 1 262 1 view .LVU209
 924 002a 08BD     		pop	{r3, pc}
 925              	.L40:
 256:Core/Src/main.cpp ****   }
 926              		.loc 1 256 5 is_stmt 1 view .LVU210
 256:Core/Src/main.cpp ****   }
 927              		.loc 1 256 18 is_stmt 0 view .LVU211
 928 002c FFF7FEFF 		bl	Error_Handler
 929              	.LVL34:
 930              	.L42:
 931              		.align	2
 932              	.L41:
 933 0030 00000000 		.word	hi2s2
 934 0034 00380040 		.word	1073756160
 935 0038 00770100 		.word	96000
 936              		.cfi_endproc
 937              	.LFE618:
 938              		.fnend
 940              		.section	.text._ZL12MX_SPI1_Initv,"ax",%progbits
 941              		.align	1
 942              		.syntax unified
 943              		.thumb
 944              		.thumb_func
 946              	_ZL12MX_SPI1_Initv:
 947              		.fnstart
 948              	.LFB620:
 370:Core/Src/main.cpp **** 
 949              		.loc 1 370 1 is_stmt 1 view -0
 950              		.cfi_startproc
 951              		@ args = 0, pretend = 0, frame = 0
 952              		@ frame_needed = 0, uses_anonymous_args = 0
 953 0000 08B5     		push	{r3, lr}
 954              		.save {r3, lr}
 955              		.cfi_def_cfa_offset 8
 956              		.cfi_offset 3, -8
 957              		.cfi_offset 14, -4
 380:Core/Src/main.cpp ****   hspi1.Init.Mode = SPI_MODE_MASTER;
 958              		.loc 1 380 3 view .LVU213
ARM GAS  /tmp/cc3dJOKu.s 			page 34


 380:Core/Src/main.cpp ****   hspi1.Init.Mode = SPI_MODE_MASTER;
 959              		.loc 1 380 18 is_stmt 0 view .LVU214
 960 0002 0D48     		ldr	r0, .L47
 961 0004 0D4B     		ldr	r3, .L47+4
 962 0006 0360     		str	r3, [r0]
 381:Core/Src/main.cpp ****   hspi1.Init.Direction = SPI_DIRECTION_2LINES;
 963              		.loc 1 381 3 is_stmt 1 view .LVU215
 381:Core/Src/main.cpp ****   hspi1.Init.Direction = SPI_DIRECTION_2LINES;
 964              		.loc 1 381 19 is_stmt 0 view .LVU216
 965 0008 4FF48273 		mov	r3, #260
 966 000c 4360     		str	r3, [r0, #4]
 382:Core/Src/main.cpp ****   hspi1.Init.DataSize = SPI_DATASIZE_8BIT;
 967              		.loc 1 382 3 is_stmt 1 view .LVU217
 382:Core/Src/main.cpp ****   hspi1.Init.DataSize = SPI_DATASIZE_8BIT;
 968              		.loc 1 382 24 is_stmt 0 view .LVU218
 969 000e 0023     		movs	r3, #0
 970 0010 8360     		str	r3, [r0, #8]
 383:Core/Src/main.cpp ****   hspi1.Init.CLKPolarity = SPI_POLARITY_LOW;
 971              		.loc 1 383 3 is_stmt 1 view .LVU219
 383:Core/Src/main.cpp ****   hspi1.Init.CLKPolarity = SPI_POLARITY_LOW;
 972              		.loc 1 383 23 is_stmt 0 view .LVU220
 973 0012 C360     		str	r3, [r0, #12]
 384:Core/Src/main.cpp ****   hspi1.Init.CLKPhase = SPI_PHASE_1EDGE;
 974              		.loc 1 384 3 is_stmt 1 view .LVU221
 384:Core/Src/main.cpp ****   hspi1.Init.CLKPhase = SPI_PHASE_1EDGE;
 975              		.loc 1 384 26 is_stmt 0 view .LVU222
 976 0014 0361     		str	r3, [r0, #16]
 385:Core/Src/main.cpp ****   hspi1.Init.NSS = SPI_NSS_SOFT;
 977              		.loc 1 385 3 is_stmt 1 view .LVU223
 385:Core/Src/main.cpp ****   hspi1.Init.NSS = SPI_NSS_SOFT;
 978              		.loc 1 385 23 is_stmt 0 view .LVU224
 979 0016 4361     		str	r3, [r0, #20]
 386:Core/Src/main.cpp ****   hspi1.Init.BaudRatePrescaler = SPI_BAUDRATEPRESCALER_2;
 980              		.loc 1 386 3 is_stmt 1 view .LVU225
 386:Core/Src/main.cpp ****   hspi1.Init.BaudRatePrescaler = SPI_BAUDRATEPRESCALER_2;
 981              		.loc 1 386 18 is_stmt 0 view .LVU226
 982 0018 4FF40072 		mov	r2, #512
 983 001c 8261     		str	r2, [r0, #24]
 387:Core/Src/main.cpp ****   hspi1.Init.FirstBit = SPI_FIRSTBIT_MSB;
 984              		.loc 1 387 3 is_stmt 1 view .LVU227
 387:Core/Src/main.cpp ****   hspi1.Init.FirstBit = SPI_FIRSTBIT_MSB;
 985              		.loc 1 387 32 is_stmt 0 view .LVU228
 986 001e C361     		str	r3, [r0, #28]
 388:Core/Src/main.cpp ****   hspi1.Init.TIMode = SPI_TIMODE_DISABLE;
 987              		.loc 1 388 3 is_stmt 1 view .LVU229
 388:Core/Src/main.cpp ****   hspi1.Init.TIMode = SPI_TIMODE_DISABLE;
 988              		.loc 1 388 23 is_stmt 0 view .LVU230
 989 0020 0362     		str	r3, [r0, #32]
 389:Core/Src/main.cpp ****   hspi1.Init.CRCCalculation = SPI_CRCCALCULATION_DISABLE;
 990              		.loc 1 389 3 is_stmt 1 view .LVU231
 389:Core/Src/main.cpp ****   hspi1.Init.CRCCalculation = SPI_CRCCALCULATION_DISABLE;
 991              		.loc 1 389 21 is_stmt 0 view .LVU232
 992 0022 4362     		str	r3, [r0, #36]
 390:Core/Src/main.cpp ****   hspi1.Init.CRCPolynomial = 10;
 993              		.loc 1 390 3 is_stmt 1 view .LVU233
 390:Core/Src/main.cpp ****   hspi1.Init.CRCPolynomial = 10;
 994              		.loc 1 390 29 is_stmt 0 view .LVU234
ARM GAS  /tmp/cc3dJOKu.s 			page 35


 995 0024 8362     		str	r3, [r0, #40]
 391:Core/Src/main.cpp ****   if (HAL_SPI_Init(&hspi1) != HAL_OK)
 996              		.loc 1 391 3 is_stmt 1 view .LVU235
 391:Core/Src/main.cpp ****   if (HAL_SPI_Init(&hspi1) != HAL_OK)
 997              		.loc 1 391 28 is_stmt 0 view .LVU236
 998 0026 0A23     		movs	r3, #10
 999 0028 C362     		str	r3, [r0, #44]
 392:Core/Src/main.cpp ****   {
 1000              		.loc 1 392 3 is_stmt 1 view .LVU237
 392:Core/Src/main.cpp ****   {
 1001              		.loc 1 392 19 is_stmt 0 view .LVU238
 1002 002a FFF7FEFF 		bl	HAL_SPI_Init
 1003              	.LVL35:
 392:Core/Src/main.cpp ****   {
 1004              		.loc 1 392 3 discriminator 1 view .LVU239
 1005 002e 00B9     		cbnz	r0, .L46
 400:Core/Src/main.cpp **** 
 1006              		.loc 1 400 1 view .LVU240
 1007 0030 08BD     		pop	{r3, pc}
 1008              	.L46:
 394:Core/Src/main.cpp ****   }
 1009              		.loc 1 394 5 is_stmt 1 view .LVU241
 394:Core/Src/main.cpp ****   }
 1010              		.loc 1 394 18 is_stmt 0 view .LVU242
 1011 0032 FFF7FEFF 		bl	Error_Handler
 1012              	.LVL36:
 1013              	.L48:
 1014 0036 00BF     		.align	2
 1015              	.L47:
 1016 0038 00000000 		.word	hspi1
 1017 003c 00300140 		.word	1073819648
 1018              		.cfi_endproc
 1019              	.LFE620:
 1020              		.fnend
 1022              		.section	.text._ZL19MX_USART1_UART_Initv,"ax",%progbits
 1023              		.align	1
 1024              		.syntax unified
 1025              		.thumb
 1026              		.thumb_func
 1028              	_ZL19MX_USART1_UART_Initv:
 1029              		.fnstart
 1030              	.LFB621:
 408:Core/Src/main.cpp **** 
 1031              		.loc 1 408 1 is_stmt 1 view -0
 1032              		.cfi_startproc
 1033              		@ args = 0, pretend = 0, frame = 0
 1034              		@ frame_needed = 0, uses_anonymous_args = 0
 1035 0000 08B5     		push	{r3, lr}
 1036              		.save {r3, lr}
 1037              		.cfi_def_cfa_offset 8
 1038              		.cfi_offset 3, -8
 1039              		.cfi_offset 14, -4
 417:Core/Src/main.cpp ****   huart1.Init.BaudRate = 115200;
 1040              		.loc 1 417 3 view .LVU244
 417:Core/Src/main.cpp ****   huart1.Init.BaudRate = 115200;
 1041              		.loc 1 417 19 is_stmt 0 view .LVU245
 1042 0002 0B48     		ldr	r0, .L53
ARM GAS  /tmp/cc3dJOKu.s 			page 36


 1043 0004 0B4B     		ldr	r3, .L53+4
 1044 0006 0360     		str	r3, [r0]
 418:Core/Src/main.cpp ****   huart1.Init.WordLength = UART_WORDLENGTH_8B;
 1045              		.loc 1 418 3 is_stmt 1 view .LVU246
 418:Core/Src/main.cpp ****   huart1.Init.WordLength = UART_WORDLENGTH_8B;
 1046              		.loc 1 418 24 is_stmt 0 view .LVU247
 1047 0008 4FF4E133 		mov	r3, #115200
 1048 000c 4360     		str	r3, [r0, #4]
 419:Core/Src/main.cpp ****   huart1.Init.StopBits = UART_STOPBITS_1;
 1049              		.loc 1 419 3 is_stmt 1 view .LVU248
 419:Core/Src/main.cpp ****   huart1.Init.StopBits = UART_STOPBITS_1;
 1050              		.loc 1 419 26 is_stmt 0 view .LVU249
 1051 000e 0023     		movs	r3, #0
 1052 0010 8360     		str	r3, [r0, #8]
 420:Core/Src/main.cpp ****   huart1.Init.Parity = UART_PARITY_NONE;
 1053              		.loc 1 420 3 is_stmt 1 view .LVU250
 420:Core/Src/main.cpp ****   huart1.Init.Parity = UART_PARITY_NONE;
 1054              		.loc 1 420 24 is_stmt 0 view .LVU251
 1055 0012 C360     		str	r3, [r0, #12]
 421:Core/Src/main.cpp ****   huart1.Init.Mode = UART_MODE_TX_RX;
 1056              		.loc 1 421 3 is_stmt 1 view .LVU252
 421:Core/Src/main.cpp ****   huart1.Init.Mode = UART_MODE_TX_RX;
 1057              		.loc 1 421 22 is_stmt 0 view .LVU253
 1058 0014 0361     		str	r3, [r0, #16]
 422:Core/Src/main.cpp ****   huart1.Init.HwFlowCtl = UART_HWCONTROL_RTS_CTS;
 1059              		.loc 1 422 3 is_stmt 1 view .LVU254
 422:Core/Src/main.cpp ****   huart1.Init.HwFlowCtl = UART_HWCONTROL_RTS_CTS;
 1060              		.loc 1 422 20 is_stmt 0 view .LVU255
 1061 0016 0C22     		movs	r2, #12
 1062 0018 4261     		str	r2, [r0, #20]
 423:Core/Src/main.cpp ****   huart1.Init.OverSampling = UART_OVERSAMPLING_16;
 1063              		.loc 1 423 3 is_stmt 1 view .LVU256
 423:Core/Src/main.cpp ****   huart1.Init.OverSampling = UART_OVERSAMPLING_16;
 1064              		.loc 1 423 25 is_stmt 0 view .LVU257
 1065 001a 4FF44072 		mov	r2, #768
 1066 001e 8261     		str	r2, [r0, #24]
 424:Core/Src/main.cpp ****   if (HAL_UART_Init(&huart1) != HAL_OK)
 1067              		.loc 1 424 3 is_stmt 1 view .LVU258
 424:Core/Src/main.cpp ****   if (HAL_UART_Init(&huart1) != HAL_OK)
 1068              		.loc 1 424 28 is_stmt 0 view .LVU259
 1069 0020 C361     		str	r3, [r0, #28]
 425:Core/Src/main.cpp ****   {
 1070              		.loc 1 425 3 is_stmt 1 view .LVU260
 425:Core/Src/main.cpp ****   {
 1071              		.loc 1 425 20 is_stmt 0 view .LVU261
 1072 0022 FFF7FEFF 		bl	HAL_UART_Init
 1073              	.LVL37:
 425:Core/Src/main.cpp ****   {
 1074              		.loc 1 425 3 discriminator 1 view .LVU262
 1075 0026 00B9     		cbnz	r0, .L52
 433:Core/Src/main.cpp **** 
 1076              		.loc 1 433 1 view .LVU263
 1077 0028 08BD     		pop	{r3, pc}
 1078              	.L52:
 427:Core/Src/main.cpp ****   }
 1079              		.loc 1 427 5 is_stmt 1 view .LVU264
 427:Core/Src/main.cpp ****   }
ARM GAS  /tmp/cc3dJOKu.s 			page 37


 1080              		.loc 1 427 18 is_stmt 0 view .LVU265
 1081 002a FFF7FEFF 		bl	Error_Handler
 1082              	.LVL38:
 1083              	.L54:
 1084 002e 00BF     		.align	2
 1085              	.L53:
 1086 0030 00000000 		.word	huart1
 1087 0034 00100140 		.word	1073811456
 1088              		.cfi_endproc
 1089              	.LFE621:
 1090              		.fnend
 1092              		.section	.text._ZL11MX_RTC_Initv,"ax",%progbits
 1093              		.align	1
 1094              		.syntax unified
 1095              		.thumb
 1096              		.thumb_func
 1098              	_ZL11MX_RTC_Initv:
 1099              		.fnstart
 1100              	.LFB619:
 270:Core/Src/main.cpp **** 
 1101              		.loc 1 270 1 is_stmt 1 view -0
 1102              		.cfi_startproc
 1103              		@ args = 0, pretend = 0, frame = 64
 1104              		@ frame_needed = 0, uses_anonymous_args = 0
 1105 0000 10B5     		push	{r4, lr}
 1106              		.save {r4, lr}
 1107              		.cfi_def_cfa_offset 8
 1108              		.cfi_offset 4, -8
 1109              		.cfi_offset 14, -4
 1110              		.pad #64
 1111 0002 90B0     		sub	sp, sp, #64
 1112              		.cfi_def_cfa_offset 72
 273:Core/Src/main.cpp ****   /* USER CODE END RTC_Init 0 */
 1113              		.loc 1 273 3 view .LVU267
 276:Core/Src/main.cpp ****   RTC_DateTypeDef sDate = {0};
 1114              		.loc 1 276 3 view .LVU268
 276:Core/Src/main.cpp ****   RTC_DateTypeDef sDate = {0};
 1115              		.loc 1 276 19 is_stmt 0 view .LVU269
 1116 0004 0024     		movs	r4, #0
 1117 0006 0B94     		str	r4, [sp, #44]
 1118 0008 0C94     		str	r4, [sp, #48]
 1119 000a 0D94     		str	r4, [sp, #52]
 1120 000c 0E94     		str	r4, [sp, #56]
 1121 000e 0F94     		str	r4, [sp, #60]
 277:Core/Src/main.cpp ****   RTC_AlarmTypeDef sAlarm = {0};
 1122              		.loc 1 277 3 is_stmt 1 view .LVU270
 277:Core/Src/main.cpp ****   RTC_AlarmTypeDef sAlarm = {0};
 1123              		.loc 1 277 19 is_stmt 0 view .LVU271
 1124 0010 0A94     		str	r4, [sp, #40]
 278:Core/Src/main.cpp **** 
 1125              		.loc 1 278 3 is_stmt 1 view .LVU272
 278:Core/Src/main.cpp **** 
 1126              		.loc 1 278 20 is_stmt 0 view .LVU273
 1127 0012 2822     		movs	r2, #40
 1128 0014 2146     		mov	r1, r4
 1129 0016 6846     		mov	r0, sp
 1130 0018 FFF7FEFF 		bl	memset
ARM GAS  /tmp/cc3dJOKu.s 			page 38


 1131              	.LVL39:
 286:Core/Src/main.cpp ****   hrtc.Init.HourFormat = RTC_HOURFORMAT_24;
 1132              		.loc 1 286 3 is_stmt 1 view .LVU274
 286:Core/Src/main.cpp ****   hrtc.Init.HourFormat = RTC_HOURFORMAT_24;
 1133              		.loc 1 286 17 is_stmt 0 view .LVU275
 1134 001c 3848     		ldr	r0, .L67
 1135 001e 394B     		ldr	r3, .L67+4
 1136 0020 0360     		str	r3, [r0]
 287:Core/Src/main.cpp ****   hrtc.Init.AsynchPrediv = 127;
 1137              		.loc 1 287 3 is_stmt 1 view .LVU276
 287:Core/Src/main.cpp ****   hrtc.Init.AsynchPrediv = 127;
 1138              		.loc 1 287 24 is_stmt 0 view .LVU277
 1139 0022 4460     		str	r4, [r0, #4]
 288:Core/Src/main.cpp ****   hrtc.Init.SynchPrediv = 255;
 1140              		.loc 1 288 3 is_stmt 1 view .LVU278
 288:Core/Src/main.cpp ****   hrtc.Init.SynchPrediv = 255;
 1141              		.loc 1 288 26 is_stmt 0 view .LVU279
 1142 0024 7F23     		movs	r3, #127
 1143 0026 8360     		str	r3, [r0, #8]
 289:Core/Src/main.cpp ****   hrtc.Init.OutPut = RTC_OUTPUT_ALARMA;
 1144              		.loc 1 289 3 is_stmt 1 view .LVU280
 289:Core/Src/main.cpp ****   hrtc.Init.OutPut = RTC_OUTPUT_ALARMA;
 1145              		.loc 1 289 25 is_stmt 0 view .LVU281
 1146 0028 FF23     		movs	r3, #255
 1147 002a C360     		str	r3, [r0, #12]
 290:Core/Src/main.cpp ****   hrtc.Init.OutPutPolarity = RTC_OUTPUT_POLARITY_LOW;
 1148              		.loc 1 290 3 is_stmt 1 view .LVU282
 290:Core/Src/main.cpp ****   hrtc.Init.OutPutPolarity = RTC_OUTPUT_POLARITY_LOW;
 1149              		.loc 1 290 20 is_stmt 0 view .LVU283
 1150 002c 4FF40013 		mov	r3, #2097152
 1151 0030 0361     		str	r3, [r0, #16]
 291:Core/Src/main.cpp ****   hrtc.Init.OutPutType = RTC_OUTPUT_TYPE_PUSHPULL;
 1152              		.loc 1 291 3 is_stmt 1 view .LVU284
 291:Core/Src/main.cpp ****   hrtc.Init.OutPutType = RTC_OUTPUT_TYPE_PUSHPULL;
 1153              		.loc 1 291 28 is_stmt 0 view .LVU285
 1154 0032 4FF48013 		mov	r3, #1048576
 1155 0036 4361     		str	r3, [r0, #20]
 292:Core/Src/main.cpp ****   if (HAL_RTC_Init(&hrtc) != HAL_OK)
 1156              		.loc 1 292 3 is_stmt 1 view .LVU286
 292:Core/Src/main.cpp ****   if (HAL_RTC_Init(&hrtc) != HAL_OK)
 1157              		.loc 1 292 24 is_stmt 0 view .LVU287
 1158 0038 4FF48023 		mov	r3, #262144
 1159 003c 8361     		str	r3, [r0, #24]
 293:Core/Src/main.cpp ****   {
 1160              		.loc 1 293 3 is_stmt 1 view .LVU288
 293:Core/Src/main.cpp ****   {
 1161              		.loc 1 293 19 is_stmt 0 view .LVU289
 1162 003e FFF7FEFF 		bl	HAL_RTC_Init
 1163              	.LVL40:
 293:Core/Src/main.cpp ****   {
 1164              		.loc 1 293 3 discriminator 1 view .LVU290
 1165 0042 0028     		cmp	r0, #0
 1166 0044 53D1     		bne	.L63
 302:Core/Src/main.cpp ****   
 1167              		.loc 1 302 3 is_stmt 1 view .LVU291
 302:Core/Src/main.cpp ****   
 1168              		.loc 1 302 35 is_stmt 0 view .LVU292
ARM GAS  /tmp/cc3dJOKu.s 			page 39


 1169 0046 0A21     		movs	r1, #10
 1170 0048 2D48     		ldr	r0, .L67
 1171 004a FFF7FEFF 		bl	HAL_RTCEx_BKUPRead
 1172              	.LVL41:
 306:Core/Src/main.cpp ****     return;
 1173              		.loc 1 306 3 is_stmt 1 view .LVU293
 1174 004e 2E4B     		ldr	r3, .L67+8
 1175 0050 9842     		cmp	r0, r3
 1176 0052 4AD0     		beq	.L55
 314:Core/Src/main.cpp ****   sTime.Minutes = RTC_MINUTE;
 1177              		.loc 1 314 3 view .LVU294
 314:Core/Src/main.cpp ****   sTime.Minutes = RTC_MINUTE;
 1178              		.loc 1 314 15 is_stmt 0 view .LVU295
 1179 0054 0923     		movs	r3, #9
 1180 0056 8DF82C30 		strb	r3, [sp, #44]
 315:Core/Src/main.cpp ****   sTime.Seconds = RTC_SECOND;
 1181              		.loc 1 315 3 is_stmt 1 view .LVU296
 315:Core/Src/main.cpp ****   sTime.Seconds = RTC_SECOND;
 1182              		.loc 1 315 17 is_stmt 0 view .LVU297
 1183 005a 0523     		movs	r3, #5
 1184 005c 8DF82D30 		strb	r3, [sp, #45]
 316:Core/Src/main.cpp ****   sTime.DayLightSaving = RTC_DAYLIGHTSAVING_NONE;
 1185              		.loc 1 316 3 is_stmt 1 view .LVU298
 316:Core/Src/main.cpp ****   sTime.DayLightSaving = RTC_DAYLIGHTSAVING_NONE;
 1186              		.loc 1 316 17 is_stmt 0 view .LVU299
 1187 0060 1323     		movs	r3, #19
 1188 0062 8DF82E30 		strb	r3, [sp, #46]
 317:Core/Src/main.cpp ****   sTime.StoreOperation = RTC_STOREOPERATION_RESET;
 1189              		.loc 1 317 3 is_stmt 1 view .LVU300
 317:Core/Src/main.cpp ****   sTime.StoreOperation = RTC_STOREOPERATION_RESET;
 1190              		.loc 1 317 24 is_stmt 0 view .LVU301
 1191 0066 0023     		movs	r3, #0
 1192 0068 0E93     		str	r3, [sp, #56]
 318:Core/Src/main.cpp ****   if (HAL_RTC_SetTime(&hrtc, &sTime, RTC_FORMAT_BCD) != HAL_OK)
 1193              		.loc 1 318 3 is_stmt 1 view .LVU302
 318:Core/Src/main.cpp ****   if (HAL_RTC_SetTime(&hrtc, &sTime, RTC_FORMAT_BCD) != HAL_OK)
 1194              		.loc 1 318 24 is_stmt 0 view .LVU303
 1195 006a 0F93     		str	r3, [sp, #60]
 319:Core/Src/main.cpp ****   {
 1196              		.loc 1 319 3 is_stmt 1 view .LVU304
 319:Core/Src/main.cpp ****   {
 1197              		.loc 1 319 22 is_stmt 0 view .LVU305
 1198 006c 0122     		movs	r2, #1
 1199 006e 0BA9     		add	r1, sp, #44
 1200 0070 2348     		ldr	r0, .L67
 1201              	.LVL42:
 319:Core/Src/main.cpp ****   {
 1202              		.loc 1 319 22 view .LVU306
 1203 0072 FFF7FEFF 		bl	HAL_RTC_SetTime
 1204              	.LVL43:
 319:Core/Src/main.cpp ****   {
 1205              		.loc 1 319 3 discriminator 1 view .LVU307
 1206 0076 0028     		cmp	r0, #0
 1207 0078 3BD1     		bne	.L64
 323:Core/Src/main.cpp ****   sDate.Month = RTC_MONTH;
 1208              		.loc 1 323 3 is_stmt 1 view .LVU308
 323:Core/Src/main.cpp ****   sDate.Month = RTC_MONTH;
ARM GAS  /tmp/cc3dJOKu.s 			page 40


 1209              		.loc 1 323 17 is_stmt 0 view .LVU309
 1210 007a 0623     		movs	r3, #6
 1211 007c 8DF82830 		strb	r3, [sp, #40]
 324:Core/Src/main.cpp ****   sDate.Date = RTC_DAY;
 1212              		.loc 1 324 3 is_stmt 1 view .LVU310
 324:Core/Src/main.cpp ****   sDate.Date = RTC_DAY;
 1213              		.loc 1 324 15 is_stmt 0 view .LVU311
 1214 0080 0923     		movs	r3, #9
 1215 0082 8DF82930 		strb	r3, [sp, #41]
 325:Core/Src/main.cpp ****   sDate.Year = RTC_YEAR;
 1216              		.loc 1 325 3 is_stmt 1 view .LVU312
 325:Core/Src/main.cpp ****   sDate.Year = RTC_YEAR;
 1217              		.loc 1 325 14 is_stmt 0 view .LVU313
 1218 0086 0723     		movs	r3, #7
 1219 0088 8DF82A30 		strb	r3, [sp, #42]
 326:Core/Src/main.cpp **** 
 1220              		.loc 1 326 3 is_stmt 1 view .LVU314
 326:Core/Src/main.cpp **** 
 1221              		.loc 1 326 14 is_stmt 0 view .LVU315
 1222 008c 1823     		movs	r3, #24
 1223 008e 8DF82B30 		strb	r3, [sp, #43]
 328:Core/Src/main.cpp ****   {
 1224              		.loc 1 328 3 is_stmt 1 view .LVU316
 328:Core/Src/main.cpp ****   {
 1225              		.loc 1 328 22 is_stmt 0 view .LVU317
 1226 0092 0122     		movs	r2, #1
 1227 0094 0AA9     		add	r1, sp, #40
 1228 0096 1A48     		ldr	r0, .L67
 1229 0098 FFF7FEFF 		bl	HAL_RTC_SetDate
 1230              	.LVL44:
 328:Core/Src/main.cpp ****   {
 1231              		.loc 1 328 3 discriminator 1 view .LVU318
 1232 009c 58BB     		cbnz	r0, .L65
 335:Core/Src/main.cpp ****   sAlarm.AlarmTime.Minutes = 0x0;
 1233              		.loc 1 335 3 is_stmt 1 view .LVU319
 335:Core/Src/main.cpp ****   sAlarm.AlarmTime.Minutes = 0x0;
 1234              		.loc 1 335 26 is_stmt 0 view .LVU320
 1235 009e 0023     		movs	r3, #0
 1236 00a0 8DF80030 		strb	r3, [sp]
 336:Core/Src/main.cpp ****   sAlarm.AlarmTime.Seconds = 0x10;
 1237              		.loc 1 336 3 is_stmt 1 view .LVU321
 336:Core/Src/main.cpp ****   sAlarm.AlarmTime.Seconds = 0x10;
 1238              		.loc 1 336 28 is_stmt 0 view .LVU322
 1239 00a4 8DF80130 		strb	r3, [sp, #1]
 337:Core/Src/main.cpp ****   sAlarm.AlarmTime.SubSeconds = 0x0;
 1240              		.loc 1 337 3 is_stmt 1 view .LVU323
 337:Core/Src/main.cpp ****   sAlarm.AlarmTime.SubSeconds = 0x0;
 1241              		.loc 1 337 28 is_stmt 0 view .LVU324
 1242 00a8 1022     		movs	r2, #16
 1243 00aa 8DF80220 		strb	r2, [sp, #2]
 338:Core/Src/main.cpp ****   sAlarm.AlarmTime.DayLightSaving = RTC_DAYLIGHTSAVING_NONE;
 1244              		.loc 1 338 3 is_stmt 1 view .LVU325
 338:Core/Src/main.cpp ****   sAlarm.AlarmTime.DayLightSaving = RTC_DAYLIGHTSAVING_NONE;
 1245              		.loc 1 338 31 is_stmt 0 view .LVU326
 1246 00ae 0193     		str	r3, [sp, #4]
 339:Core/Src/main.cpp ****   sAlarm.AlarmTime.StoreOperation = RTC_STOREOPERATION_RESET;
 1247              		.loc 1 339 3 is_stmt 1 view .LVU327
ARM GAS  /tmp/cc3dJOKu.s 			page 41


 339:Core/Src/main.cpp ****   sAlarm.AlarmTime.StoreOperation = RTC_STOREOPERATION_RESET;
 1248              		.loc 1 339 35 is_stmt 0 view .LVU328
 1249 00b0 0393     		str	r3, [sp, #12]
 340:Core/Src/main.cpp ****   sAlarm.AlarmMask = RTC_ALARMMASK_DATEWEEKDAY|RTC_ALARMMASK_HOURS
 1250              		.loc 1 340 3 is_stmt 1 view .LVU329
 340:Core/Src/main.cpp ****   sAlarm.AlarmMask = RTC_ALARMMASK_DATEWEEKDAY|RTC_ALARMMASK_HOURS
 1251              		.loc 1 340 35 is_stmt 0 view .LVU330
 1252 00b2 0493     		str	r3, [sp, #16]
 341:Core/Src/main.cpp ****                               |RTC_ALARMMASK_MINUTES;
 1253              		.loc 1 341 3 is_stmt 1 view .LVU331
 341:Core/Src/main.cpp ****                               |RTC_ALARMMASK_MINUTES;
 1254              		.loc 1 341 20 is_stmt 0 view .LVU332
 1255 00b4 154A     		ldr	r2, .L67+12
 1256 00b6 0592     		str	r2, [sp, #20]
 343:Core/Src/main.cpp ****   sAlarm.AlarmDateWeekDaySel = RTC_ALARMDATEWEEKDAYSEL_DATE;
 1257              		.loc 1 343 3 is_stmt 1 view .LVU333
 343:Core/Src/main.cpp ****   sAlarm.AlarmDateWeekDaySel = RTC_ALARMDATEWEEKDAYSEL_DATE;
 1258              		.loc 1 343 29 is_stmt 0 view .LVU334
 1259 00b8 0693     		str	r3, [sp, #24]
 344:Core/Src/main.cpp ****   sAlarm.AlarmDateWeekDay = 0x1;
 1260              		.loc 1 344 3 is_stmt 1 view .LVU335
 344:Core/Src/main.cpp ****   sAlarm.AlarmDateWeekDay = 0x1;
 1261              		.loc 1 344 30 is_stmt 0 view .LVU336
 1262 00ba 0793     		str	r3, [sp, #28]
 345:Core/Src/main.cpp ****   sAlarm.Alarm = RTC_ALARM_A;
 1263              		.loc 1 345 3 is_stmt 1 view .LVU337
 345:Core/Src/main.cpp ****   sAlarm.Alarm = RTC_ALARM_A;
 1264              		.loc 1 345 27 is_stmt 0 view .LVU338
 1265 00bc 0122     		movs	r2, #1
 1266 00be 8DF82020 		strb	r2, [sp, #32]
 346:Core/Src/main.cpp ****   if (HAL_RTC_SetAlarm_IT(&hrtc, &sAlarm, RTC_FORMAT_BCD) != HAL_OK)
 1267              		.loc 1 346 3 is_stmt 1 view .LVU339
 346:Core/Src/main.cpp ****   if (HAL_RTC_SetAlarm_IT(&hrtc, &sAlarm, RTC_FORMAT_BCD) != HAL_OK)
 1268              		.loc 1 346 16 is_stmt 0 view .LVU340
 1269 00c2 4FF48073 		mov	r3, #256
 1270 00c6 0993     		str	r3, [sp, #36]
 347:Core/Src/main.cpp ****   {
 1271              		.loc 1 347 3 is_stmt 1 view .LVU341
 347:Core/Src/main.cpp ****   {
 1272              		.loc 1 347 26 is_stmt 0 view .LVU342
 1273 00c8 6946     		mov	r1, sp
 1274 00ca 0D48     		ldr	r0, .L67
 1275 00cc FFF7FEFF 		bl	HAL_RTC_SetAlarm_IT
 1276              	.LVL45:
 347:Core/Src/main.cpp ****   {
 1277              		.loc 1 347 3 discriminator 1 view .LVU343
 1278 00d0 98B9     		cbnz	r0, .L66
 355:Core/Src/main.cpp ****   HAL_Delay(10);
 1279              		.loc 1 355 3 is_stmt 1 view .LVU344
 355:Core/Src/main.cpp ****   HAL_Delay(10);
 1280              		.loc 1 355 27 is_stmt 0 view .LVU345
 1281 00d2 FFF7FEFF 		bl	HAL_PWR_EnableBkUpAccess
 1282              	.LVL46:
 356:Core/Src/main.cpp ****   HAL_RTCEx_BKUPWrite(&hrtc, RTC_BKP_DR10, RTC_MAGIC);
 1283              		.loc 1 356 3 is_stmt 1 view .LVU346
 356:Core/Src/main.cpp ****   HAL_RTCEx_BKUPWrite(&hrtc, RTC_BKP_DR10, RTC_MAGIC);
 1284              		.loc 1 356 12 is_stmt 0 view .LVU347
ARM GAS  /tmp/cc3dJOKu.s 			page 42


 1285 00d6 0A20     		movs	r0, #10
 1286 00d8 FFF7FEFF 		bl	HAL_Delay
 1287              	.LVL47:
 357:Core/Src/main.cpp ****   HAL_PWR_DisableBkUpAccess();
 1288              		.loc 1 357 3 is_stmt 1 view .LVU348
 357:Core/Src/main.cpp ****   HAL_PWR_DisableBkUpAccess();
 1289              		.loc 1 357 22 is_stmt 0 view .LVU349
 1290 00dc 0A4A     		ldr	r2, .L67+8
 1291 00de 0A21     		movs	r1, #10
 1292 00e0 0748     		ldr	r0, .L67
 1293 00e2 FFF7FEFF 		bl	HAL_RTCEx_BKUPWrite
 1294              	.LVL48:
 358:Core/Src/main.cpp **** 
 1295              		.loc 1 358 3 is_stmt 1 view .LVU350
 358:Core/Src/main.cpp **** 
 1296              		.loc 1 358 28 is_stmt 0 view .LVU351
 1297 00e6 FFF7FEFF 		bl	HAL_PWR_DisableBkUpAccess
 1298              	.LVL49:
 1299              	.L55:
 362:Core/Src/main.cpp **** 
 1300              		.loc 1 362 1 view .LVU352
 1301 00ea 10B0     		add	sp, sp, #64
 1302              		.cfi_remember_state
 1303              		.cfi_def_cfa_offset 8
 1304              		@ sp needed
 1305 00ec 10BD     		pop	{r4, pc}
 1306              	.LVL50:
 1307              	.L63:
 1308              		.cfi_restore_state
 295:Core/Src/main.cpp ****   }
 1309              		.loc 1 295 5 is_stmt 1 view .LVU353
 295:Core/Src/main.cpp ****   }
 1310              		.loc 1 295 18 is_stmt 0 view .LVU354
 1311 00ee FFF7FEFF 		bl	Error_Handler
 1312              	.LVL51:
 1313              	.L64:
 321:Core/Src/main.cpp ****   }
 1314              		.loc 1 321 5 is_stmt 1 view .LVU355
 321:Core/Src/main.cpp ****   }
 1315              		.loc 1 321 18 is_stmt 0 view .LVU356
 1316 00f2 FFF7FEFF 		bl	Error_Handler
 1317              	.LVL52:
 1318              	.L65:
 330:Core/Src/main.cpp ****   }
 1319              		.loc 1 330 5 is_stmt 1 view .LVU357
 330:Core/Src/main.cpp ****   }
 1320              		.loc 1 330 18 is_stmt 0 view .LVU358
 1321 00f6 FFF7FEFF 		bl	Error_Handler
 1322              	.LVL53:
 1323              	.L66:
 349:Core/Src/main.cpp ****   }
 1324              		.loc 1 349 5 is_stmt 1 view .LVU359
 349:Core/Src/main.cpp ****   }
 1325              		.loc 1 349 18 is_stmt 0 view .LVU360
 1326 00fa FFF7FEFF 		bl	Error_Handler
 1327              	.LVL54:
 1328              	.L68:
ARM GAS  /tmp/cc3dJOKu.s 			page 43


 1329 00fe 00BF     		.align	2
 1330              	.L67:
 1331 0100 00000000 		.word	hrtc
 1332 0104 00280040 		.word	1073752064
 1333 0108 AF6BDC66 		.word	1725721519
 1334 010c 00808080 		.word	-2139062272
 1335              		.cfi_endproc
 1336              	.LFE619:
 1337              		.fnend
 1339              		.section	.text._Z18SystemClock_Configv,"ax",%progbits
 1340              		.align	1
 1341              		.global	_Z18SystemClock_Configv
 1342              		.syntax unified
 1343              		.thumb
 1344              		.thumb_func
 1346              	_Z18SystemClock_Configv:
 1347              		.fnstart
 1348              	.LFB616:
 151:Core/Src/main.cpp ****   RCC_OscInitTypeDef RCC_OscInitStruct = {0};
 1349              		.loc 1 151 1 is_stmt 1 view -0
 1350              		.cfi_startproc
 1351              		@ args = 0, pretend = 0, frame = 80
 1352              		@ frame_needed = 0, uses_anonymous_args = 0
 1353 0000 10B5     		push	{r4, lr}
 1354              		.save {r4, lr}
 1355              		.cfi_def_cfa_offset 8
 1356              		.cfi_offset 4, -8
 1357              		.cfi_offset 14, -4
 1358              		.pad #80
 1359 0002 94B0     		sub	sp, sp, #80
 1360              		.cfi_def_cfa_offset 88
 152:Core/Src/main.cpp ****   RCC_ClkInitTypeDef RCC_ClkInitStruct = {0};
 1361              		.loc 1 152 3 view .LVU362
 152:Core/Src/main.cpp ****   RCC_ClkInitTypeDef RCC_ClkInitStruct = {0};
 1362              		.loc 1 152 22 is_stmt 0 view .LVU363
 1363 0004 08AC     		add	r4, sp, #32
 1364 0006 3022     		movs	r2, #48
 1365 0008 0021     		movs	r1, #0
 1366 000a 2046     		mov	r0, r4
 1367 000c FFF7FEFF 		bl	memset
 1368              	.LVL55:
 153:Core/Src/main.cpp **** 
 1369              		.loc 1 153 3 is_stmt 1 view .LVU364
 153:Core/Src/main.cpp **** 
 1370              		.loc 1 153 22 is_stmt 0 view .LVU365
 1371 0010 0023     		movs	r3, #0
 1372 0012 0393     		str	r3, [sp, #12]
 1373 0014 0493     		str	r3, [sp, #16]
 1374 0016 0593     		str	r3, [sp, #20]
 1375 0018 0693     		str	r3, [sp, #24]
 1376 001a 0793     		str	r3, [sp, #28]
 157:Core/Src/main.cpp ****   __HAL_PWR_VOLTAGESCALING_CONFIG(PWR_REGULATOR_VOLTAGE_SCALE2);
 1377              		.loc 1 157 3 is_stmt 1 view .LVU366
 1378              	.LBB101:
 157:Core/Src/main.cpp ****   __HAL_PWR_VOLTAGESCALING_CONFIG(PWR_REGULATOR_VOLTAGE_SCALE2);
 1379              		.loc 1 157 3 view .LVU367
 1380 001c 0193     		str	r3, [sp, #4]
ARM GAS  /tmp/cc3dJOKu.s 			page 44


 157:Core/Src/main.cpp ****   __HAL_PWR_VOLTAGESCALING_CONFIG(PWR_REGULATOR_VOLTAGE_SCALE2);
 1381              		.loc 1 157 3 view .LVU368
 1382 001e 254A     		ldr	r2, .L75
 1383 0020 116C     		ldr	r1, [r2, #64]
 1384 0022 41F08051 		orr	r1, r1, #268435456
 1385 0026 1164     		str	r1, [r2, #64]
 157:Core/Src/main.cpp ****   __HAL_PWR_VOLTAGESCALING_CONFIG(PWR_REGULATOR_VOLTAGE_SCALE2);
 1386              		.loc 1 157 3 view .LVU369
 1387 0028 126C     		ldr	r2, [r2, #64]
 1388 002a 02F08052 		and	r2, r2, #268435456
 1389 002e 0192     		str	r2, [sp, #4]
 157:Core/Src/main.cpp ****   __HAL_PWR_VOLTAGESCALING_CONFIG(PWR_REGULATOR_VOLTAGE_SCALE2);
 1390              		.loc 1 157 3 view .LVU370
 1391 0030 019A     		ldr	r2, [sp, #4]
 1392              	.LBE101:
 157:Core/Src/main.cpp ****   __HAL_PWR_VOLTAGESCALING_CONFIG(PWR_REGULATOR_VOLTAGE_SCALE2);
 1393              		.loc 1 157 3 view .LVU371
 158:Core/Src/main.cpp **** 
 1394              		.loc 1 158 3 view .LVU372
 1395              	.LBB102:
 158:Core/Src/main.cpp **** 
 1396              		.loc 1 158 3 view .LVU373
 1397 0032 0293     		str	r3, [sp, #8]
 158:Core/Src/main.cpp **** 
 1398              		.loc 1 158 3 view .LVU374
 1399 0034 204A     		ldr	r2, .L75+4
 1400 0036 1368     		ldr	r3, [r2]
 1401 0038 23F44043 		bic	r3, r3, #49152
 1402 003c 43F40043 		orr	r3, r3, #32768
 1403 0040 1360     		str	r3, [r2]
 158:Core/Src/main.cpp **** 
 1404              		.loc 1 158 3 view .LVU375
 1405 0042 1368     		ldr	r3, [r2]
 1406 0044 03F44043 		and	r3, r3, #49152
 1407 0048 0293     		str	r3, [sp, #8]
 158:Core/Src/main.cpp **** 
 1408              		.loc 1 158 3 view .LVU376
 1409 004a 029B     		ldr	r3, [sp, #8]
 1410              	.LBE102:
 158:Core/Src/main.cpp **** 
 1411              		.loc 1 158 3 view .LVU377
 163:Core/Src/main.cpp ****                               |RCC_OSCILLATORTYPE_HSE;
 1412              		.loc 1 163 3 view .LVU378
 163:Core/Src/main.cpp ****                               |RCC_OSCILLATORTYPE_HSE;
 1413              		.loc 1 163 36 is_stmt 0 view .LVU379
 1414 004c 0B23     		movs	r3, #11
 1415 004e 0893     		str	r3, [sp, #32]
 165:Core/Src/main.cpp ****   RCC_OscInitStruct.HSIState = RCC_HSI_ON;
 1416              		.loc 1 165 3 is_stmt 1 view .LVU380
 165:Core/Src/main.cpp ****   RCC_OscInitStruct.HSIState = RCC_HSI_ON;
 1417              		.loc 1 165 30 is_stmt 0 view .LVU381
 1418 0050 4FF48033 		mov	r3, #65536
 1419 0054 0993     		str	r3, [sp, #36]
 166:Core/Src/main.cpp ****   RCC_OscInitStruct.HSICalibrationValue = RCC_HSICALIBRATION_DEFAULT;
 1420              		.loc 1 166 3 is_stmt 1 view .LVU382
 166:Core/Src/main.cpp ****   RCC_OscInitStruct.HSICalibrationValue = RCC_HSICALIBRATION_DEFAULT;
 1421              		.loc 1 166 30 is_stmt 0 view .LVU383
ARM GAS  /tmp/cc3dJOKu.s 			page 45


 1422 0056 0123     		movs	r3, #1
 1423 0058 0B93     		str	r3, [sp, #44]
 167:Core/Src/main.cpp ****   RCC_OscInitStruct.LSIState = RCC_LSI_ON;
 1424              		.loc 1 167 3 is_stmt 1 view .LVU384
 167:Core/Src/main.cpp ****   RCC_OscInitStruct.LSIState = RCC_LSI_ON;
 1425              		.loc 1 167 41 is_stmt 0 view .LVU385
 1426 005a 1022     		movs	r2, #16
 1427 005c 0C92     		str	r2, [sp, #48]
 168:Core/Src/main.cpp ****   RCC_OscInitStruct.PLL.PLLState = RCC_PLL_ON;
 1428              		.loc 1 168 3 is_stmt 1 view .LVU386
 168:Core/Src/main.cpp ****   RCC_OscInitStruct.PLL.PLLState = RCC_PLL_ON;
 1429              		.loc 1 168 30 is_stmt 0 view .LVU387
 1430 005e 0D93     		str	r3, [sp, #52]
 169:Core/Src/main.cpp ****   RCC_OscInitStruct.PLL.PLLSource = RCC_PLLSOURCE_HSE;
 1431              		.loc 1 169 3 is_stmt 1 view .LVU388
 169:Core/Src/main.cpp ****   RCC_OscInitStruct.PLL.PLLSource = RCC_PLLSOURCE_HSE;
 1432              		.loc 1 169 34 is_stmt 0 view .LVU389
 1433 0060 0223     		movs	r3, #2
 1434 0062 0E93     		str	r3, [sp, #56]
 170:Core/Src/main.cpp ****   RCC_OscInitStruct.PLL.PLLM = 25;
 1435              		.loc 1 170 3 is_stmt 1 view .LVU390
 170:Core/Src/main.cpp ****   RCC_OscInitStruct.PLL.PLLM = 25;
 1436              		.loc 1 170 35 is_stmt 0 view .LVU391
 1437 0064 4FF48002 		mov	r2, #4194304
 1438 0068 0F92     		str	r2, [sp, #60]
 171:Core/Src/main.cpp ****   RCC_OscInitStruct.PLL.PLLN = 168;
 1439              		.loc 1 171 3 is_stmt 1 view .LVU392
 171:Core/Src/main.cpp ****   RCC_OscInitStruct.PLL.PLLN = 168;
 1440              		.loc 1 171 30 is_stmt 0 view .LVU393
 1441 006a 1922     		movs	r2, #25
 1442 006c 1092     		str	r2, [sp, #64]
 172:Core/Src/main.cpp ****   RCC_OscInitStruct.PLL.PLLP = RCC_PLLP_DIV2;
 1443              		.loc 1 172 3 is_stmt 1 view .LVU394
 172:Core/Src/main.cpp ****   RCC_OscInitStruct.PLL.PLLP = RCC_PLLP_DIV2;
 1444              		.loc 1 172 30 is_stmt 0 view .LVU395
 1445 006e A822     		movs	r2, #168
 1446 0070 1192     		str	r2, [sp, #68]
 173:Core/Src/main.cpp ****   RCC_OscInitStruct.PLL.PLLQ = 4;
 1447              		.loc 1 173 3 is_stmt 1 view .LVU396
 173:Core/Src/main.cpp ****   RCC_OscInitStruct.PLL.PLLQ = 4;
 1448              		.loc 1 173 30 is_stmt 0 view .LVU397
 1449 0072 1293     		str	r3, [sp, #72]
 174:Core/Src/main.cpp ****   if (HAL_RCC_OscConfig(&RCC_OscInitStruct) != HAL_OK)
 1450              		.loc 1 174 3 is_stmt 1 view .LVU398
 174:Core/Src/main.cpp ****   if (HAL_RCC_OscConfig(&RCC_OscInitStruct) != HAL_OK)
 1451              		.loc 1 174 30 is_stmt 0 view .LVU399
 1452 0074 0423     		movs	r3, #4
 1453 0076 1393     		str	r3, [sp, #76]
 175:Core/Src/main.cpp ****   {
 1454              		.loc 1 175 3 is_stmt 1 view .LVU400
 175:Core/Src/main.cpp ****   {
 1455              		.loc 1 175 24 is_stmt 0 view .LVU401
 1456 0078 2046     		mov	r0, r4
 1457 007a FFF7FEFF 		bl	HAL_RCC_OscConfig
 1458              	.LVL56:
 175:Core/Src/main.cpp ****   {
 1459              		.loc 1 175 3 discriminator 1 view .LVU402
ARM GAS  /tmp/cc3dJOKu.s 			page 46


 1460 007e A0B9     		cbnz	r0, .L73
 182:Core/Src/main.cpp ****                               |RCC_CLOCKTYPE_PCLK1|RCC_CLOCKTYPE_PCLK2;
 1461              		.loc 1 182 3 is_stmt 1 view .LVU403
 182:Core/Src/main.cpp ****                               |RCC_CLOCKTYPE_PCLK1|RCC_CLOCKTYPE_PCLK2;
 1462              		.loc 1 182 31 is_stmt 0 view .LVU404
 1463 0080 0F23     		movs	r3, #15
 1464 0082 0393     		str	r3, [sp, #12]
 184:Core/Src/main.cpp ****   RCC_ClkInitStruct.AHBCLKDivider = RCC_SYSCLK_DIV1;
 1465              		.loc 1 184 3 is_stmt 1 view .LVU405
 184:Core/Src/main.cpp ****   RCC_ClkInitStruct.AHBCLKDivider = RCC_SYSCLK_DIV1;
 1466              		.loc 1 184 34 is_stmt 0 view .LVU406
 1467 0084 0221     		movs	r1, #2
 1468 0086 0491     		str	r1, [sp, #16]
 185:Core/Src/main.cpp ****   RCC_ClkInitStruct.APB1CLKDivider = RCC_HCLK_DIV2;
 1469              		.loc 1 185 3 is_stmt 1 view .LVU407
 185:Core/Src/main.cpp ****   RCC_ClkInitStruct.APB1CLKDivider = RCC_HCLK_DIV2;
 1470              		.loc 1 185 35 is_stmt 0 view .LVU408
 1471 0088 0023     		movs	r3, #0
 1472 008a 0593     		str	r3, [sp, #20]
 186:Core/Src/main.cpp ****   RCC_ClkInitStruct.APB2CLKDivider = RCC_HCLK_DIV1;
 1473              		.loc 1 186 3 is_stmt 1 view .LVU409
 186:Core/Src/main.cpp ****   RCC_ClkInitStruct.APB2CLKDivider = RCC_HCLK_DIV1;
 1474              		.loc 1 186 36 is_stmt 0 view .LVU410
 1475 008c 4FF48052 		mov	r2, #4096
 1476 0090 0692     		str	r2, [sp, #24]
 187:Core/Src/main.cpp **** 
 1477              		.loc 1 187 3 is_stmt 1 view .LVU411
 187:Core/Src/main.cpp **** 
 1478              		.loc 1 187 36 is_stmt 0 view .LVU412
 1479 0092 0793     		str	r3, [sp, #28]
 189:Core/Src/main.cpp ****   {
 1480              		.loc 1 189 3 is_stmt 1 view .LVU413
 189:Core/Src/main.cpp ****   {
 1481              		.loc 1 189 26 is_stmt 0 view .LVU414
 1482 0094 03A8     		add	r0, sp, #12
 1483 0096 FFF7FEFF 		bl	HAL_RCC_ClockConfig
 1484              	.LVL57:
 189:Core/Src/main.cpp ****   {
 1485              		.loc 1 189 3 discriminator 1 view .LVU415
 1486 009a 40B9     		cbnz	r0, .L74
 193:Core/Src/main.cpp **** }
 1487              		.loc 1 193 3 is_stmt 1 view .LVU416
 193:Core/Src/main.cpp **** }
 1488              		.loc 1 193 20 is_stmt 0 view .LVU417
 1489 009c 0022     		movs	r2, #0
 1490 009e 1146     		mov	r1, r2
 1491 00a0 1046     		mov	r0, r2
 1492 00a2 FFF7FEFF 		bl	HAL_RCC_MCOConfig
 1493              	.LVL58:
 194:Core/Src/main.cpp **** 
 1494              		.loc 1 194 1 view .LVU418
 1495 00a6 14B0     		add	sp, sp, #80
 1496              		.cfi_remember_state
 1497              		.cfi_def_cfa_offset 8
 1498              		@ sp needed
 1499 00a8 10BD     		pop	{r4, pc}
 1500              	.L73:
ARM GAS  /tmp/cc3dJOKu.s 			page 47


 1501              		.cfi_restore_state
 177:Core/Src/main.cpp ****   }
 1502              		.loc 1 177 5 is_stmt 1 view .LVU419
 177:Core/Src/main.cpp ****   }
 1503              		.loc 1 177 18 is_stmt 0 view .LVU420
 1504 00aa FFF7FEFF 		bl	Error_Handler
 1505              	.LVL59:
 1506              	.L74:
 191:Core/Src/main.cpp ****   }
 1507              		.loc 1 191 5 is_stmt 1 view .LVU421
 191:Core/Src/main.cpp ****   }
 1508              		.loc 1 191 18 is_stmt 0 view .LVU422
 1509 00ae FFF7FEFF 		bl	Error_Handler
 1510              	.LVL60:
 1511              	.L76:
 1512 00b2 00BF     		.align	2
 1513              	.L75:
 1514 00b4 00380240 		.word	1073887232
 1515 00b8 00700040 		.word	1073770496
 1516              		.cfi_endproc
 1517              	.LFE616:
 1518              		.fnend
 1520              		.section	.text.main,"ax",%progbits
 1521              		.align	1
 1522              		.global	main
 1523              		.syntax unified
 1524              		.thumb
 1525              		.thumb_func
 1527              	main:
 1528              		.fnstart
 1529              	.LFB615:
  98:Core/Src/main.cpp ****   /* USER CODE BEGIN 1 */
 1530              		.loc 1 98 1 is_stmt 1 view -0
 1531              		.cfi_startproc
 1532              		@ args = 0, pretend = 0, frame = 0
 1533              		@ frame_needed = 0, uses_anonymous_args = 0
 1534 0000 10B5     		push	{r4, lr}
 1535              		.save {r4, lr}
 1536              		.cfi_def_cfa_offset 8
 1537              		.cfi_offset 4, -8
 1538              		.cfi_offset 14, -4
 106:Core/Src/main.cpp **** 
 1539              		.loc 1 106 3 view .LVU424
 106:Core/Src/main.cpp **** 
 1540              		.loc 1 106 11 is_stmt 0 view .LVU425
 1541 0002 FFF7FEFF 		bl	HAL_Init
 1542              	.LVL61:
 113:Core/Src/main.cpp **** 
 1543              		.loc 1 113 3 is_stmt 1 view .LVU426
 113:Core/Src/main.cpp **** 
 1544              		.loc 1 113 21 is_stmt 0 view .LVU427
 1545 0006 FFF7FEFF 		bl	_Z18SystemClock_Configv
 1546              	.LVL62:
 120:Core/Src/main.cpp ****   MX_DMA_Init();
 1547              		.loc 1 120 3 is_stmt 1 view .LVU428
 120:Core/Src/main.cpp ****   MX_DMA_Init();
 1548              		.loc 1 120 15 is_stmt 0 view .LVU429
ARM GAS  /tmp/cc3dJOKu.s 			page 48


 1549 000a FFF7FEFF 		bl	_ZL12MX_GPIO_Initv
 1550              	.LVL63:
 121:Core/Src/main.cpp ****   MX_I2C1_Init();
 1551              		.loc 1 121 3 is_stmt 1 view .LVU430
 121:Core/Src/main.cpp ****   MX_I2C1_Init();
 1552              		.loc 1 121 14 is_stmt 0 view .LVU431
 1553 000e FFF7FEFF 		bl	_ZL11MX_DMA_Initv
 1554              	.LVL64:
 122:Core/Src/main.cpp ****   MX_I2S2_Init();
 1555              		.loc 1 122 3 is_stmt 1 view .LVU432
 122:Core/Src/main.cpp ****   MX_I2S2_Init();
 1556              		.loc 1 122 15 is_stmt 0 view .LVU433
 1557 0012 FFF7FEFF 		bl	_ZL12MX_I2C1_Initv
 1558              	.LVL65:
 123:Core/Src/main.cpp ****   MX_SPI1_Init();
 1559              		.loc 1 123 3 is_stmt 1 view .LVU434
 123:Core/Src/main.cpp ****   MX_SPI1_Init();
 1560              		.loc 1 123 15 is_stmt 0 view .LVU435
 1561 0016 FFF7FEFF 		bl	_ZL12MX_I2S2_Initv
 1562              	.LVL66:
 124:Core/Src/main.cpp ****   MX_USART1_UART_Init();
 1563              		.loc 1 124 3 is_stmt 1 view .LVU436
 124:Core/Src/main.cpp ****   MX_USART1_UART_Init();
 1564              		.loc 1 124 15 is_stmt 0 view .LVU437
 1565 001a FFF7FEFF 		bl	_ZL12MX_SPI1_Initv
 1566              	.LVL67:
 125:Core/Src/main.cpp ****   MX_RTC_Init();
 1567              		.loc 1 125 3 is_stmt 1 view .LVU438
 125:Core/Src/main.cpp ****   MX_RTC_Init();
 1568              		.loc 1 125 22 is_stmt 0 view .LVU439
 1569 001e FFF7FEFF 		bl	_ZL19MX_USART1_UART_Initv
 1570              	.LVL68:
 126:Core/Src/main.cpp ****   /* USER CODE BEGIN 2 */
 1571              		.loc 1 126 3 is_stmt 1 view .LVU440
 126:Core/Src/main.cpp ****   /* USER CODE BEGIN 2 */
 1572              		.loc 1 126 14 is_stmt 0 view .LVU441
 1573 0022 FFF7FEFF 		bl	_ZL11MX_RTC_Initv
 1574              	.LVL69:
 1575              	.L78:
 136:Core/Src/main.cpp ****   {
 1576              		.loc 1 136 3 is_stmt 1 view .LVU442
 138:Core/Src/main.cpp ****     gpioObj.resetPin(8);
 1577              		.loc 1 138 5 view .LVU443
 138:Core/Src/main.cpp ****     gpioObj.resetPin(8);
 1578              		.loc 1 138 19 is_stmt 0 view .LVU444
 1579 0026 054C     		ldr	r4, .L80
 1580 0028 0821     		movs	r1, #8
 1581 002a 2046     		mov	r0, r4
 1582 002c FFF7FEFF 		bl	_ZN10gpioObject6setPinEt
 1583              	.LVL70:
 139:Core/Src/main.cpp ****     /* USER CODE END WHILE */
 1584              		.loc 1 139 5 is_stmt 1 discriminator 1 view .LVU445
 139:Core/Src/main.cpp ****     /* USER CODE END WHILE */
 1585              		.loc 1 139 21 is_stmt 0 discriminator 1 view .LVU446
 1586 0030 0821     		movs	r1, #8
 1587 0032 2046     		mov	r0, r4
 1588 0034 FFF7FEFF 		bl	_ZN10gpioObject8resetPinEt
ARM GAS  /tmp/cc3dJOKu.s 			page 49


 1589              	.LVL71:
 136:Core/Src/main.cpp ****   {
 1590              		.loc 1 136 3 is_stmt 1 view .LVU447
 1591 0038 F5E7     		b	.L78
 1592              	.L81:
 1593 003a 00BF     		.align	2
 1594              	.L80:
 1595 003c 00000000 		.word	gpioObj
 1596              		.cfi_endproc
 1597              	.LFE615:
 1598              		.fnend
 1600              		.section	.text._GLOBAL__sub_I_hi2c1,"ax",%progbits
 1601              		.align	1
 1602              		.syntax unified
 1603              		.thumb
 1604              		.thumb_func
 1606              	_GLOBAL__sub_I_hi2c1:
 1607              		.fnstart
 1608              	.LFB653:
 1609              		.loc 1 539 1 view -0
 1610              		.cfi_startproc
 1611              		@ args = 0, pretend = 0, frame = 0
 1612              		@ frame_needed = 0, uses_anonymous_args = 0
 1613 0000 08B5     		push	{r3, lr}
 1614              		.cfi_def_cfa_offset 8
 1615              		.cfi_offset 3, -8
 1616              		.cfi_offset 14, -4
 1617              		.loc 1 539 1 is_stmt 0 view .LVU449
 1618 0002 FFF7FEFF 		bl	_Z41__static_initialization_and_destruction_0v
 1619              	.LVL72:
 1620 0006 08BD     		pop	{r3, pc}
 1621              		.cfi_endproc
 1622              	.LFE653:
 1623              		.cantunwind
 1624              		.fnend
 1626              		.section	.init_array,"aw",%init_array
 1627              		.align	2
 1628 0000 00000000 		.word	_GLOBAL__sub_I_hi2c1(target1)
 1629              		.weak	_ZTS16InterruptHandler
 1630              		.section	.rodata._ZTS16InterruptHandler,"aG",%progbits,_ZTS16InterruptHandler,comdat
 1631              		.align	2
 1634              	_ZTS16InterruptHandler:
 1635 0000 3136496E 		.ascii	"16InterruptHandler\000"
 1635      74657272 
 1635      75707448 
 1635      616E646C 
 1635      657200
 1636              		.weak	_ZTI16InterruptHandler
 1637              		.section	.rodata._ZTI16InterruptHandler,"aG",%progbits,_ZTI16InterruptHandler,comdat
 1638              		.align	2
 1641              	_ZTI16InterruptHandler:
 1642 0000 08000000 		.word	_ZTVN10__cxxabiv117__class_type_infoE+8
 1643 0004 00000000 		.word	_ZTS16InterruptHandler
 1644              		.weak	_ZTS15InterruptObjectI19__I2S_HandleTypeDefE
 1645              		.section	.rodata._ZTS15InterruptObjectI19__I2S_HandleTypeDefE,"aG",%progbits,_ZTS15InterruptObject
 1646              		.align	2
 1649              	_ZTS15InterruptObjectI19__I2S_HandleTypeDefE:
ARM GAS  /tmp/cc3dJOKu.s 			page 50


 1650 0000 3135496E 		.ascii	"15InterruptObjectI19__I2S_HandleTypeDefE\000"
 1650      74657272 
 1650      7570744F 
 1650      626A6563 
 1650      74493139 
 1651              		.weak	_ZTI15InterruptObjectI19__I2S_HandleTypeDefE
 1652              		.section	.rodata._ZTI15InterruptObjectI19__I2S_HandleTypeDefE,"aG",%progbits,_ZTI15InterruptObject
 1653              		.align	2
 1656              	_ZTI15InterruptObjectI19__I2S_HandleTypeDefE:
 1657 0000 08000000 		.word	_ZTVN10__cxxabiv120__si_class_type_infoE+8
 1658 0004 00000000 		.word	_ZTS15InterruptObjectI19__I2S_HandleTypeDefE
 1659 0008 00000000 		.word	_ZTI16InterruptHandler
 1660              		.weak	_ZTS9i2sObject
 1661              		.section	.rodata._ZTS9i2sObject,"aG",%progbits,_ZTS9i2sObject,comdat
 1662              		.align	2
 1665              	_ZTS9i2sObject:
 1666 0000 39693273 		.ascii	"9i2sObject\000"
 1666      4F626A65 
 1666      637400
 1667              		.weak	_ZTI9i2sObject
 1668              		.section	.rodata._ZTI9i2sObject,"aG",%progbits,_ZTI9i2sObject,comdat
 1669              		.align	2
 1672              	_ZTI9i2sObject:
 1673 0000 08000000 		.word	_ZTVN10__cxxabiv120__si_class_type_infoE+8
 1674 0004 00000000 		.word	_ZTS9i2sObject
 1675 0008 00000000 		.word	_ZTI15InterruptObjectI19__I2S_HandleTypeDefE
 1676              		.weak	_ZTS15InterruptObjectI17RTC_HandleTypeDefE
 1677              		.section	.rodata._ZTS15InterruptObjectI17RTC_HandleTypeDefE,"aG",%progbits,_ZTS15InterruptObjectI1
 1678              		.align	2
 1681              	_ZTS15InterruptObjectI17RTC_HandleTypeDefE:
 1682 0000 3135496E 		.ascii	"15InterruptObjectI17RTC_HandleTypeDefE\000"
 1682      74657272 
 1682      7570744F 
 1682      626A6563 
 1682      74493137 
 1683              		.weak	_ZTI15InterruptObjectI17RTC_HandleTypeDefE
 1684              		.section	.rodata._ZTI15InterruptObjectI17RTC_HandleTypeDefE,"aG",%progbits,_ZTI15InterruptObjectI1
 1685              		.align	2
 1688              	_ZTI15InterruptObjectI17RTC_HandleTypeDefE:
 1689 0000 08000000 		.word	_ZTVN10__cxxabiv120__si_class_type_infoE+8
 1690 0004 00000000 		.word	_ZTS15InterruptObjectI17RTC_HandleTypeDefE
 1691 0008 00000000 		.word	_ZTI16InterruptHandler
 1692              		.weak	_ZTS15InterruptObjectI12GPIO_TypeDefE
 1693              		.section	.rodata._ZTS15InterruptObjectI12GPIO_TypeDefE,"aG",%progbits,_ZTS15InterruptObjectI12GPIO
 1694              		.align	2
 1697              	_ZTS15InterruptObjectI12GPIO_TypeDefE:
 1698 0000 3135496E 		.ascii	"15InterruptObjectI12GPIO_TypeDefE\000"
 1698      74657272 
 1698      7570744F 
 1698      626A6563 
 1698      74493132 
 1699              		.weak	_ZTI15InterruptObjectI12GPIO_TypeDefE
 1700              		.section	.rodata._ZTI15InterruptObjectI12GPIO_TypeDefE,"aG",%progbits,_ZTI15InterruptObjectI12GPIO
 1701              		.align	2
 1704              	_ZTI15InterruptObjectI12GPIO_TypeDefE:
 1705 0000 08000000 		.word	_ZTVN10__cxxabiv120__si_class_type_infoE+8
 1706 0004 00000000 		.word	_ZTS15InterruptObjectI12GPIO_TypeDefE
ARM GAS  /tmp/cc3dJOKu.s 			page 51


 1707 0008 00000000 		.word	_ZTI16InterruptHandler
 1708              		.weak	_ZTS10gpioObject
 1709              		.section	.rodata._ZTS10gpioObject,"aG",%progbits,_ZTS10gpioObject,comdat
 1710              		.align	2
 1713              	_ZTS10gpioObject:
 1714 0000 31306770 		.ascii	"10gpioObject\000"
 1714      696F4F62 
 1714      6A656374 
 1714      00
 1715              		.weak	_ZTI10gpioObject
 1716              		.section	.rodata._ZTI10gpioObject,"aG",%progbits,_ZTI10gpioObject,comdat
 1717              		.align	2
 1720              	_ZTI10gpioObject:
 1721 0000 08000000 		.word	_ZTVN10__cxxabiv120__si_class_type_infoE+8
 1722 0004 00000000 		.word	_ZTS10gpioObject
 1723 0008 00000000 		.word	_ZTI15InterruptObjectI12GPIO_TypeDefE
 1724              		.weak	_ZTV16InterruptHandler
 1725              		.section	.rodata._ZTV16InterruptHandler,"aG",%progbits,_ZTV16InterruptHandler,comdat
 1726              		.align	2
 1729              	_ZTV16InterruptHandler:
 1730 0000 00000000 		.word	0
 1731 0004 00000000 		.word	_ZTI16InterruptHandler
 1732 0008 00000000 		.word	__cxa_pure_virtual
 1733              		.weak	_ZTV15InterruptObjectI19__I2S_HandleTypeDefE
 1734              		.section	.rodata._ZTV15InterruptObjectI19__I2S_HandleTypeDefE,"aG",%progbits,_ZTV15InterruptObject
 1735              		.align	2
 1738              	_ZTV15InterruptObjectI19__I2S_HandleTypeDefE:
 1739 0000 00000000 		.word	0
 1740 0004 00000000 		.word	_ZTI15InterruptObjectI19__I2S_HandleTypeDefE
 1741 0008 00000000 		.word	_ZN15InterruptObjectI19__I2S_HandleTypeDefE3irqEv
 1742              		.weak	_ZTV9i2sObject
 1743              		.section	.rodata._ZTV9i2sObject,"aG",%progbits,_ZTV9i2sObject,comdat
 1744              		.align	2
 1747              	_ZTV9i2sObject:
 1748 0000 00000000 		.word	0
 1749 0004 00000000 		.word	_ZTI9i2sObject
 1750 0008 00000000 		.word	_ZN15InterruptObjectI19__I2S_HandleTypeDefE3irqEv
 1751              		.weak	_ZTV15InterruptObjectI17RTC_HandleTypeDefE
 1752              		.section	.rodata._ZTV15InterruptObjectI17RTC_HandleTypeDefE,"aG",%progbits,_ZTV15InterruptObjectI1
 1753              		.align	2
 1756              	_ZTV15InterruptObjectI17RTC_HandleTypeDefE:
 1757 0000 00000000 		.word	0
 1758 0004 00000000 		.word	_ZTI15InterruptObjectI17RTC_HandleTypeDefE
 1759 0008 00000000 		.word	_ZN15InterruptObjectI17RTC_HandleTypeDefE3irqEv
 1760              		.weak	_ZTV15InterruptObjectI12GPIO_TypeDefE
 1761              		.section	.rodata._ZTV15InterruptObjectI12GPIO_TypeDefE,"aG",%progbits,_ZTV15InterruptObjectI12GPIO
 1762              		.align	2
 1765              	_ZTV15InterruptObjectI12GPIO_TypeDefE:
 1766 0000 00000000 		.word	0
 1767 0004 00000000 		.word	_ZTI15InterruptObjectI12GPIO_TypeDefE
 1768 0008 00000000 		.word	_ZN15InterruptObjectI12GPIO_TypeDefE3irqEv
 1769              		.weak	_ZTV10gpioObject
 1770              		.section	.rodata._ZTV10gpioObject,"aG",%progbits,_ZTV10gpioObject,comdat
 1771              		.align	2
 1774              	_ZTV10gpioObject:
 1775 0000 00000000 		.word	0
 1776 0004 00000000 		.word	_ZTI10gpioObject
ARM GAS  /tmp/cc3dJOKu.s 			page 52


 1777 0008 00000000 		.word	_ZN15InterruptObjectI12GPIO_TypeDefE3irqEv
 1778              		.global	latestResetCause
 1779              		.section	.bss.latestResetCause,"aw",%nobits
 1780              		.align	2
 1783              	latestResetCause:
 1784 0000 00000000 		.space	4
 1785              		.global	Handlers
 1786              		.section	.bss.Handlers,"aw",%nobits
 1787              		.align	2
 1790              	Handlers:
 1791 0000 00000000 		.space	8
 1791      00000000 
 1792              		.global	gpioObj
 1793              		.section	.bss.gpioObj,"aw",%nobits
 1794              		.align	2
 1797              	gpioObj:
 1798 0000 00000000 		.space	16
 1798      00000000 
 1798      00000000 
 1798      00000000 
 1799              		.global	rtcObj
 1800              		.section	.bss.rtcObj,"aw",%nobits
 1801              		.align	2
 1804              	rtcObj:
 1805 0000 00000000 		.space	20
 1805      00000000 
 1805      00000000 
 1805      00000000 
 1805      00000000 
 1806              		.global	i2sObj
 1807              		.section	.bss.i2sObj,"aw",%nobits
 1808              		.align	2
 1811              	i2sObj:
 1812 0000 00000000 		.space	16
 1812      00000000 
 1812      00000000 
 1812      00000000 
 1813              		.global	huart1
 1814              		.section	.bss.huart1,"aw",%nobits
 1815              		.align	2
 1818              	huart1:
 1819 0000 00000000 		.space	68
 1819      00000000 
 1819      00000000 
 1819      00000000 
 1819      00000000 
 1820              		.global	hspi1
 1821              		.section	.bss.hspi1,"aw",%nobits
 1822              		.align	2
 1825              	hspi1:
 1826 0000 00000000 		.space	88
 1826      00000000 
 1826      00000000 
 1826      00000000 
 1826      00000000 
 1827              		.global	hrtc
 1828              		.section	.bss.hrtc,"aw",%nobits
ARM GAS  /tmp/cc3dJOKu.s 			page 53


 1829              		.align	2
 1832              	hrtc:
 1833 0000 00000000 		.space	32
 1833      00000000 
 1833      00000000 
 1833      00000000 
 1833      00000000 
 1834              		.global	hdma_spi2_tx
 1835              		.section	.bss.hdma_spi2_tx,"aw",%nobits
 1836              		.align	2
 1839              	hdma_spi2_tx:
 1840 0000 00000000 		.space	96
 1840      00000000 
 1840      00000000 
 1840      00000000 
 1840      00000000 
 1841              		.global	hi2s2
 1842              		.section	.bss.hi2s2,"aw",%nobits
 1843              		.align	2
 1846              	hi2s2:
 1847 0000 00000000 		.space	72
 1847      00000000 
 1847      00000000 
 1847      00000000 
 1847      00000000 
 1848              		.global	hi2c1
 1849              		.section	.bss.hi2c1,"aw",%nobits
 1850              		.align	2
 1853              	hi2c1:
 1854 0000 00000000 		.space	84
 1854      00000000 
 1854      00000000 
 1854      00000000 
 1854      00000000 
 1855              		.weak	__cxa_pure_virtual
 1856              		.text
 1857              	.Letext0:
 1858              		.file 7 "Drivers/CMSIS/Device/ST/STM32F4xx/Include/stm32f401xc.h"
 1859              		.file 8 "/usr/arm-none-eabi/include/machine/_default_types.h"
 1860              		.file 9 "/usr/arm-none-eabi/include/sys/_stdint.h"
 1861              		.file 10 "/usr/arm-none-eabi/include/stdint.h"
 1862              		.file 11 "Drivers/STM32F4xx_HAL_Driver/Inc/stm32f4xx_hal_def.h"
 1863              		.file 12 "Drivers/STM32F4xx_HAL_Driver/Inc/stm32f4xx_hal_rcc_ex.h"
 1864              		.file 13 "Drivers/STM32F4xx_HAL_Driver/Inc/stm32f4xx_hal_rcc.h"
 1865              		.file 14 "Drivers/STM32F4xx_HAL_Driver/Inc/stm32f4xx_hal_gpio.h"
 1866              		.file 15 "Drivers/STM32F4xx_HAL_Driver/Inc/stm32f4xx_hal_dma.h"
 1867              		.file 16 "Drivers/STM32F4xx_HAL_Driver/Inc/stm32f4xx_hal_i2c.h"
 1868              		.file 17 "Drivers/STM32F4xx_HAL_Driver/Inc/stm32f4xx_hal_i2s.h"
 1869              		.file 18 "Drivers/STM32F4xx_HAL_Driver/Inc/stm32f4xx_hal_rtc.h"
 1870              		.file 19 "Drivers/STM32F4xx_HAL_Driver/Inc/stm32f4xx_hal_spi.h"
 1871              		.file 20 "Drivers/STM32F4xx_HAL_Driver/Inc/stm32f4xx_hal_uart.h"
 1872              		.file 21 "/usr/arm-none-eabi/include/c++/14.1.0/type_traits"
 1873              		.file 22 "/usr/arm-none-eabi/include/c++/14.1.0/debug/debug.h"
 1874              		.file 23 "/usr/arm-none-eabi/include/c++/14.1.0/cstdint"
 1875              		.file 24 "/usr/arm-none-eabi/include/c++/14.1.0/bits/predefined_ops.h"
 1876              		.file 25 "/usr/arm-none-eabi/include/c++/14.1.0/arm-none-eabi/thumb/v7e-m+fp/hard/bits/c++config.h
 1877              		.file 26 "Core/Inc/sys_const.h"
ARM GAS  /tmp/cc3dJOKu.s 			page 54


 1878              		.file 27 "Test/Inc/audio_test.h"
 1879              		.file 28 "Drivers/STM32F4xx_HAL_Driver/Inc/stm32f4xx_hal_rtc_ex.h"
 1880              		.file 29 "Drivers/STM32F4xx_HAL_Driver/Inc/stm32f4xx_hal.h"
 1881              		.file 30 "Drivers/STM32F4xx_HAL_Driver/Inc/stm32f4xx_hal_pwr.h"
 1882              		.file 31 "Drivers/STM32F4xx_HAL_Driver/Inc/stm32f4xx_hal_cortex.h"
 1883              		.file 32 "Intermediate/Inc/reset_cause.h"
ARM GAS  /tmp/cc3dJOKu.s 			page 55


DEFINED SYMBOLS
                            *ABS*:00000000 main.cpp
     /tmp/cc3dJOKu.s:21     .text._ZN15InterruptObjectI17RTC_HandleTypeDefE19defaultErrorHandlerEv:00000000 $t
     /tmp/cc3dJOKu.s:27     .text._ZN15InterruptObjectI17RTC_HandleTypeDefE19defaultErrorHandlerEv:00000000 _ZN15InterruptObjectI17RTC_HandleTypeDefE19defaultErrorHandlerEv
.ARM.exidx.text._ZN15InterruptObjectI17RTC_HandleTypeDefE19defaultErrorHandlerEv:00000000 $d
     /tmp/cc3dJOKu.s:46     .text._ZN15InterruptObjectI12GPIO_TypeDefE19defaultErrorHandlerEv:00000000 $t
     /tmp/cc3dJOKu.s:52     .text._ZN15InterruptObjectI12GPIO_TypeDefE19defaultErrorHandlerEv:00000000 _ZN15InterruptObjectI12GPIO_TypeDefE19defaultErrorHandlerEv
.ARM.exidx.text._ZN15InterruptObjectI12GPIO_TypeDefE19defaultErrorHandlerEv:00000000 $d
     /tmp/cc3dJOKu.s:70     .text._ZN15InterruptObjectI19__I2S_HandleTypeDefE19defaultErrorHandlerEv:00000000 $t
     /tmp/cc3dJOKu.s:76     .text._ZN15InterruptObjectI19__I2S_HandleTypeDefE19defaultErrorHandlerEv:00000000 _ZN15InterruptObjectI19__I2S_HandleTypeDefE19defaultErrorHandlerEv
.ARM.exidx.text._ZN15InterruptObjectI19__I2S_HandleTypeDefE19defaultErrorHandlerEv:00000000 $d
     /tmp/cc3dJOKu.s:94     .text._Z41__static_initialization_and_destruction_0v:00000000 $t
     /tmp/cc3dJOKu.s:99     .text._Z41__static_initialization_and_destruction_0v:00000000 _Z41__static_initialization_and_destruction_0v
     /tmp/cc3dJOKu.s:250    .text._Z41__static_initialization_and_destruction_0v:00000048 $d
     /tmp/cc3dJOKu.s:1811   .bss.i2sObj:00000000 i2sObj
     /tmp/cc3dJOKu.s:1729   .rodata._ZTV16InterruptHandler:00000000 _ZTV16InterruptHandler
     /tmp/cc3dJOKu.s:1738   .rodata._ZTV15InterruptObjectI19__I2S_HandleTypeDefE:00000000 _ZTV15InterruptObjectI19__I2S_HandleTypeDefE
     /tmp/cc3dJOKu.s:1846   .bss.hi2s2:00000000 hi2s2
     /tmp/cc3dJOKu.s:1747   .rodata._ZTV9i2sObject:00000000 _ZTV9i2sObject
     /tmp/cc3dJOKu.s:1804   .bss.rtcObj:00000000 rtcObj
     /tmp/cc3dJOKu.s:1756   .rodata._ZTV15InterruptObjectI17RTC_HandleTypeDefE:00000000 _ZTV15InterruptObjectI17RTC_HandleTypeDefE
     /tmp/cc3dJOKu.s:1832   .bss.hrtc:00000000 hrtc
     /tmp/cc3dJOKu.s:1797   .bss.gpioObj:00000000 gpioObj
     /tmp/cc3dJOKu.s:1765   .rodata._ZTV15InterruptObjectI12GPIO_TypeDefE:00000000 _ZTV15InterruptObjectI12GPIO_TypeDefE
     /tmp/cc3dJOKu.s:1774   .rodata._ZTV10gpioObject:00000000 _ZTV10gpioObject
.ARM.exidx.text._Z41__static_initialization_and_destruction_0v:00000000 $d
     /tmp/cc3dJOKu.s:272    .text._ZN15InterruptObjectI12GPIO_TypeDefE3irqEv:00000000 $t
     /tmp/cc3dJOKu.s:278    .text._ZN15InterruptObjectI12GPIO_TypeDefE3irqEv:00000000 _ZN15InterruptObjectI12GPIO_TypeDefE3irqEv
.ARM.exidx.text._ZN15InterruptObjectI12GPIO_TypeDefE3irqEv:00000000 $d
     /tmp/cc3dJOKu.s:306    .text._ZN15InterruptObjectI17RTC_HandleTypeDefE3irqEv:00000000 $t
     /tmp/cc3dJOKu.s:312    .text._ZN15InterruptObjectI17RTC_HandleTypeDefE3irqEv:00000000 _ZN15InterruptObjectI17RTC_HandleTypeDefE3irqEv
.ARM.exidx.text._ZN15InterruptObjectI17RTC_HandleTypeDefE3irqEv:00000000 $d
     /tmp/cc3dJOKu.s:340    .text._ZN15InterruptObjectI19__I2S_HandleTypeDefE3irqEv:00000000 $t
     /tmp/cc3dJOKu.s:346    .text._ZN15InterruptObjectI19__I2S_HandleTypeDefE3irqEv:00000000 _ZN15InterruptObjectI19__I2S_HandleTypeDefE3irqEv
.ARM.exidx.text._ZN15InterruptObjectI19__I2S_HandleTypeDefE3irqEv:00000000 $d
     /tmp/cc3dJOKu.s:374    .text._ZL12MX_GPIO_Initv:00000000 $t
     /tmp/cc3dJOKu.s:379    .text._ZL12MX_GPIO_Initv:00000000 _ZL12MX_GPIO_Initv
     /tmp/cc3dJOKu.s:588    .text._ZL12MX_GPIO_Initv:000000f4 $d
.ARM.exidx.text._ZL12MX_GPIO_Initv:00000000 $d
     /tmp/cc3dJOKu.s:596    .text._ZL11MX_DMA_Initv:00000000 $t
     /tmp/cc3dJOKu.s:601    .text._ZL11MX_DMA_Initv:00000000 _ZL11MX_DMA_Initv
     /tmp/cc3dJOKu.s:652    .text._ZL11MX_DMA_Initv:00000030 $d
.ARM.exidx.text._ZL11MX_DMA_Initv:00000000 $d
     /tmp/cc3dJOKu.s:658    .text.HAL_I2S_TxCpltCallback:00000000 $t
     /tmp/cc3dJOKu.s:664    .text.HAL_I2S_TxCpltCallback:00000000 HAL_I2S_TxCpltCallback
     /tmp/cc3dJOKu.s:693    .text.HAL_I2S_TxCpltCallback:00000010 $d
     /tmp/cc3dJOKu.s:1790   .bss.Handlers:00000000 Handlers
.ARM.extab.text.HAL_I2S_TxCpltCallback:00000000 $d
.ARM.exidx.text.HAL_I2S_TxCpltCallback:00000000 $d
     /tmp/cc3dJOKu.s:699    .text.HAL_GPIO_EXTI_Callback:00000000 $t
     /tmp/cc3dJOKu.s:705    .text.HAL_GPIO_EXTI_Callback:00000000 HAL_GPIO_EXTI_Callback
.ARM.exidx.text.HAL_GPIO_EXTI_Callback:00000000 $d
     /tmp/cc3dJOKu.s:722    .text._Z16register_handleriP16InterruptHandler:00000000 $t
     /tmp/cc3dJOKu.s:728    .text._Z16register_handleriP16InterruptHandler:00000000 _Z16register_handleriP16InterruptHandler
     /tmp/cc3dJOKu.s:746    .text._Z16register_handleriP16InterruptHandler:00000008 $d
.ARM.exidx.text._Z16register_handleriP16InterruptHandler:00000000 $d
     /tmp/cc3dJOKu.s:753    .text.Error_Handler:00000000 $t
ARM GAS  /tmp/cc3dJOKu.s 			page 56


     /tmp/cc3dJOKu.s:759    .text.Error_Handler:00000000 Error_Handler
    .ARM.exidx.text.Error_Handler:00000000 $d
     /tmp/cc3dJOKu.s:793    .text._ZL12MX_I2C1_Initv:00000000 $t
     /tmp/cc3dJOKu.s:798    .text._ZL12MX_I2C1_Initv:00000000 _ZL12MX_I2C1_Initv
     /tmp/cc3dJOKu.s:858    .text._ZL12MX_I2C1_Initv:0000002c $d
     /tmp/cc3dJOKu.s:1853   .bss.hi2c1:00000000 hi2c1
.ARM.extab.text._ZL12MX_I2C1_Initv:00000000 $d
.ARM.exidx.text._ZL12MX_I2C1_Initv:00000000 $d
     /tmp/cc3dJOKu.s:866    .text._ZL12MX_I2S2_Initv:00000000 $t
     /tmp/cc3dJOKu.s:871    .text._ZL12MX_I2S2_Initv:00000000 _ZL12MX_I2S2_Initv
     /tmp/cc3dJOKu.s:933    .text._ZL12MX_I2S2_Initv:00000030 $d
.ARM.extab.text._ZL12MX_I2S2_Initv:00000000 $d
.ARM.exidx.text._ZL12MX_I2S2_Initv:00000000 $d
     /tmp/cc3dJOKu.s:941    .text._ZL12MX_SPI1_Initv:00000000 $t
     /tmp/cc3dJOKu.s:946    .text._ZL12MX_SPI1_Initv:00000000 _ZL12MX_SPI1_Initv
     /tmp/cc3dJOKu.s:1016   .text._ZL12MX_SPI1_Initv:00000038 $d
     /tmp/cc3dJOKu.s:1825   .bss.hspi1:00000000 hspi1
.ARM.extab.text._ZL12MX_SPI1_Initv:00000000 $d
.ARM.exidx.text._ZL12MX_SPI1_Initv:00000000 $d
     /tmp/cc3dJOKu.s:1023   .text._ZL19MX_USART1_UART_Initv:00000000 $t
     /tmp/cc3dJOKu.s:1028   .text._ZL19MX_USART1_UART_Initv:00000000 _ZL19MX_USART1_UART_Initv
     /tmp/cc3dJOKu.s:1086   .text._ZL19MX_USART1_UART_Initv:00000030 $d
     /tmp/cc3dJOKu.s:1818   .bss.huart1:00000000 huart1
.ARM.extab.text._ZL19MX_USART1_UART_Initv:00000000 $d
.ARM.exidx.text._ZL19MX_USART1_UART_Initv:00000000 $d
     /tmp/cc3dJOKu.s:1093   .text._ZL11MX_RTC_Initv:00000000 $t
     /tmp/cc3dJOKu.s:1098   .text._ZL11MX_RTC_Initv:00000000 _ZL11MX_RTC_Initv
     /tmp/cc3dJOKu.s:1331   .text._ZL11MX_RTC_Initv:00000100 $d
.ARM.exidx.text._ZL11MX_RTC_Initv:00000000 $d
     /tmp/cc3dJOKu.s:1340   .text._Z18SystemClock_Configv:00000000 $t
     /tmp/cc3dJOKu.s:1346   .text._Z18SystemClock_Configv:00000000 _Z18SystemClock_Configv
     /tmp/cc3dJOKu.s:1514   .text._Z18SystemClock_Configv:000000b4 $d
.ARM.exidx.text._Z18SystemClock_Configv:00000000 $d
     /tmp/cc3dJOKu.s:1521   .text.main:00000000 $t
     /tmp/cc3dJOKu.s:1527   .text.main:00000000 main
     /tmp/cc3dJOKu.s:1595   .text.main:0000003c $d
             .ARM.exidx.text.main:00000000 $d
     /tmp/cc3dJOKu.s:1601   .text._GLOBAL__sub_I_hi2c1:00000000 $t
     /tmp/cc3dJOKu.s:1606   .text._GLOBAL__sub_I_hi2c1:00000000 _GLOBAL__sub_I_hi2c1
.ARM.exidx.text._GLOBAL__sub_I_hi2c1:00000000 $d
     /tmp/cc3dJOKu.s:1627   .init_array:00000000 $d
     /tmp/cc3dJOKu.s:1634   .rodata._ZTS16InterruptHandler:00000000 _ZTS16InterruptHandler
     /tmp/cc3dJOKu.s:1631   .rodata._ZTS16InterruptHandler:00000000 $d
     /tmp/cc3dJOKu.s:1641   .rodata._ZTI16InterruptHandler:00000000 _ZTI16InterruptHandler
     /tmp/cc3dJOKu.s:1638   .rodata._ZTI16InterruptHandler:00000000 $d
     /tmp/cc3dJOKu.s:1649   .rodata._ZTS15InterruptObjectI19__I2S_HandleTypeDefE:00000000 _ZTS15InterruptObjectI19__I2S_HandleTypeDefE
     /tmp/cc3dJOKu.s:1646   .rodata._ZTS15InterruptObjectI19__I2S_HandleTypeDefE:00000000 $d
     /tmp/cc3dJOKu.s:1656   .rodata._ZTI15InterruptObjectI19__I2S_HandleTypeDefE:00000000 _ZTI15InterruptObjectI19__I2S_HandleTypeDefE
     /tmp/cc3dJOKu.s:1653   .rodata._ZTI15InterruptObjectI19__I2S_HandleTypeDefE:00000000 $d
     /tmp/cc3dJOKu.s:1665   .rodata._ZTS9i2sObject:00000000 _ZTS9i2sObject
     /tmp/cc3dJOKu.s:1662   .rodata._ZTS9i2sObject:00000000 $d
     /tmp/cc3dJOKu.s:1672   .rodata._ZTI9i2sObject:00000000 _ZTI9i2sObject
     /tmp/cc3dJOKu.s:1669   .rodata._ZTI9i2sObject:00000000 $d
     /tmp/cc3dJOKu.s:1681   .rodata._ZTS15InterruptObjectI17RTC_HandleTypeDefE:00000000 _ZTS15InterruptObjectI17RTC_HandleTypeDefE
     /tmp/cc3dJOKu.s:1678   .rodata._ZTS15InterruptObjectI17RTC_HandleTypeDefE:00000000 $d
     /tmp/cc3dJOKu.s:1688   .rodata._ZTI15InterruptObjectI17RTC_HandleTypeDefE:00000000 _ZTI15InterruptObjectI17RTC_HandleTypeDefE
     /tmp/cc3dJOKu.s:1685   .rodata._ZTI15InterruptObjectI17RTC_HandleTypeDefE:00000000 $d
ARM GAS  /tmp/cc3dJOKu.s 			page 57


     /tmp/cc3dJOKu.s:1697   .rodata._ZTS15InterruptObjectI12GPIO_TypeDefE:00000000 _ZTS15InterruptObjectI12GPIO_TypeDefE
     /tmp/cc3dJOKu.s:1694   .rodata._ZTS15InterruptObjectI12GPIO_TypeDefE:00000000 $d
     /tmp/cc3dJOKu.s:1704   .rodata._ZTI15InterruptObjectI12GPIO_TypeDefE:00000000 _ZTI15InterruptObjectI12GPIO_TypeDefE
     /tmp/cc3dJOKu.s:1701   .rodata._ZTI15InterruptObjectI12GPIO_TypeDefE:00000000 $d
     /tmp/cc3dJOKu.s:1713   .rodata._ZTS10gpioObject:00000000 _ZTS10gpioObject
     /tmp/cc3dJOKu.s:1710   .rodata._ZTS10gpioObject:00000000 $d
     /tmp/cc3dJOKu.s:1720   .rodata._ZTI10gpioObject:00000000 _ZTI10gpioObject
     /tmp/cc3dJOKu.s:1717   .rodata._ZTI10gpioObject:00000000 $d
     /tmp/cc3dJOKu.s:1726   .rodata._ZTV16InterruptHandler:00000000 $d
     /tmp/cc3dJOKu.s:1735   .rodata._ZTV15InterruptObjectI19__I2S_HandleTypeDefE:00000000 $d
     /tmp/cc3dJOKu.s:1744   .rodata._ZTV9i2sObject:00000000 $d
     /tmp/cc3dJOKu.s:1753   .rodata._ZTV15InterruptObjectI17RTC_HandleTypeDefE:00000000 $d
     /tmp/cc3dJOKu.s:1762   .rodata._ZTV15InterruptObjectI12GPIO_TypeDefE:00000000 $d
     /tmp/cc3dJOKu.s:1771   .rodata._ZTV10gpioObject:00000000 $d
     /tmp/cc3dJOKu.s:1783   .bss.latestResetCause:00000000 latestResetCause
     /tmp/cc3dJOKu.s:1780   .bss.latestResetCause:00000000 $d
     /tmp/cc3dJOKu.s:1787   .bss.Handlers:00000000 $d
     /tmp/cc3dJOKu.s:1794   .bss.gpioObj:00000000 $d
     /tmp/cc3dJOKu.s:1801   .bss.rtcObj:00000000 $d
     /tmp/cc3dJOKu.s:1808   .bss.i2sObj:00000000 $d
     /tmp/cc3dJOKu.s:1815   .bss.huart1:00000000 $d
     /tmp/cc3dJOKu.s:1822   .bss.hspi1:00000000 $d
     /tmp/cc3dJOKu.s:1829   .bss.hrtc:00000000 $d
     /tmp/cc3dJOKu.s:1839   .bss.hdma_spi2_tx:00000000 hdma_spi2_tx
     /tmp/cc3dJOKu.s:1836   .bss.hdma_spi2_tx:00000000 $d
     /tmp/cc3dJOKu.s:1843   .bss.hi2s2:00000000 $d
     /tmp/cc3dJOKu.s:1850   .bss.hi2c1:00000000 $d

UNDEFINED SYMBOLS
_ZTV9rtcObject
HAL_GPIO_WritePin
HAL_GPIO_Init
HAL_NVIC_SetPriority
HAL_NVIC_EnableIRQ
__aeabi_unwind_cpp_pr0
__aeabi_unwind_cpp_pr1
HAL_I2C_Init
HAL_I2S_Init
HAL_SPI_Init
HAL_UART_Init
memset
HAL_RTC_Init
HAL_RTCEx_BKUPRead
HAL_RTC_SetTime
HAL_RTC_SetDate
HAL_RTC_SetAlarm_IT
HAL_PWR_EnableBkUpAccess
HAL_Delay
HAL_RTCEx_BKUPWrite
HAL_PWR_DisableBkUpAccess
HAL_RCC_OscConfig
HAL_RCC_ClockConfig
HAL_RCC_MCOConfig
HAL_Init
_ZN10gpioObject6setPinEt
_ZN10gpioObject8resetPinEt
_ZTVN10__cxxabiv117__class_type_infoE
ARM GAS  /tmp/cc3dJOKu.s 			page 58


_ZTVN10__cxxabiv120__si_class_type_infoE
__cxa_pure_virtual
