ARM GAS  /tmp/cc8XWiN3.s 			page 1


   1              		.cpu cortex-m4
   2              		.arch armv7e-m
   3              		.fpu fpv4-sp-d16
   4              		.eabi_attribute 27, 1
   5              		.eabi_attribute 28, 1
   6              		.eabi_attribute 20, 1
   7              		.eabi_attribute 21, 1
   8              		.eabi_attribute 23, 3
   9              		.eabi_attribute 24, 1
  10              		.eabi_attribute 25, 1
  11              		.eabi_attribute 26, 1
  12              		.eabi_attribute 30, 1
  13              		.eabi_attribute 34, 1
  14              		.eabi_attribute 18, 4
  15              		.file	"stm32f4xx_hal_rtc_ex.c"
  16              		.text
  17              	.Ltext0:
  18              		.cfi_sections	.debug_frame
  19              		.file 1 "Drivers/STM32F4xx_HAL_Driver/Src/stm32f4xx_hal_rtc_ex.c"
  20              		.section	.text.HAL_RTCEx_SetTimeStamp,"ax",%progbits
  21              		.align	1
  22              		.global	HAL_RTCEx_SetTimeStamp
  23              		.syntax unified
  24              		.thumb
  25              		.thumb_func
  27              	HAL_RTCEx_SetTimeStamp:
  28              	.LVL0:
  29              	.LFB130:
   1:Drivers/STM32F4xx_HAL_Driver/Src/stm32f4xx_hal_rtc_ex.c **** /**
   2:Drivers/STM32F4xx_HAL_Driver/Src/stm32f4xx_hal_rtc_ex.c ****   ******************************************************************************
   3:Drivers/STM32F4xx_HAL_Driver/Src/stm32f4xx_hal_rtc_ex.c ****   * @file    stm32f4xx_hal_rtc_ex.c
   4:Drivers/STM32F4xx_HAL_Driver/Src/stm32f4xx_hal_rtc_ex.c ****   * @author  MCD Application Team
   5:Drivers/STM32F4xx_HAL_Driver/Src/stm32f4xx_hal_rtc_ex.c ****   * @brief   Extended RTC HAL module driver.
   6:Drivers/STM32F4xx_HAL_Driver/Src/stm32f4xx_hal_rtc_ex.c ****   *          This file provides firmware functions to manage the following
   7:Drivers/STM32F4xx_HAL_Driver/Src/stm32f4xx_hal_rtc_ex.c ****   *          functionalities of the Real-Time Clock (RTC) Extended peripheral:
   8:Drivers/STM32F4xx_HAL_Driver/Src/stm32f4xx_hal_rtc_ex.c ****   *           + RTC Timestamp functions
   9:Drivers/STM32F4xx_HAL_Driver/Src/stm32f4xx_hal_rtc_ex.c ****   *           + RTC Tamper functions
  10:Drivers/STM32F4xx_HAL_Driver/Src/stm32f4xx_hal_rtc_ex.c ****   *           + RTC Wakeup functions
  11:Drivers/STM32F4xx_HAL_Driver/Src/stm32f4xx_hal_rtc_ex.c ****   *           + Extended Control functions
  12:Drivers/STM32F4xx_HAL_Driver/Src/stm32f4xx_hal_rtc_ex.c ****   *           + Extended RTC features functions
  13:Drivers/STM32F4xx_HAL_Driver/Src/stm32f4xx_hal_rtc_ex.c ****   *
  14:Drivers/STM32F4xx_HAL_Driver/Src/stm32f4xx_hal_rtc_ex.c ****   ******************************************************************************
  15:Drivers/STM32F4xx_HAL_Driver/Src/stm32f4xx_hal_rtc_ex.c ****   * @attention
  16:Drivers/STM32F4xx_HAL_Driver/Src/stm32f4xx_hal_rtc_ex.c ****   *
  17:Drivers/STM32F4xx_HAL_Driver/Src/stm32f4xx_hal_rtc_ex.c ****   * Copyright (c) 2017 STMicroelectronics.
  18:Drivers/STM32F4xx_HAL_Driver/Src/stm32f4xx_hal_rtc_ex.c ****   * All rights reserved.
  19:Drivers/STM32F4xx_HAL_Driver/Src/stm32f4xx_hal_rtc_ex.c ****   *
  20:Drivers/STM32F4xx_HAL_Driver/Src/stm32f4xx_hal_rtc_ex.c ****   * This software is licensed under terms that can be found in the LICENSE file
  21:Drivers/STM32F4xx_HAL_Driver/Src/stm32f4xx_hal_rtc_ex.c ****   * in the root directory of this software component.
  22:Drivers/STM32F4xx_HAL_Driver/Src/stm32f4xx_hal_rtc_ex.c ****   * If no LICENSE file comes with this software, it is provided AS-IS.
  23:Drivers/STM32F4xx_HAL_Driver/Src/stm32f4xx_hal_rtc_ex.c ****   *
  24:Drivers/STM32F4xx_HAL_Driver/Src/stm32f4xx_hal_rtc_ex.c ****   ******************************************************************************
  25:Drivers/STM32F4xx_HAL_Driver/Src/stm32f4xx_hal_rtc_ex.c ****   @verbatim
  26:Drivers/STM32F4xx_HAL_Driver/Src/stm32f4xx_hal_rtc_ex.c ****   ==============================================================================
  27:Drivers/STM32F4xx_HAL_Driver/Src/stm32f4xx_hal_rtc_ex.c ****                         ##### How to use this driver #####
  28:Drivers/STM32F4xx_HAL_Driver/Src/stm32f4xx_hal_rtc_ex.c ****   ==============================================================================
  29:Drivers/STM32F4xx_HAL_Driver/Src/stm32f4xx_hal_rtc_ex.c ****   [..]
ARM GAS  /tmp/cc8XWiN3.s 			page 2


  30:Drivers/STM32F4xx_HAL_Driver/Src/stm32f4xx_hal_rtc_ex.c ****     (+) Enable the RTC domain access.
  31:Drivers/STM32F4xx_HAL_Driver/Src/stm32f4xx_hal_rtc_ex.c ****     (+) Configure the RTC Prescaler (Asynchronous and Synchronous) and RTC hour
  32:Drivers/STM32F4xx_HAL_Driver/Src/stm32f4xx_hal_rtc_ex.c ****         format using the HAL_RTC_Init() function.
  33:Drivers/STM32F4xx_HAL_Driver/Src/stm32f4xx_hal_rtc_ex.c **** 
  34:Drivers/STM32F4xx_HAL_Driver/Src/stm32f4xx_hal_rtc_ex.c ****   *** RTC Wakeup configuration ***
  35:Drivers/STM32F4xx_HAL_Driver/Src/stm32f4xx_hal_rtc_ex.c ****   ================================
  36:Drivers/STM32F4xx_HAL_Driver/Src/stm32f4xx_hal_rtc_ex.c ****   [..]
  37:Drivers/STM32F4xx_HAL_Driver/Src/stm32f4xx_hal_rtc_ex.c ****     (+) To configure the RTC Wakeup Clock source and Counter use the
  38:Drivers/STM32F4xx_HAL_Driver/Src/stm32f4xx_hal_rtc_ex.c ****         HAL_RTCEx_SetWakeUpTimer() function.
  39:Drivers/STM32F4xx_HAL_Driver/Src/stm32f4xx_hal_rtc_ex.c ****         You can also configure the RTC Wakeup timer in interrupt mode using the
  40:Drivers/STM32F4xx_HAL_Driver/Src/stm32f4xx_hal_rtc_ex.c ****         HAL_RTCEx_SetWakeUpTimer_IT() function.
  41:Drivers/STM32F4xx_HAL_Driver/Src/stm32f4xx_hal_rtc_ex.c ****     (+) To read the RTC Wakeup Counter register, use the HAL_RTCEx_GetWakeUpTimer()
  42:Drivers/STM32F4xx_HAL_Driver/Src/stm32f4xx_hal_rtc_ex.c ****         function.
  43:Drivers/STM32F4xx_HAL_Driver/Src/stm32f4xx_hal_rtc_ex.c **** 
  44:Drivers/STM32F4xx_HAL_Driver/Src/stm32f4xx_hal_rtc_ex.c ****   *** Timestamp configuration ***
  45:Drivers/STM32F4xx_HAL_Driver/Src/stm32f4xx_hal_rtc_ex.c ****   ===============================
  46:Drivers/STM32F4xx_HAL_Driver/Src/stm32f4xx_hal_rtc_ex.c ****   [..]
  47:Drivers/STM32F4xx_HAL_Driver/Src/stm32f4xx_hal_rtc_ex.c ****     (+) To configure the RTC Timestamp use the HAL_RTCEx_SetTimeStamp() function.
  48:Drivers/STM32F4xx_HAL_Driver/Src/stm32f4xx_hal_rtc_ex.c ****         You can also configure the RTC Timestamp with interrupt mode using the
  49:Drivers/STM32F4xx_HAL_Driver/Src/stm32f4xx_hal_rtc_ex.c ****         HAL_RTCEx_SetTimeStamp_IT() function.
  50:Drivers/STM32F4xx_HAL_Driver/Src/stm32f4xx_hal_rtc_ex.c ****     (+) To read the RTC Timestamp Time and Date register, use the
  51:Drivers/STM32F4xx_HAL_Driver/Src/stm32f4xx_hal_rtc_ex.c ****         HAL_RTCEx_GetTimeStamp() function.
  52:Drivers/STM32F4xx_HAL_Driver/Src/stm32f4xx_hal_rtc_ex.c ****     (+) The Timestamp alternate function can be mapped either to RTC_AF1 (PC13)
  53:Drivers/STM32F4xx_HAL_Driver/Src/stm32f4xx_hal_rtc_ex.c ****         or RTC_AF2 (PI8) depending on the value of TSINSEL bit in RTC_TAFCR
  54:Drivers/STM32F4xx_HAL_Driver/Src/stm32f4xx_hal_rtc_ex.c ****         register.
  55:Drivers/STM32F4xx_HAL_Driver/Src/stm32f4xx_hal_rtc_ex.c ****         For STM32F446xx devices RTC_AF2 corresponds to pin PA0 and not to pin PI8.
  56:Drivers/STM32F4xx_HAL_Driver/Src/stm32f4xx_hal_rtc_ex.c ****         The corresponding pin is also selected by HAL_RTCEx_SetTimeStamp()
  57:Drivers/STM32F4xx_HAL_Driver/Src/stm32f4xx_hal_rtc_ex.c ****         or HAL_RTCEx_SetTimeStamp_IT() functions.
  58:Drivers/STM32F4xx_HAL_Driver/Src/stm32f4xx_hal_rtc_ex.c **** 
  59:Drivers/STM32F4xx_HAL_Driver/Src/stm32f4xx_hal_rtc_ex.c ****   *** Tamper configuration ***
  60:Drivers/STM32F4xx_HAL_Driver/Src/stm32f4xx_hal_rtc_ex.c ****   ============================
  61:Drivers/STM32F4xx_HAL_Driver/Src/stm32f4xx_hal_rtc_ex.c ****   [..]
  62:Drivers/STM32F4xx_HAL_Driver/Src/stm32f4xx_hal_rtc_ex.c ****     (+) To Enable the RTC Tamper and configure the Tamper filter count, trigger
  63:Drivers/STM32F4xx_HAL_Driver/Src/stm32f4xx_hal_rtc_ex.c ****         Edge or Level according to the Tamper filter value (if equal to 0 Edge
  64:Drivers/STM32F4xx_HAL_Driver/Src/stm32f4xx_hal_rtc_ex.c ****         else Level), sampling frequency, precharge or discharge and Pull-UP use
  65:Drivers/STM32F4xx_HAL_Driver/Src/stm32f4xx_hal_rtc_ex.c ****         the HAL_RTCEx_SetTamper() function.
  66:Drivers/STM32F4xx_HAL_Driver/Src/stm32f4xx_hal_rtc_ex.c ****         You can configure RTC Tamper in interrupt mode using HAL_RTCEx_SetTamper_IT()
  67:Drivers/STM32F4xx_HAL_Driver/Src/stm32f4xx_hal_rtc_ex.c ****         function.
  68:Drivers/STM32F4xx_HAL_Driver/Src/stm32f4xx_hal_rtc_ex.c ****     (+) The TAMPER1 alternate function can be mapped either to RTC_AF1 (PC13)
  69:Drivers/STM32F4xx_HAL_Driver/Src/stm32f4xx_hal_rtc_ex.c ****         or RTC_AF2 (PI8) depending on the value of TAMP1INSEL bit in RTC_TAFCR
  70:Drivers/STM32F4xx_HAL_Driver/Src/stm32f4xx_hal_rtc_ex.c ****         register.
  71:Drivers/STM32F4xx_HAL_Driver/Src/stm32f4xx_hal_rtc_ex.c ****         The corresponding pin is also selected by HAL_RTCEx_SetTamper()
  72:Drivers/STM32F4xx_HAL_Driver/Src/stm32f4xx_hal_rtc_ex.c ****         or HAL_RTCEx_SetTamper_IT() functions.
  73:Drivers/STM32F4xx_HAL_Driver/Src/stm32f4xx_hal_rtc_ex.c ****     (+) The TAMPER2 alternate function is mapped to RTC_AF2 (PI8).
  74:Drivers/STM32F4xx_HAL_Driver/Src/stm32f4xx_hal_rtc_ex.c ****         For STM32F446xx devices RTC_AF2 corresponds to pin PA0 and not to pin PI8.
  75:Drivers/STM32F4xx_HAL_Driver/Src/stm32f4xx_hal_rtc_ex.c **** 
  76:Drivers/STM32F4xx_HAL_Driver/Src/stm32f4xx_hal_rtc_ex.c ****   *** Backup Data Registers configuration ***
  77:Drivers/STM32F4xx_HAL_Driver/Src/stm32f4xx_hal_rtc_ex.c ****   ===========================================
  78:Drivers/STM32F4xx_HAL_Driver/Src/stm32f4xx_hal_rtc_ex.c ****   [..]
  79:Drivers/STM32F4xx_HAL_Driver/Src/stm32f4xx_hal_rtc_ex.c ****     (+) To write to the RTC Backup Data registers, use the HAL_RTCEx_BKUPWrite()
  80:Drivers/STM32F4xx_HAL_Driver/Src/stm32f4xx_hal_rtc_ex.c ****         function.
  81:Drivers/STM32F4xx_HAL_Driver/Src/stm32f4xx_hal_rtc_ex.c ****     (+) To read the RTC Backup Data registers, use the HAL_RTCEx_BKUPRead()
  82:Drivers/STM32F4xx_HAL_Driver/Src/stm32f4xx_hal_rtc_ex.c ****         function.
  83:Drivers/STM32F4xx_HAL_Driver/Src/stm32f4xx_hal_rtc_ex.c **** 
  84:Drivers/STM32F4xx_HAL_Driver/Src/stm32f4xx_hal_rtc_ex.c ****   *** Coarse Digital Calibration configuration ***
  85:Drivers/STM32F4xx_HAL_Driver/Src/stm32f4xx_hal_rtc_ex.c ****   ================================================
  86:Drivers/STM32F4xx_HAL_Driver/Src/stm32f4xx_hal_rtc_ex.c ****   [..]
ARM GAS  /tmp/cc8XWiN3.s 			page 3


  87:Drivers/STM32F4xx_HAL_Driver/Src/stm32f4xx_hal_rtc_ex.c ****     (+) The Coarse Digital Calibration can be used to compensate crystal inaccuracy
  88:Drivers/STM32F4xx_HAL_Driver/Src/stm32f4xx_hal_rtc_ex.c ****         by setting the DCS bit in RTC_CALIBR register.
  89:Drivers/STM32F4xx_HAL_Driver/Src/stm32f4xx_hal_rtc_ex.c ****     (+) When positive calibration is enabled (DCS = ‘0’), 2 asynchronous prescaler
  90:Drivers/STM32F4xx_HAL_Driver/Src/stm32f4xx_hal_rtc_ex.c ****         clock cycles are added every minute during 2xDC minutes.
  91:Drivers/STM32F4xx_HAL_Driver/Src/stm32f4xx_hal_rtc_ex.c ****         This causes the calendar to be updated sooner, thereby adjusting the
  92:Drivers/STM32F4xx_HAL_Driver/Src/stm32f4xx_hal_rtc_ex.c ****         effective RTC frequency to be a bit higher.
  93:Drivers/STM32F4xx_HAL_Driver/Src/stm32f4xx_hal_rtc_ex.c ****     (+) When negative calibration is enabled (DCS = ‘1’), 1 asynchronous prescaler
  94:Drivers/STM32F4xx_HAL_Driver/Src/stm32f4xx_hal_rtc_ex.c ****         clock cycle is removed every minute during 2xDC minutes.
  95:Drivers/STM32F4xx_HAL_Driver/Src/stm32f4xx_hal_rtc_ex.c ****         This causes the calendar to be updated later, thereby adjusting the
  96:Drivers/STM32F4xx_HAL_Driver/Src/stm32f4xx_hal_rtc_ex.c ****         effective RTC frequency to be a bit lower.
  97:Drivers/STM32F4xx_HAL_Driver/Src/stm32f4xx_hal_rtc_ex.c ****     (+) DC is configured through bits DC[4:0] of RTC_CALIBR register. This number
  98:Drivers/STM32F4xx_HAL_Driver/Src/stm32f4xx_hal_rtc_ex.c ****         ranges from 0 to 31 corresponding to a time interval (2xDC) ranging from
  99:Drivers/STM32F4xx_HAL_Driver/Src/stm32f4xx_hal_rtc_ex.c ****         0 to 62.
 100:Drivers/STM32F4xx_HAL_Driver/Src/stm32f4xx_hal_rtc_ex.c ****     (+) In order to measure the clock deviation, a 512 Hz clock is output for
 101:Drivers/STM32F4xx_HAL_Driver/Src/stm32f4xx_hal_rtc_ex.c ****         calibration.
 102:Drivers/STM32F4xx_HAL_Driver/Src/stm32f4xx_hal_rtc_ex.c ****     (+) The RTC Coarse Digital Calibration value and sign can be calibrated using
 103:Drivers/STM32F4xx_HAL_Driver/Src/stm32f4xx_hal_rtc_ex.c ****         the HAL_RTCEx_SetCoarseCalib() function.
 104:Drivers/STM32F4xx_HAL_Driver/Src/stm32f4xx_hal_rtc_ex.c **** 
 105:Drivers/STM32F4xx_HAL_Driver/Src/stm32f4xx_hal_rtc_ex.c ****   *** Smooth Digital Calibration configuration ***
 106:Drivers/STM32F4xx_HAL_Driver/Src/stm32f4xx_hal_rtc_ex.c ****   ================================================
 107:Drivers/STM32F4xx_HAL_Driver/Src/stm32f4xx_hal_rtc_ex.c ****   [..]
 108:Drivers/STM32F4xx_HAL_Driver/Src/stm32f4xx_hal_rtc_ex.c ****     (+) RTC frequency can be digitally calibrated with a resolution of about
 109:Drivers/STM32F4xx_HAL_Driver/Src/stm32f4xx_hal_rtc_ex.c ****         0.954 ppm with a range from -487.1 ppm to +488.5 ppm.
 110:Drivers/STM32F4xx_HAL_Driver/Src/stm32f4xx_hal_rtc_ex.c ****         The correction of the frequency is performed using a series of small
 111:Drivers/STM32F4xx_HAL_Driver/Src/stm32f4xx_hal_rtc_ex.c ****         adjustments (adding and/or subtracting individual RTCCLK pulses).
 112:Drivers/STM32F4xx_HAL_Driver/Src/stm32f4xx_hal_rtc_ex.c ****     (+) The smooth digital calibration is performed during a cycle of about 2^20
 113:Drivers/STM32F4xx_HAL_Driver/Src/stm32f4xx_hal_rtc_ex.c ****         RTCCLK pulses (or 32 seconds) when the input frequency is 32,768 Hz.
 114:Drivers/STM32F4xx_HAL_Driver/Src/stm32f4xx_hal_rtc_ex.c ****         This cycle is maintained by a 20-bit counter clocked by RTCCLK.
 115:Drivers/STM32F4xx_HAL_Driver/Src/stm32f4xx_hal_rtc_ex.c ****     (+) The smooth calibration register (RTC_CALR) specifies the number of RTCCLK
 116:Drivers/STM32F4xx_HAL_Driver/Src/stm32f4xx_hal_rtc_ex.c ****         clock cycles to be masked during the 32-second cycle.
 117:Drivers/STM32F4xx_HAL_Driver/Src/stm32f4xx_hal_rtc_ex.c ****     (+) The RTC Smooth Digital Calibration value and the corresponding calibration
 118:Drivers/STM32F4xx_HAL_Driver/Src/stm32f4xx_hal_rtc_ex.c ****         cycle period (32s, 16s, or 8s) can be calibrated using the
 119:Drivers/STM32F4xx_HAL_Driver/Src/stm32f4xx_hal_rtc_ex.c ****         HAL_RTCEx_SetSmoothCalib() function.
 120:Drivers/STM32F4xx_HAL_Driver/Src/stm32f4xx_hal_rtc_ex.c **** 
 121:Drivers/STM32F4xx_HAL_Driver/Src/stm32f4xx_hal_rtc_ex.c ****   @endverbatim
 122:Drivers/STM32F4xx_HAL_Driver/Src/stm32f4xx_hal_rtc_ex.c ****   ******************************************************************************
 123:Drivers/STM32F4xx_HAL_Driver/Src/stm32f4xx_hal_rtc_ex.c ****   */
 124:Drivers/STM32F4xx_HAL_Driver/Src/stm32f4xx_hal_rtc_ex.c **** 
 125:Drivers/STM32F4xx_HAL_Driver/Src/stm32f4xx_hal_rtc_ex.c **** /* Includes ------------------------------------------------------------------*/
 126:Drivers/STM32F4xx_HAL_Driver/Src/stm32f4xx_hal_rtc_ex.c **** #include "stm32f4xx_hal.h"
 127:Drivers/STM32F4xx_HAL_Driver/Src/stm32f4xx_hal_rtc_ex.c **** 
 128:Drivers/STM32F4xx_HAL_Driver/Src/stm32f4xx_hal_rtc_ex.c **** /** @addtogroup STM32F4xx_HAL_Driver
 129:Drivers/STM32F4xx_HAL_Driver/Src/stm32f4xx_hal_rtc_ex.c ****   * @{
 130:Drivers/STM32F4xx_HAL_Driver/Src/stm32f4xx_hal_rtc_ex.c ****   */
 131:Drivers/STM32F4xx_HAL_Driver/Src/stm32f4xx_hal_rtc_ex.c **** 
 132:Drivers/STM32F4xx_HAL_Driver/Src/stm32f4xx_hal_rtc_ex.c **** /** @defgroup RTCEx RTCEx
 133:Drivers/STM32F4xx_HAL_Driver/Src/stm32f4xx_hal_rtc_ex.c ****   * @brief    RTC Extended HAL module driver
 134:Drivers/STM32F4xx_HAL_Driver/Src/stm32f4xx_hal_rtc_ex.c ****   * @{
 135:Drivers/STM32F4xx_HAL_Driver/Src/stm32f4xx_hal_rtc_ex.c ****   */
 136:Drivers/STM32F4xx_HAL_Driver/Src/stm32f4xx_hal_rtc_ex.c **** 
 137:Drivers/STM32F4xx_HAL_Driver/Src/stm32f4xx_hal_rtc_ex.c **** #ifdef HAL_RTC_MODULE_ENABLED
 138:Drivers/STM32F4xx_HAL_Driver/Src/stm32f4xx_hal_rtc_ex.c **** 
 139:Drivers/STM32F4xx_HAL_Driver/Src/stm32f4xx_hal_rtc_ex.c **** /* Private typedef -----------------------------------------------------------*/
 140:Drivers/STM32F4xx_HAL_Driver/Src/stm32f4xx_hal_rtc_ex.c **** /* Private define ------------------------------------------------------------*/
 141:Drivers/STM32F4xx_HAL_Driver/Src/stm32f4xx_hal_rtc_ex.c **** /* Private macro -------------------------------------------------------------*/
 142:Drivers/STM32F4xx_HAL_Driver/Src/stm32f4xx_hal_rtc_ex.c **** /* Private variables ---------------------------------------------------------*/
 143:Drivers/STM32F4xx_HAL_Driver/Src/stm32f4xx_hal_rtc_ex.c **** /* Private function prototypes -----------------------------------------------*/
ARM GAS  /tmp/cc8XWiN3.s 			page 4


 144:Drivers/STM32F4xx_HAL_Driver/Src/stm32f4xx_hal_rtc_ex.c **** /* Exported functions --------------------------------------------------------*/
 145:Drivers/STM32F4xx_HAL_Driver/Src/stm32f4xx_hal_rtc_ex.c **** 
 146:Drivers/STM32F4xx_HAL_Driver/Src/stm32f4xx_hal_rtc_ex.c **** /** @defgroup RTCEx_Exported_Functions RTCEx Exported Functions
 147:Drivers/STM32F4xx_HAL_Driver/Src/stm32f4xx_hal_rtc_ex.c ****   * @{
 148:Drivers/STM32F4xx_HAL_Driver/Src/stm32f4xx_hal_rtc_ex.c ****   */
 149:Drivers/STM32F4xx_HAL_Driver/Src/stm32f4xx_hal_rtc_ex.c **** 
 150:Drivers/STM32F4xx_HAL_Driver/Src/stm32f4xx_hal_rtc_ex.c **** /** @defgroup RTCEx_Exported_Functions_Group1 RTC Timestamp and Tamper functions
 151:Drivers/STM32F4xx_HAL_Driver/Src/stm32f4xx_hal_rtc_ex.c ****   * @brief    RTC Timestamp and Tamper functions
 152:Drivers/STM32F4xx_HAL_Driver/Src/stm32f4xx_hal_rtc_ex.c ****   *
 153:Drivers/STM32F4xx_HAL_Driver/Src/stm32f4xx_hal_rtc_ex.c **** @verbatim
 154:Drivers/STM32F4xx_HAL_Driver/Src/stm32f4xx_hal_rtc_ex.c ****  ===============================================================================
 155:Drivers/STM32F4xx_HAL_Driver/Src/stm32f4xx_hal_rtc_ex.c ****                  ##### RTC Timestamp and Tamper functions #####
 156:Drivers/STM32F4xx_HAL_Driver/Src/stm32f4xx_hal_rtc_ex.c ****  ===============================================================================
 157:Drivers/STM32F4xx_HAL_Driver/Src/stm32f4xx_hal_rtc_ex.c **** 
 158:Drivers/STM32F4xx_HAL_Driver/Src/stm32f4xx_hal_rtc_ex.c ****  [..] This section provides functions allowing to configure Timestamp feature
 159:Drivers/STM32F4xx_HAL_Driver/Src/stm32f4xx_hal_rtc_ex.c **** 
 160:Drivers/STM32F4xx_HAL_Driver/Src/stm32f4xx_hal_rtc_ex.c **** @endverbatim
 161:Drivers/STM32F4xx_HAL_Driver/Src/stm32f4xx_hal_rtc_ex.c ****   * @{
 162:Drivers/STM32F4xx_HAL_Driver/Src/stm32f4xx_hal_rtc_ex.c ****   */
 163:Drivers/STM32F4xx_HAL_Driver/Src/stm32f4xx_hal_rtc_ex.c **** 
 164:Drivers/STM32F4xx_HAL_Driver/Src/stm32f4xx_hal_rtc_ex.c **** /**
 165:Drivers/STM32F4xx_HAL_Driver/Src/stm32f4xx_hal_rtc_ex.c ****   * @brief  Sets Timestamp.
 166:Drivers/STM32F4xx_HAL_Driver/Src/stm32f4xx_hal_rtc_ex.c ****   * @note   This API must be called before enabling the Timestamp feature.
 167:Drivers/STM32F4xx_HAL_Driver/Src/stm32f4xx_hal_rtc_ex.c ****   * @param  hrtc pointer to a RTC_HandleTypeDef structure that contains
 168:Drivers/STM32F4xx_HAL_Driver/Src/stm32f4xx_hal_rtc_ex.c ****   *                the configuration information for RTC.
 169:Drivers/STM32F4xx_HAL_Driver/Src/stm32f4xx_hal_rtc_ex.c ****   * @param  RTC_TimeStampEdge Specifies the pin edge on which the Timestamp is
 170:Drivers/STM32F4xx_HAL_Driver/Src/stm32f4xx_hal_rtc_ex.c ****   *         activated.
 171:Drivers/STM32F4xx_HAL_Driver/Src/stm32f4xx_hal_rtc_ex.c ****   *          This parameter can be one of the following values:
 172:Drivers/STM32F4xx_HAL_Driver/Src/stm32f4xx_hal_rtc_ex.c ****   *             @arg RTC_TIMESTAMPEDGE_RISING: the Timestamp event occurs on
 173:Drivers/STM32F4xx_HAL_Driver/Src/stm32f4xx_hal_rtc_ex.c ****   *                                        the rising edge of the related pin.
 174:Drivers/STM32F4xx_HAL_Driver/Src/stm32f4xx_hal_rtc_ex.c ****   *             @arg RTC_TIMESTAMPEDGE_FALLING: the Timestamp event occurs on
 175:Drivers/STM32F4xx_HAL_Driver/Src/stm32f4xx_hal_rtc_ex.c ****   *                                        the falling edge of the related pin.
 176:Drivers/STM32F4xx_HAL_Driver/Src/stm32f4xx_hal_rtc_ex.c ****   * @param  RTC_TimeStampPin Specifies the RTC Timestamp Pin.
 177:Drivers/STM32F4xx_HAL_Driver/Src/stm32f4xx_hal_rtc_ex.c ****   *          This parameter can be one of the following values:
 178:Drivers/STM32F4xx_HAL_Driver/Src/stm32f4xx_hal_rtc_ex.c ****   *             @arg RTC_TIMESTAMPPIN_DEFAULT: PC13 is selected as RTC Timestamp Pin.
 179:Drivers/STM32F4xx_HAL_Driver/Src/stm32f4xx_hal_rtc_ex.c ****   *             @arg RTC_TIMESTAMPPIN_POS1: PI8 is selected as RTC Timestamp Pin.
 180:Drivers/STM32F4xx_HAL_Driver/Src/stm32f4xx_hal_rtc_ex.c ****   * @note RTC_TIMESTAMPPIN_POS1 corresponds to pin PA0 in the case of
 181:Drivers/STM32F4xx_HAL_Driver/Src/stm32f4xx_hal_rtc_ex.c ****   *       STM32F446xx devices.
 182:Drivers/STM32F4xx_HAL_Driver/Src/stm32f4xx_hal_rtc_ex.c ****   * @note RTC_TIMESTAMPPIN_POS1 is not applicable to the following list of devices:
 183:Drivers/STM32F4xx_HAL_Driver/Src/stm32f4xx_hal_rtc_ex.c ****   *       STM32F412xx, STM32F413xx and STM32F423xx.
 184:Drivers/STM32F4xx_HAL_Driver/Src/stm32f4xx_hal_rtc_ex.c ****   * @retval HAL status
 185:Drivers/STM32F4xx_HAL_Driver/Src/stm32f4xx_hal_rtc_ex.c ****   */
 186:Drivers/STM32F4xx_HAL_Driver/Src/stm32f4xx_hal_rtc_ex.c **** HAL_StatusTypeDef HAL_RTCEx_SetTimeStamp(RTC_HandleTypeDef *hrtc, uint32_t RTC_TimeStampEdge, uint3
 187:Drivers/STM32F4xx_HAL_Driver/Src/stm32f4xx_hal_rtc_ex.c **** {
  30              		.loc 1 187 1 view -0
  31              		.cfi_startproc
  32              		@ args = 0, pretend = 0, frame = 0
  33              		@ frame_needed = 0, uses_anonymous_args = 0
  34              		@ link register save eliminated.
  35              		.loc 1 187 1 is_stmt 0 view .LVU1
  36 0000 0346     		mov	r3, r0
 188:Drivers/STM32F4xx_HAL_Driver/Src/stm32f4xx_hal_rtc_ex.c ****   uint32_t tmpreg = 0U;
  37              		.loc 1 188 3 is_stmt 1 view .LVU2
  38              	.LVL1:
 189:Drivers/STM32F4xx_HAL_Driver/Src/stm32f4xx_hal_rtc_ex.c **** 
 190:Drivers/STM32F4xx_HAL_Driver/Src/stm32f4xx_hal_rtc_ex.c ****   /* Check the parameters */
 191:Drivers/STM32F4xx_HAL_Driver/Src/stm32f4xx_hal_rtc_ex.c ****   assert_param(IS_TIMESTAMP_EDGE(RTC_TimeStampEdge));
ARM GAS  /tmp/cc8XWiN3.s 			page 5


  39              		.loc 1 191 3 view .LVU3
 192:Drivers/STM32F4xx_HAL_Driver/Src/stm32f4xx_hal_rtc_ex.c ****   assert_param(IS_RTC_TIMESTAMP_PIN(RTC_TimeStampPin));
  40              		.loc 1 192 3 view .LVU4
 193:Drivers/STM32F4xx_HAL_Driver/Src/stm32f4xx_hal_rtc_ex.c **** 
 194:Drivers/STM32F4xx_HAL_Driver/Src/stm32f4xx_hal_rtc_ex.c ****   /* Process Locked */
 195:Drivers/STM32F4xx_HAL_Driver/Src/stm32f4xx_hal_rtc_ex.c ****   __HAL_LOCK(hrtc);
  41              		.loc 1 195 3 view .LVU5
  42              		.loc 1 195 3 view .LVU6
  43 0002 007F     		ldrb	r0, [r0, #28]	@ zero_extendqisi2
  44              	.LVL2:
  45              		.loc 1 195 3 is_stmt 0 view .LVU7
  46 0004 0128     		cmp	r0, #1
  47 0006 34D0     		beq	.L3
 187:Drivers/STM32F4xx_HAL_Driver/Src/stm32f4xx_hal_rtc_ex.c ****   uint32_t tmpreg = 0U;
  48              		.loc 1 187 1 view .LVU8
  49 0008 30B4     		push	{r4, r5}
  50              		.cfi_def_cfa_offset 8
  51              		.cfi_offset 4, -8
  52              		.cfi_offset 5, -4
  53              		.loc 1 195 3 is_stmt 1 discriminator 2 view .LVU9
  54 000a 0120     		movs	r0, #1
  55 000c 1877     		strb	r0, [r3, #28]
  56              		.loc 1 195 3 view .LVU10
 196:Drivers/STM32F4xx_HAL_Driver/Src/stm32f4xx_hal_rtc_ex.c **** 
 197:Drivers/STM32F4xx_HAL_Driver/Src/stm32f4xx_hal_rtc_ex.c ****   /* Change RTC state to BUSY */
 198:Drivers/STM32F4xx_HAL_Driver/Src/stm32f4xx_hal_rtc_ex.c ****   hrtc->State = HAL_RTC_STATE_BUSY;
  57              		.loc 1 198 3 view .LVU11
  58              		.loc 1 198 15 is_stmt 0 view .LVU12
  59 000e 0224     		movs	r4, #2
  60 0010 5C77     		strb	r4, [r3, #29]
 199:Drivers/STM32F4xx_HAL_Driver/Src/stm32f4xx_hal_rtc_ex.c **** 
 200:Drivers/STM32F4xx_HAL_Driver/Src/stm32f4xx_hal_rtc_ex.c ****   hrtc->Instance->TAFCR &= (uint32_t)~RTC_TAFCR_TSINSEL;
  61              		.loc 1 200 3 is_stmt 1 view .LVU13
  62              		.loc 1 200 7 is_stmt 0 view .LVU14
  63 0012 1D68     		ldr	r5, [r3]
  64              		.loc 1 200 17 view .LVU15
  65 0014 2C6C     		ldr	r4, [r5, #64]
  66              		.loc 1 200 25 view .LVU16
  67 0016 24F40034 		bic	r4, r4, #131072
  68 001a 2C64     		str	r4, [r5, #64]
 201:Drivers/STM32F4xx_HAL_Driver/Src/stm32f4xx_hal_rtc_ex.c ****   hrtc->Instance->TAFCR |= (uint32_t)(RTC_TimeStampPin);
  69              		.loc 1 201 3 is_stmt 1 view .LVU17
  70              		.loc 1 201 7 is_stmt 0 view .LVU18
  71 001c 1D68     		ldr	r5, [r3]
  72              		.loc 1 201 17 view .LVU19
  73 001e 2C6C     		ldr	r4, [r5, #64]
  74              		.loc 1 201 25 view .LVU20
  75 0020 2243     		orrs	r2, r2, r4
  76              	.LVL3:
  77              		.loc 1 201 25 view .LVU21
  78 0022 2A64     		str	r2, [r5, #64]
 202:Drivers/STM32F4xx_HAL_Driver/Src/stm32f4xx_hal_rtc_ex.c **** 
 203:Drivers/STM32F4xx_HAL_Driver/Src/stm32f4xx_hal_rtc_ex.c ****   /* Get the RTC_CR register and clear the bits to be configured */
 204:Drivers/STM32F4xx_HAL_Driver/Src/stm32f4xx_hal_rtc_ex.c ****   tmpreg = (uint32_t)(hrtc->Instance->CR & (uint32_t)~(RTC_CR_TSEDGE | RTC_CR_TSE));
  79              		.loc 1 204 3 is_stmt 1 view .LVU22
  80              		.loc 1 204 27 is_stmt 0 view .LVU23
  81 0024 1C68     		ldr	r4, [r3]
ARM GAS  /tmp/cc8XWiN3.s 			page 6


  82              		.loc 1 204 37 view .LVU24
  83 0026 A268     		ldr	r2, [r4, #8]
  84              		.loc 1 204 10 view .LVU25
  85 0028 22F40062 		bic	r2, r2, #2048
  86 002c 22F00802 		bic	r2, r2, #8
  87              	.LVL4:
 205:Drivers/STM32F4xx_HAL_Driver/Src/stm32f4xx_hal_rtc_ex.c **** 
 206:Drivers/STM32F4xx_HAL_Driver/Src/stm32f4xx_hal_rtc_ex.c ****   /* Configure the Timestamp TSEDGE bit */
 207:Drivers/STM32F4xx_HAL_Driver/Src/stm32f4xx_hal_rtc_ex.c ****   tmpreg |= RTC_TimeStampEdge;
  88              		.loc 1 207 3 is_stmt 1 view .LVU26
  89              		.loc 1 207 10 is_stmt 0 view .LVU27
  90 0030 0A43     		orrs	r2, r2, r1
  91              	.LVL5:
 208:Drivers/STM32F4xx_HAL_Driver/Src/stm32f4xx_hal_rtc_ex.c **** 
 209:Drivers/STM32F4xx_HAL_Driver/Src/stm32f4xx_hal_rtc_ex.c ****   /* Disable the write protection for RTC registers */
 210:Drivers/STM32F4xx_HAL_Driver/Src/stm32f4xx_hal_rtc_ex.c ****   __HAL_RTC_WRITEPROTECTION_DISABLE(hrtc);
  92              		.loc 1 210 3 is_stmt 1 view .LVU28
  93              		.loc 1 210 3 view .LVU29
  94 0032 CA21     		movs	r1, #202
  95              	.LVL6:
  96              		.loc 1 210 3 is_stmt 0 view .LVU30
  97 0034 6162     		str	r1, [r4, #36]
  98              		.loc 1 210 3 is_stmt 1 view .LVU31
  99 0036 1968     		ldr	r1, [r3]
 100 0038 5324     		movs	r4, #83
 101 003a 4C62     		str	r4, [r1, #36]
 102              		.loc 1 210 3 view .LVU32
 211:Drivers/STM32F4xx_HAL_Driver/Src/stm32f4xx_hal_rtc_ex.c **** 
 212:Drivers/STM32F4xx_HAL_Driver/Src/stm32f4xx_hal_rtc_ex.c ****   /* Copy the desired configuration into the CR register */
 213:Drivers/STM32F4xx_HAL_Driver/Src/stm32f4xx_hal_rtc_ex.c ****   hrtc->Instance->CR = (uint32_t)tmpreg;
 103              		.loc 1 213 3 view .LVU33
 104              		.loc 1 213 7 is_stmt 0 view .LVU34
 105 003c 1968     		ldr	r1, [r3]
 106              		.loc 1 213 22 view .LVU35
 107 003e 8A60     		str	r2, [r1, #8]
 214:Drivers/STM32F4xx_HAL_Driver/Src/stm32f4xx_hal_rtc_ex.c **** 
 215:Drivers/STM32F4xx_HAL_Driver/Src/stm32f4xx_hal_rtc_ex.c ****   /* Clear RTC Timestamp flag */
 216:Drivers/STM32F4xx_HAL_Driver/Src/stm32f4xx_hal_rtc_ex.c ****   __HAL_RTC_TIMESTAMP_CLEAR_FLAG(hrtc, RTC_FLAG_TSF);
 108              		.loc 1 216 3 is_stmt 1 view .LVU36
 109 0040 1968     		ldr	r1, [r3]
 110 0042 CA68     		ldr	r2, [r1, #12]
 111              	.LVL7:
 112              		.loc 1 216 3 is_stmt 0 view .LVU37
 113 0044 D2B2     		uxtb	r2, r2
 114 0046 62F40862 		orn	r2, r2, #2176
 115 004a CA60     		str	r2, [r1, #12]
 217:Drivers/STM32F4xx_HAL_Driver/Src/stm32f4xx_hal_rtc_ex.c **** 
 218:Drivers/STM32F4xx_HAL_Driver/Src/stm32f4xx_hal_rtc_ex.c ****   /* Clear RTC Timestamp overrun Flag */
 219:Drivers/STM32F4xx_HAL_Driver/Src/stm32f4xx_hal_rtc_ex.c ****   __HAL_RTC_TIMESTAMP_CLEAR_FLAG(hrtc, RTC_FLAG_TSOVF);
 116              		.loc 1 219 3 is_stmt 1 view .LVU38
 117 004c 1968     		ldr	r1, [r3]
 118 004e CA68     		ldr	r2, [r1, #12]
 119 0050 D2B2     		uxtb	r2, r2
 120 0052 62F48452 		orn	r2, r2, #4224
 121 0056 CA60     		str	r2, [r1, #12]
 220:Drivers/STM32F4xx_HAL_Driver/Src/stm32f4xx_hal_rtc_ex.c **** 
 221:Drivers/STM32F4xx_HAL_Driver/Src/stm32f4xx_hal_rtc_ex.c ****   /* Enable the Timestamp saving */
ARM GAS  /tmp/cc8XWiN3.s 			page 7


 222:Drivers/STM32F4xx_HAL_Driver/Src/stm32f4xx_hal_rtc_ex.c ****   __HAL_RTC_TIMESTAMP_ENABLE(hrtc);
 122              		.loc 1 222 3 view .LVU39
 123 0058 1968     		ldr	r1, [r3]
 124 005a 8A68     		ldr	r2, [r1, #8]
 125 005c 42F40062 		orr	r2, r2, #2048
 126 0060 8A60     		str	r2, [r1, #8]
 223:Drivers/STM32F4xx_HAL_Driver/Src/stm32f4xx_hal_rtc_ex.c **** 
 224:Drivers/STM32F4xx_HAL_Driver/Src/stm32f4xx_hal_rtc_ex.c ****   /* Enable the write protection for RTC registers */
 225:Drivers/STM32F4xx_HAL_Driver/Src/stm32f4xx_hal_rtc_ex.c ****   __HAL_RTC_WRITEPROTECTION_ENABLE(hrtc);
 127              		.loc 1 225 3 view .LVU40
 128              		.loc 1 225 3 view .LVU41
 129 0062 1A68     		ldr	r2, [r3]
 130 0064 FF21     		movs	r1, #255
 131 0066 5162     		str	r1, [r2, #36]
 132              		.loc 1 225 3 view .LVU42
 226:Drivers/STM32F4xx_HAL_Driver/Src/stm32f4xx_hal_rtc_ex.c **** 
 227:Drivers/STM32F4xx_HAL_Driver/Src/stm32f4xx_hal_rtc_ex.c ****   /* Change RTC state back to READY */
 228:Drivers/STM32F4xx_HAL_Driver/Src/stm32f4xx_hal_rtc_ex.c ****   hrtc->State = HAL_RTC_STATE_READY;
 133              		.loc 1 228 3 view .LVU43
 134              		.loc 1 228 15 is_stmt 0 view .LVU44
 135 0068 5877     		strb	r0, [r3, #29]
 229:Drivers/STM32F4xx_HAL_Driver/Src/stm32f4xx_hal_rtc_ex.c **** 
 230:Drivers/STM32F4xx_HAL_Driver/Src/stm32f4xx_hal_rtc_ex.c ****   /* Process Unlocked */
 231:Drivers/STM32F4xx_HAL_Driver/Src/stm32f4xx_hal_rtc_ex.c ****   __HAL_UNLOCK(hrtc);
 136              		.loc 1 231 3 is_stmt 1 view .LVU45
 137              		.loc 1 231 3 view .LVU46
 138 006a 0020     		movs	r0, #0
 139 006c 1877     		strb	r0, [r3, #28]
 140              		.loc 1 231 3 view .LVU47
 232:Drivers/STM32F4xx_HAL_Driver/Src/stm32f4xx_hal_rtc_ex.c **** 
 233:Drivers/STM32F4xx_HAL_Driver/Src/stm32f4xx_hal_rtc_ex.c ****   return HAL_OK;
 141              		.loc 1 233 3 view .LVU48
 234:Drivers/STM32F4xx_HAL_Driver/Src/stm32f4xx_hal_rtc_ex.c **** }
 142              		.loc 1 234 1 is_stmt 0 view .LVU49
 143 006e 30BC     		pop	{r4, r5}
 144              		.cfi_restore 5
 145              		.cfi_restore 4
 146              		.cfi_def_cfa_offset 0
 147 0070 7047     		bx	lr
 148              	.LVL8:
 149              	.L3:
 195:Drivers/STM32F4xx_HAL_Driver/Src/stm32f4xx_hal_rtc_ex.c **** 
 150              		.loc 1 195 3 discriminator 1 view .LVU50
 151 0072 0220     		movs	r0, #2
 152              		.loc 1 234 1 view .LVU51
 153 0074 7047     		bx	lr
 154              		.cfi_endproc
 155              	.LFE130:
 157              		.section	.text.HAL_RTCEx_SetTimeStamp_IT,"ax",%progbits
 158              		.align	1
 159              		.global	HAL_RTCEx_SetTimeStamp_IT
 160              		.syntax unified
 161              		.thumb
 162              		.thumb_func
 164              	HAL_RTCEx_SetTimeStamp_IT:
 165              	.LVL9:
 166              	.LFB131:
ARM GAS  /tmp/cc8XWiN3.s 			page 8


 235:Drivers/STM32F4xx_HAL_Driver/Src/stm32f4xx_hal_rtc_ex.c **** 
 236:Drivers/STM32F4xx_HAL_Driver/Src/stm32f4xx_hal_rtc_ex.c **** /**
 237:Drivers/STM32F4xx_HAL_Driver/Src/stm32f4xx_hal_rtc_ex.c ****   * @brief  Sets Timestamp with Interrupt.
 238:Drivers/STM32F4xx_HAL_Driver/Src/stm32f4xx_hal_rtc_ex.c ****   * @param  hrtc pointer to a RTC_HandleTypeDef structure that contains
 239:Drivers/STM32F4xx_HAL_Driver/Src/stm32f4xx_hal_rtc_ex.c ****   *                the configuration information for RTC.
 240:Drivers/STM32F4xx_HAL_Driver/Src/stm32f4xx_hal_rtc_ex.c ****   * @note   This API must be called before enabling the Timestamp feature.
 241:Drivers/STM32F4xx_HAL_Driver/Src/stm32f4xx_hal_rtc_ex.c ****   * @param  RTC_TimeStampEdge Specifies the pin edge on which the Timestamp is
 242:Drivers/STM32F4xx_HAL_Driver/Src/stm32f4xx_hal_rtc_ex.c ****   *         activated.
 243:Drivers/STM32F4xx_HAL_Driver/Src/stm32f4xx_hal_rtc_ex.c ****   *          This parameter can be one of the following values:
 244:Drivers/STM32F4xx_HAL_Driver/Src/stm32f4xx_hal_rtc_ex.c ****   *             @arg RTC_TIMESTAMPEDGE_RISING: the Timestamp event occurs on
 245:Drivers/STM32F4xx_HAL_Driver/Src/stm32f4xx_hal_rtc_ex.c ****   *                                        the rising edge of the related pin.
 246:Drivers/STM32F4xx_HAL_Driver/Src/stm32f4xx_hal_rtc_ex.c ****   *             @arg RTC_TIMESTAMPEDGE_FALLING: the Timestamp event occurs on
 247:Drivers/STM32F4xx_HAL_Driver/Src/stm32f4xx_hal_rtc_ex.c ****   *                                        the falling edge of the related pin.
 248:Drivers/STM32F4xx_HAL_Driver/Src/stm32f4xx_hal_rtc_ex.c ****   * @param  RTC_TimeStampPin Specifies the RTC Timestamp Pin.
 249:Drivers/STM32F4xx_HAL_Driver/Src/stm32f4xx_hal_rtc_ex.c ****   *          This parameter can be one of the following values:
 250:Drivers/STM32F4xx_HAL_Driver/Src/stm32f4xx_hal_rtc_ex.c ****   *             @arg RTC_TIMESTAMPPIN_DEFAULT: PC13 is selected as RTC Timestamp Pin.
 251:Drivers/STM32F4xx_HAL_Driver/Src/stm32f4xx_hal_rtc_ex.c ****   *             @arg RTC_TIMESTAMPPIN_POS1: PI8 is selected as RTC Timestamp Pin.
 252:Drivers/STM32F4xx_HAL_Driver/Src/stm32f4xx_hal_rtc_ex.c ****   * @note RTC_TIMESTAMPPIN_POS1 corresponds to pin PA0 in the case of
 253:Drivers/STM32F4xx_HAL_Driver/Src/stm32f4xx_hal_rtc_ex.c ****   *       STM32F446xx devices.
 254:Drivers/STM32F4xx_HAL_Driver/Src/stm32f4xx_hal_rtc_ex.c ****   * @note RTC_TIMESTAMPPIN_POS1 is not applicable to the following list of devices:
 255:Drivers/STM32F4xx_HAL_Driver/Src/stm32f4xx_hal_rtc_ex.c ****   *       STM32F412xx, STM32F413xx and STM32F423xx.
 256:Drivers/STM32F4xx_HAL_Driver/Src/stm32f4xx_hal_rtc_ex.c ****   * @retval HAL status
 257:Drivers/STM32F4xx_HAL_Driver/Src/stm32f4xx_hal_rtc_ex.c ****   */
 258:Drivers/STM32F4xx_HAL_Driver/Src/stm32f4xx_hal_rtc_ex.c **** HAL_StatusTypeDef HAL_RTCEx_SetTimeStamp_IT(RTC_HandleTypeDef *hrtc, uint32_t RTC_TimeStampEdge, ui
 259:Drivers/STM32F4xx_HAL_Driver/Src/stm32f4xx_hal_rtc_ex.c **** {
 167              		.loc 1 259 1 is_stmt 1 view -0
 168              		.cfi_startproc
 169              		@ args = 0, pretend = 0, frame = 0
 170              		@ frame_needed = 0, uses_anonymous_args = 0
 171              		@ link register save eliminated.
 172              		.loc 1 259 1 is_stmt 0 view .LVU53
 173 0000 0346     		mov	r3, r0
 260:Drivers/STM32F4xx_HAL_Driver/Src/stm32f4xx_hal_rtc_ex.c ****   uint32_t tmpreg = 0U;
 174              		.loc 1 260 3 is_stmt 1 view .LVU54
 175              	.LVL10:
 261:Drivers/STM32F4xx_HAL_Driver/Src/stm32f4xx_hal_rtc_ex.c **** 
 262:Drivers/STM32F4xx_HAL_Driver/Src/stm32f4xx_hal_rtc_ex.c ****   /* Check the parameters */
 263:Drivers/STM32F4xx_HAL_Driver/Src/stm32f4xx_hal_rtc_ex.c ****   assert_param(IS_TIMESTAMP_EDGE(RTC_TimeStampEdge));
 176              		.loc 1 263 3 view .LVU55
 264:Drivers/STM32F4xx_HAL_Driver/Src/stm32f4xx_hal_rtc_ex.c ****   assert_param(IS_RTC_TIMESTAMP_PIN(RTC_TimeStampPin));
 177              		.loc 1 264 3 view .LVU56
 265:Drivers/STM32F4xx_HAL_Driver/Src/stm32f4xx_hal_rtc_ex.c **** 
 266:Drivers/STM32F4xx_HAL_Driver/Src/stm32f4xx_hal_rtc_ex.c ****   /* Process Locked */
 267:Drivers/STM32F4xx_HAL_Driver/Src/stm32f4xx_hal_rtc_ex.c ****   __HAL_LOCK(hrtc);
 178              		.loc 1 267 3 view .LVU57
 179              		.loc 1 267 3 view .LVU58
 180 0002 007F     		ldrb	r0, [r0, #28]	@ zero_extendqisi2
 181              	.LVL11:
 182              		.loc 1 267 3 is_stmt 0 view .LVU59
 183 0004 0128     		cmp	r0, #1
 184 0006 42D0     		beq	.L10
 259:Drivers/STM32F4xx_HAL_Driver/Src/stm32f4xx_hal_rtc_ex.c ****   uint32_t tmpreg = 0U;
 185              		.loc 1 259 1 view .LVU60
 186 0008 30B4     		push	{r4, r5}
 187              		.cfi_def_cfa_offset 8
 188              		.cfi_offset 4, -8
 189              		.cfi_offset 5, -4
ARM GAS  /tmp/cc8XWiN3.s 			page 9


 190              		.loc 1 267 3 is_stmt 1 discriminator 2 view .LVU61
 191 000a 0120     		movs	r0, #1
 192 000c 1877     		strb	r0, [r3, #28]
 193              		.loc 1 267 3 view .LVU62
 268:Drivers/STM32F4xx_HAL_Driver/Src/stm32f4xx_hal_rtc_ex.c **** 
 269:Drivers/STM32F4xx_HAL_Driver/Src/stm32f4xx_hal_rtc_ex.c ****   /* Change RTC state to BUSY */
 270:Drivers/STM32F4xx_HAL_Driver/Src/stm32f4xx_hal_rtc_ex.c ****   hrtc->State = HAL_RTC_STATE_BUSY;
 194              		.loc 1 270 3 view .LVU63
 195              		.loc 1 270 15 is_stmt 0 view .LVU64
 196 000e 0224     		movs	r4, #2
 197 0010 5C77     		strb	r4, [r3, #29]
 271:Drivers/STM32F4xx_HAL_Driver/Src/stm32f4xx_hal_rtc_ex.c **** 
 272:Drivers/STM32F4xx_HAL_Driver/Src/stm32f4xx_hal_rtc_ex.c ****   hrtc->Instance->TAFCR &= (uint32_t)~RTC_TAFCR_TSINSEL;
 198              		.loc 1 272 3 is_stmt 1 view .LVU65
 199              		.loc 1 272 7 is_stmt 0 view .LVU66
 200 0012 1D68     		ldr	r5, [r3]
 201              		.loc 1 272 17 view .LVU67
 202 0014 2C6C     		ldr	r4, [r5, #64]
 203              		.loc 1 272 25 view .LVU68
 204 0016 24F40034 		bic	r4, r4, #131072
 205 001a 2C64     		str	r4, [r5, #64]
 273:Drivers/STM32F4xx_HAL_Driver/Src/stm32f4xx_hal_rtc_ex.c ****   hrtc->Instance->TAFCR |= (uint32_t)(RTC_TimeStampPin);
 206              		.loc 1 273 3 is_stmt 1 view .LVU69
 207              		.loc 1 273 7 is_stmt 0 view .LVU70
 208 001c 1D68     		ldr	r5, [r3]
 209              		.loc 1 273 17 view .LVU71
 210 001e 2C6C     		ldr	r4, [r5, #64]
 211              		.loc 1 273 25 view .LVU72
 212 0020 2243     		orrs	r2, r2, r4
 213              	.LVL12:
 214              		.loc 1 273 25 view .LVU73
 215 0022 2A64     		str	r2, [r5, #64]
 274:Drivers/STM32F4xx_HAL_Driver/Src/stm32f4xx_hal_rtc_ex.c **** 
 275:Drivers/STM32F4xx_HAL_Driver/Src/stm32f4xx_hal_rtc_ex.c ****   /* Get the RTC_CR register and clear the bits to be configured */
 276:Drivers/STM32F4xx_HAL_Driver/Src/stm32f4xx_hal_rtc_ex.c ****   tmpreg = (uint32_t)(hrtc->Instance->CR & (uint32_t)~(RTC_CR_TSEDGE | RTC_CR_TSE));
 216              		.loc 1 276 3 is_stmt 1 view .LVU74
 217              		.loc 1 276 27 is_stmt 0 view .LVU75
 218 0024 1C68     		ldr	r4, [r3]
 219              		.loc 1 276 37 view .LVU76
 220 0026 A268     		ldr	r2, [r4, #8]
 221              		.loc 1 276 10 view .LVU77
 222 0028 22F40062 		bic	r2, r2, #2048
 223 002c 22F00802 		bic	r2, r2, #8
 224              	.LVL13:
 277:Drivers/STM32F4xx_HAL_Driver/Src/stm32f4xx_hal_rtc_ex.c **** 
 278:Drivers/STM32F4xx_HAL_Driver/Src/stm32f4xx_hal_rtc_ex.c ****   /* Configure the Timestamp TSEDGE bit */
 279:Drivers/STM32F4xx_HAL_Driver/Src/stm32f4xx_hal_rtc_ex.c ****   tmpreg |= RTC_TimeStampEdge;
 225              		.loc 1 279 3 is_stmt 1 view .LVU78
 226              		.loc 1 279 10 is_stmt 0 view .LVU79
 227 0030 0A43     		orrs	r2, r2, r1
 228              	.LVL14:
 280:Drivers/STM32F4xx_HAL_Driver/Src/stm32f4xx_hal_rtc_ex.c **** 
 281:Drivers/STM32F4xx_HAL_Driver/Src/stm32f4xx_hal_rtc_ex.c ****   /* Disable the write protection for RTC registers */
 282:Drivers/STM32F4xx_HAL_Driver/Src/stm32f4xx_hal_rtc_ex.c ****   __HAL_RTC_WRITEPROTECTION_DISABLE(hrtc);
 229              		.loc 1 282 3 is_stmt 1 view .LVU80
 230              		.loc 1 282 3 view .LVU81
 231 0032 CA21     		movs	r1, #202
ARM GAS  /tmp/cc8XWiN3.s 			page 10


 232              	.LVL15:
 233              		.loc 1 282 3 is_stmt 0 view .LVU82
 234 0034 6162     		str	r1, [r4, #36]
 235              		.loc 1 282 3 is_stmt 1 view .LVU83
 236 0036 1968     		ldr	r1, [r3]
 237 0038 5324     		movs	r4, #83
 238 003a 4C62     		str	r4, [r1, #36]
 239              		.loc 1 282 3 view .LVU84
 283:Drivers/STM32F4xx_HAL_Driver/Src/stm32f4xx_hal_rtc_ex.c **** 
 284:Drivers/STM32F4xx_HAL_Driver/Src/stm32f4xx_hal_rtc_ex.c ****   /* Copy the desired configuration into the CR register */
 285:Drivers/STM32F4xx_HAL_Driver/Src/stm32f4xx_hal_rtc_ex.c ****   hrtc->Instance->CR = (uint32_t)tmpreg;
 240              		.loc 1 285 3 view .LVU85
 241              		.loc 1 285 7 is_stmt 0 view .LVU86
 242 003c 1968     		ldr	r1, [r3]
 243              		.loc 1 285 22 view .LVU87
 244 003e 8A60     		str	r2, [r1, #8]
 286:Drivers/STM32F4xx_HAL_Driver/Src/stm32f4xx_hal_rtc_ex.c **** 
 287:Drivers/STM32F4xx_HAL_Driver/Src/stm32f4xx_hal_rtc_ex.c ****   /* Clear RTC Timestamp flag */
 288:Drivers/STM32F4xx_HAL_Driver/Src/stm32f4xx_hal_rtc_ex.c ****   __HAL_RTC_TIMESTAMP_CLEAR_FLAG(hrtc, RTC_FLAG_TSF);
 245              		.loc 1 288 3 is_stmt 1 view .LVU88
 246 0040 1968     		ldr	r1, [r3]
 247 0042 CA68     		ldr	r2, [r1, #12]
 248              	.LVL16:
 249              		.loc 1 288 3 is_stmt 0 view .LVU89
 250 0044 D2B2     		uxtb	r2, r2
 251 0046 62F40862 		orn	r2, r2, #2176
 252 004a CA60     		str	r2, [r1, #12]
 289:Drivers/STM32F4xx_HAL_Driver/Src/stm32f4xx_hal_rtc_ex.c **** 
 290:Drivers/STM32F4xx_HAL_Driver/Src/stm32f4xx_hal_rtc_ex.c ****   /* Clear RTC Timestamp overrun Flag */
 291:Drivers/STM32F4xx_HAL_Driver/Src/stm32f4xx_hal_rtc_ex.c ****   __HAL_RTC_TIMESTAMP_CLEAR_FLAG(hrtc, RTC_FLAG_TSOVF);
 253              		.loc 1 291 3 is_stmt 1 view .LVU90
 254 004c 1968     		ldr	r1, [r3]
 255 004e CA68     		ldr	r2, [r1, #12]
 256 0050 D2B2     		uxtb	r2, r2
 257 0052 62F48452 		orn	r2, r2, #4224
 258 0056 CA60     		str	r2, [r1, #12]
 292:Drivers/STM32F4xx_HAL_Driver/Src/stm32f4xx_hal_rtc_ex.c **** 
 293:Drivers/STM32F4xx_HAL_Driver/Src/stm32f4xx_hal_rtc_ex.c ****   /* Enable the Timestamp saving */
 294:Drivers/STM32F4xx_HAL_Driver/Src/stm32f4xx_hal_rtc_ex.c ****   __HAL_RTC_TIMESTAMP_ENABLE(hrtc);
 259              		.loc 1 294 3 view .LVU91
 260 0058 1968     		ldr	r1, [r3]
 261 005a 8A68     		ldr	r2, [r1, #8]
 262 005c 42F40062 		orr	r2, r2, #2048
 263 0060 8A60     		str	r2, [r1, #8]
 295:Drivers/STM32F4xx_HAL_Driver/Src/stm32f4xx_hal_rtc_ex.c **** 
 296:Drivers/STM32F4xx_HAL_Driver/Src/stm32f4xx_hal_rtc_ex.c ****   /* Enable IT Timestamp */
 297:Drivers/STM32F4xx_HAL_Driver/Src/stm32f4xx_hal_rtc_ex.c ****   __HAL_RTC_TIMESTAMP_ENABLE_IT(hrtc, RTC_IT_TS);
 264              		.loc 1 297 3 view .LVU92
 265 0062 1968     		ldr	r1, [r3]
 266 0064 8A68     		ldr	r2, [r1, #8]
 267 0066 42F40042 		orr	r2, r2, #32768
 268 006a 8A60     		str	r2, [r1, #8]
 298:Drivers/STM32F4xx_HAL_Driver/Src/stm32f4xx_hal_rtc_ex.c **** 
 299:Drivers/STM32F4xx_HAL_Driver/Src/stm32f4xx_hal_rtc_ex.c ****   /* Enable the write protection for RTC registers */
 300:Drivers/STM32F4xx_HAL_Driver/Src/stm32f4xx_hal_rtc_ex.c ****   __HAL_RTC_WRITEPROTECTION_ENABLE(hrtc);
 269              		.loc 1 300 3 view .LVU93
 270              		.loc 1 300 3 view .LVU94
ARM GAS  /tmp/cc8XWiN3.s 			page 11


 271 006c 1A68     		ldr	r2, [r3]
 272 006e FF21     		movs	r1, #255
 273 0070 5162     		str	r1, [r2, #36]
 274              		.loc 1 300 3 view .LVU95
 301:Drivers/STM32F4xx_HAL_Driver/Src/stm32f4xx_hal_rtc_ex.c **** 
 302:Drivers/STM32F4xx_HAL_Driver/Src/stm32f4xx_hal_rtc_ex.c ****   /* RTC Timestamp Interrupt Configuration: EXTI configuration */
 303:Drivers/STM32F4xx_HAL_Driver/Src/stm32f4xx_hal_rtc_ex.c ****   __HAL_RTC_TAMPER_TIMESTAMP_EXTI_ENABLE_IT();
 275              		.loc 1 303 3 view .LVU96
 276 0072 084A     		ldr	r2, .L15
 277 0074 1168     		ldr	r1, [r2]
 278 0076 41F40011 		orr	r1, r1, #2097152
 279 007a 1160     		str	r1, [r2]
 304:Drivers/STM32F4xx_HAL_Driver/Src/stm32f4xx_hal_rtc_ex.c ****   __HAL_RTC_TAMPER_TIMESTAMP_EXTI_ENABLE_RISING_EDGE();
 280              		.loc 1 304 3 view .LVU97
 281 007c 9168     		ldr	r1, [r2, #8]
 282 007e 41F40011 		orr	r1, r1, #2097152
 283 0082 9160     		str	r1, [r2, #8]
 305:Drivers/STM32F4xx_HAL_Driver/Src/stm32f4xx_hal_rtc_ex.c **** 
 306:Drivers/STM32F4xx_HAL_Driver/Src/stm32f4xx_hal_rtc_ex.c ****   /* Change RTC state back to READY */
 307:Drivers/STM32F4xx_HAL_Driver/Src/stm32f4xx_hal_rtc_ex.c ****   hrtc->State = HAL_RTC_STATE_READY;
 284              		.loc 1 307 3 view .LVU98
 285              		.loc 1 307 15 is_stmt 0 view .LVU99
 286 0084 5877     		strb	r0, [r3, #29]
 308:Drivers/STM32F4xx_HAL_Driver/Src/stm32f4xx_hal_rtc_ex.c **** 
 309:Drivers/STM32F4xx_HAL_Driver/Src/stm32f4xx_hal_rtc_ex.c ****   /* Process Unlocked */
 310:Drivers/STM32F4xx_HAL_Driver/Src/stm32f4xx_hal_rtc_ex.c ****   __HAL_UNLOCK(hrtc);
 287              		.loc 1 310 3 is_stmt 1 view .LVU100
 288              		.loc 1 310 3 view .LVU101
 289 0086 0020     		movs	r0, #0
 290 0088 1877     		strb	r0, [r3, #28]
 291              		.loc 1 310 3 view .LVU102
 311:Drivers/STM32F4xx_HAL_Driver/Src/stm32f4xx_hal_rtc_ex.c **** 
 312:Drivers/STM32F4xx_HAL_Driver/Src/stm32f4xx_hal_rtc_ex.c ****   return HAL_OK;
 292              		.loc 1 312 3 view .LVU103
 313:Drivers/STM32F4xx_HAL_Driver/Src/stm32f4xx_hal_rtc_ex.c **** }
 293              		.loc 1 313 1 is_stmt 0 view .LVU104
 294 008a 30BC     		pop	{r4, r5}
 295              		.cfi_restore 5
 296              		.cfi_restore 4
 297              		.cfi_def_cfa_offset 0
 298 008c 7047     		bx	lr
 299              	.LVL17:
 300              	.L10:
 267:Drivers/STM32F4xx_HAL_Driver/Src/stm32f4xx_hal_rtc_ex.c **** 
 301              		.loc 1 267 3 discriminator 1 view .LVU105
 302 008e 0220     		movs	r0, #2
 303              		.loc 1 313 1 view .LVU106
 304 0090 7047     		bx	lr
 305              	.L16:
 306 0092 00BF     		.align	2
 307              	.L15:
 308 0094 003C0140 		.word	1073822720
 309              		.cfi_endproc
 310              	.LFE131:
 312              		.section	.text.HAL_RTCEx_DeactivateTimeStamp,"ax",%progbits
 313              		.align	1
 314              		.global	HAL_RTCEx_DeactivateTimeStamp
ARM GAS  /tmp/cc8XWiN3.s 			page 12


 315              		.syntax unified
 316              		.thumb
 317              		.thumb_func
 319              	HAL_RTCEx_DeactivateTimeStamp:
 320              	.LVL18:
 321              	.LFB132:
 314:Drivers/STM32F4xx_HAL_Driver/Src/stm32f4xx_hal_rtc_ex.c **** 
 315:Drivers/STM32F4xx_HAL_Driver/Src/stm32f4xx_hal_rtc_ex.c **** /**
 316:Drivers/STM32F4xx_HAL_Driver/Src/stm32f4xx_hal_rtc_ex.c ****   * @brief  Deactivates Timestamp.
 317:Drivers/STM32F4xx_HAL_Driver/Src/stm32f4xx_hal_rtc_ex.c ****   * @param  hrtc pointer to a RTC_HandleTypeDef structure that contains
 318:Drivers/STM32F4xx_HAL_Driver/Src/stm32f4xx_hal_rtc_ex.c ****   *                the configuration information for RTC.
 319:Drivers/STM32F4xx_HAL_Driver/Src/stm32f4xx_hal_rtc_ex.c ****   * @retval HAL status
 320:Drivers/STM32F4xx_HAL_Driver/Src/stm32f4xx_hal_rtc_ex.c ****   */
 321:Drivers/STM32F4xx_HAL_Driver/Src/stm32f4xx_hal_rtc_ex.c **** HAL_StatusTypeDef HAL_RTCEx_DeactivateTimeStamp(RTC_HandleTypeDef *hrtc)
 322:Drivers/STM32F4xx_HAL_Driver/Src/stm32f4xx_hal_rtc_ex.c **** {
 322              		.loc 1 322 1 is_stmt 1 view -0
 323              		.cfi_startproc
 324              		@ args = 0, pretend = 0, frame = 0
 325              		@ frame_needed = 0, uses_anonymous_args = 0
 326              		@ link register save eliminated.
 327              		.loc 1 322 1 is_stmt 0 view .LVU108
 328 0000 0346     		mov	r3, r0
 323:Drivers/STM32F4xx_HAL_Driver/Src/stm32f4xx_hal_rtc_ex.c ****   uint32_t tmpreg = 0U;
 329              		.loc 1 323 3 is_stmt 1 view .LVU109
 330              	.LVL19:
 324:Drivers/STM32F4xx_HAL_Driver/Src/stm32f4xx_hal_rtc_ex.c **** 
 325:Drivers/STM32F4xx_HAL_Driver/Src/stm32f4xx_hal_rtc_ex.c ****   /* Process Locked */
 326:Drivers/STM32F4xx_HAL_Driver/Src/stm32f4xx_hal_rtc_ex.c ****   __HAL_LOCK(hrtc);
 331              		.loc 1 326 3 view .LVU110
 332              		.loc 1 326 3 view .LVU111
 333 0002 027F     		ldrb	r2, [r0, #28]	@ zero_extendqisi2
 334 0004 012A     		cmp	r2, #1
 335 0006 1CD0     		beq	.L19
 336              		.loc 1 326 3 discriminator 2 view .LVU112
 337 0008 0121     		movs	r1, #1
 338 000a 0177     		strb	r1, [r0, #28]
 339              		.loc 1 326 3 view .LVU113
 327:Drivers/STM32F4xx_HAL_Driver/Src/stm32f4xx_hal_rtc_ex.c **** 
 328:Drivers/STM32F4xx_HAL_Driver/Src/stm32f4xx_hal_rtc_ex.c ****   hrtc->State = HAL_RTC_STATE_BUSY;
 340              		.loc 1 328 3 view .LVU114
 341              		.loc 1 328 15 is_stmt 0 view .LVU115
 342 000c 0222     		movs	r2, #2
 343 000e 4277     		strb	r2, [r0, #29]
 329:Drivers/STM32F4xx_HAL_Driver/Src/stm32f4xx_hal_rtc_ex.c **** 
 330:Drivers/STM32F4xx_HAL_Driver/Src/stm32f4xx_hal_rtc_ex.c ****   /* Disable the write protection for RTC registers */
 331:Drivers/STM32F4xx_HAL_Driver/Src/stm32f4xx_hal_rtc_ex.c ****   __HAL_RTC_WRITEPROTECTION_DISABLE(hrtc);
 344              		.loc 1 331 3 is_stmt 1 view .LVU116
 345              		.loc 1 331 3 view .LVU117
 346 0010 0268     		ldr	r2, [r0]
 347 0012 CA20     		movs	r0, #202
 348              	.LVL20:
 349              		.loc 1 331 3 is_stmt 0 view .LVU118
 350 0014 5062     		str	r0, [r2, #36]
 351              		.loc 1 331 3 is_stmt 1 view .LVU119
 352 0016 1A68     		ldr	r2, [r3]
 353 0018 5320     		movs	r0, #83
 354 001a 5062     		str	r0, [r2, #36]
ARM GAS  /tmp/cc8XWiN3.s 			page 13


 355              		.loc 1 331 3 view .LVU120
 332:Drivers/STM32F4xx_HAL_Driver/Src/stm32f4xx_hal_rtc_ex.c **** 
 333:Drivers/STM32F4xx_HAL_Driver/Src/stm32f4xx_hal_rtc_ex.c ****   /* In case of interrupt mode is used, the interrupt source must disabled */
 334:Drivers/STM32F4xx_HAL_Driver/Src/stm32f4xx_hal_rtc_ex.c ****   __HAL_RTC_TIMESTAMP_DISABLE_IT(hrtc, RTC_IT_TS);
 356              		.loc 1 334 3 view .LVU121
 357 001c 1868     		ldr	r0, [r3]
 358 001e 8268     		ldr	r2, [r0, #8]
 359 0020 22F40042 		bic	r2, r2, #32768
 360 0024 8260     		str	r2, [r0, #8]
 335:Drivers/STM32F4xx_HAL_Driver/Src/stm32f4xx_hal_rtc_ex.c **** 
 336:Drivers/STM32F4xx_HAL_Driver/Src/stm32f4xx_hal_rtc_ex.c ****   /* Get the RTC_CR register and clear the bits to be configured */
 337:Drivers/STM32F4xx_HAL_Driver/Src/stm32f4xx_hal_rtc_ex.c ****   tmpreg = (uint32_t)(hrtc->Instance->CR & (uint32_t)~(RTC_CR_TSEDGE | RTC_CR_TSE));
 361              		.loc 1 337 3 view .LVU122
 362              		.loc 1 337 27 is_stmt 0 view .LVU123
 363 0026 1868     		ldr	r0, [r3]
 364              		.loc 1 337 37 view .LVU124
 365 0028 8268     		ldr	r2, [r0, #8]
 366              		.loc 1 337 10 view .LVU125
 367 002a 22F40062 		bic	r2, r2, #2048
 368 002e 22F00802 		bic	r2, r2, #8
 369              	.LVL21:
 338:Drivers/STM32F4xx_HAL_Driver/Src/stm32f4xx_hal_rtc_ex.c **** 
 339:Drivers/STM32F4xx_HAL_Driver/Src/stm32f4xx_hal_rtc_ex.c ****   /* Configure the Timestamp TSEDGE and Enable bits */
 340:Drivers/STM32F4xx_HAL_Driver/Src/stm32f4xx_hal_rtc_ex.c ****   hrtc->Instance->CR = (uint32_t)tmpreg;
 370              		.loc 1 340 3 is_stmt 1 view .LVU126
 371              		.loc 1 340 22 is_stmt 0 view .LVU127
 372 0032 8260     		str	r2, [r0, #8]
 341:Drivers/STM32F4xx_HAL_Driver/Src/stm32f4xx_hal_rtc_ex.c **** 
 342:Drivers/STM32F4xx_HAL_Driver/Src/stm32f4xx_hal_rtc_ex.c ****   /* Enable the write protection for RTC registers */
 343:Drivers/STM32F4xx_HAL_Driver/Src/stm32f4xx_hal_rtc_ex.c ****   __HAL_RTC_WRITEPROTECTION_ENABLE(hrtc);
 373              		.loc 1 343 3 is_stmt 1 view .LVU128
 374              		.loc 1 343 3 view .LVU129
 375 0034 1A68     		ldr	r2, [r3]
 376              	.LVL22:
 377              		.loc 1 343 3 is_stmt 0 view .LVU130
 378 0036 FF20     		movs	r0, #255
 379              	.LVL23:
 380              		.loc 1 343 3 view .LVU131
 381 0038 5062     		str	r0, [r2, #36]
 382              		.loc 1 343 3 is_stmt 1 view .LVU132
 344:Drivers/STM32F4xx_HAL_Driver/Src/stm32f4xx_hal_rtc_ex.c **** 
 345:Drivers/STM32F4xx_HAL_Driver/Src/stm32f4xx_hal_rtc_ex.c ****   hrtc->State = HAL_RTC_STATE_READY;
 383              		.loc 1 345 3 view .LVU133
 384              		.loc 1 345 15 is_stmt 0 view .LVU134
 385 003a 5977     		strb	r1, [r3, #29]
 346:Drivers/STM32F4xx_HAL_Driver/Src/stm32f4xx_hal_rtc_ex.c **** 
 347:Drivers/STM32F4xx_HAL_Driver/Src/stm32f4xx_hal_rtc_ex.c ****   /* Process Unlocked */
 348:Drivers/STM32F4xx_HAL_Driver/Src/stm32f4xx_hal_rtc_ex.c ****   __HAL_UNLOCK(hrtc);
 386              		.loc 1 348 3 is_stmt 1 view .LVU135
 387              		.loc 1 348 3 view .LVU136
 388 003c 0020     		movs	r0, #0
 389 003e 1877     		strb	r0, [r3, #28]
 390              		.loc 1 348 3 view .LVU137
 349:Drivers/STM32F4xx_HAL_Driver/Src/stm32f4xx_hal_rtc_ex.c **** 
 350:Drivers/STM32F4xx_HAL_Driver/Src/stm32f4xx_hal_rtc_ex.c ****   return HAL_OK;
 391              		.loc 1 350 3 view .LVU138
 392              		.loc 1 350 10 is_stmt 0 view .LVU139
ARM GAS  /tmp/cc8XWiN3.s 			page 14


 393 0040 7047     		bx	lr
 394              	.LVL24:
 395              	.L19:
 326:Drivers/STM32F4xx_HAL_Driver/Src/stm32f4xx_hal_rtc_ex.c **** 
 396              		.loc 1 326 3 discriminator 1 view .LVU140
 397 0042 0220     		movs	r0, #2
 398              	.LVL25:
 351:Drivers/STM32F4xx_HAL_Driver/Src/stm32f4xx_hal_rtc_ex.c **** }
 399              		.loc 1 351 1 view .LVU141
 400 0044 7047     		bx	lr
 401              		.cfi_endproc
 402              	.LFE132:
 404              		.section	.text.HAL_RTCEx_GetTimeStamp,"ax",%progbits
 405              		.align	1
 406              		.global	HAL_RTCEx_GetTimeStamp
 407              		.syntax unified
 408              		.thumb
 409              		.thumb_func
 411              	HAL_RTCEx_GetTimeStamp:
 412              	.LVL26:
 413              	.LFB133:
 352:Drivers/STM32F4xx_HAL_Driver/Src/stm32f4xx_hal_rtc_ex.c **** 
 353:Drivers/STM32F4xx_HAL_Driver/Src/stm32f4xx_hal_rtc_ex.c **** /**
 354:Drivers/STM32F4xx_HAL_Driver/Src/stm32f4xx_hal_rtc_ex.c ****   * @brief  Gets the RTC Timestamp value.
 355:Drivers/STM32F4xx_HAL_Driver/Src/stm32f4xx_hal_rtc_ex.c ****   * @param  hrtc pointer to a RTC_HandleTypeDef structure that contains
 356:Drivers/STM32F4xx_HAL_Driver/Src/stm32f4xx_hal_rtc_ex.c ****   *                the configuration information for RTC.
 357:Drivers/STM32F4xx_HAL_Driver/Src/stm32f4xx_hal_rtc_ex.c ****   * @param  sTimeStamp Pointer to Time structure
 358:Drivers/STM32F4xx_HAL_Driver/Src/stm32f4xx_hal_rtc_ex.c ****   * @param  sTimeStampDate Pointer to Date structure
 359:Drivers/STM32F4xx_HAL_Driver/Src/stm32f4xx_hal_rtc_ex.c ****   * @param  Format specifies the format of the entered parameters.
 360:Drivers/STM32F4xx_HAL_Driver/Src/stm32f4xx_hal_rtc_ex.c ****   *          This parameter can be one of the following values:
 361:Drivers/STM32F4xx_HAL_Driver/Src/stm32f4xx_hal_rtc_ex.c ****   *             @arg RTC_FORMAT_BIN: Binary data format
 362:Drivers/STM32F4xx_HAL_Driver/Src/stm32f4xx_hal_rtc_ex.c ****   *             @arg RTC_FORMAT_BCD: BCD data format
 363:Drivers/STM32F4xx_HAL_Driver/Src/stm32f4xx_hal_rtc_ex.c ****   * @retval HAL status
 364:Drivers/STM32F4xx_HAL_Driver/Src/stm32f4xx_hal_rtc_ex.c ****   */
 365:Drivers/STM32F4xx_HAL_Driver/Src/stm32f4xx_hal_rtc_ex.c **** HAL_StatusTypeDef HAL_RTCEx_GetTimeStamp(RTC_HandleTypeDef *hrtc, RTC_TimeTypeDef *sTimeStamp, RTC_
 366:Drivers/STM32F4xx_HAL_Driver/Src/stm32f4xx_hal_rtc_ex.c **** {
 414              		.loc 1 366 1 is_stmt 1 view -0
 415              		.cfi_startproc
 416              		@ args = 0, pretend = 0, frame = 0
 417              		@ frame_needed = 0, uses_anonymous_args = 0
 418              		.loc 1 366 1 is_stmt 0 view .LVU143
 419 0000 70B5     		push	{r4, r5, r6, lr}
 420              		.cfi_def_cfa_offset 16
 421              		.cfi_offset 4, -16
 422              		.cfi_offset 5, -12
 423              		.cfi_offset 6, -8
 424              		.cfi_offset 14, -4
 425 0002 0646     		mov	r6, r0
 426 0004 0C46     		mov	r4, r1
 427 0006 1546     		mov	r5, r2
 367:Drivers/STM32F4xx_HAL_Driver/Src/stm32f4xx_hal_rtc_ex.c ****   uint32_t tmptime = 0U;
 428              		.loc 1 367 3 is_stmt 1 view .LVU144
 429              	.LVL27:
 368:Drivers/STM32F4xx_HAL_Driver/Src/stm32f4xx_hal_rtc_ex.c ****   uint32_t tmpdate = 0U;
 430              		.loc 1 368 3 view .LVU145
 369:Drivers/STM32F4xx_HAL_Driver/Src/stm32f4xx_hal_rtc_ex.c **** 
 370:Drivers/STM32F4xx_HAL_Driver/Src/stm32f4xx_hal_rtc_ex.c ****   /* Check the parameters */
ARM GAS  /tmp/cc8XWiN3.s 			page 15


 371:Drivers/STM32F4xx_HAL_Driver/Src/stm32f4xx_hal_rtc_ex.c ****   assert_param(IS_RTC_FORMAT(Format));
 431              		.loc 1 371 3 view .LVU146
 372:Drivers/STM32F4xx_HAL_Driver/Src/stm32f4xx_hal_rtc_ex.c **** 
 373:Drivers/STM32F4xx_HAL_Driver/Src/stm32f4xx_hal_rtc_ex.c ****   /* Get the Timestamp time and date registers values */
 374:Drivers/STM32F4xx_HAL_Driver/Src/stm32f4xx_hal_rtc_ex.c ****   tmptime = (uint32_t)(hrtc->Instance->TSTR & RTC_TR_RESERVED_MASK);
 432              		.loc 1 374 3 view .LVU147
 433              		.loc 1 374 28 is_stmt 0 view .LVU148
 434 0008 0168     		ldr	r1, [r0]
 435              	.LVL28:
 436              		.loc 1 374 38 view .LVU149
 437 000a 0A6B     		ldr	r2, [r1, #48]
 438              	.LVL29:
 375:Drivers/STM32F4xx_HAL_Driver/Src/stm32f4xx_hal_rtc_ex.c ****   tmpdate = (uint32_t)(hrtc->Instance->TSDR & RTC_DR_RESERVED_MASK);
 439              		.loc 1 375 3 is_stmt 1 view .LVU150
 440              		.loc 1 375 38 is_stmt 0 view .LVU151
 441 000c 496B     		ldr	r1, [r1, #52]
 442              	.LVL30:
 376:Drivers/STM32F4xx_HAL_Driver/Src/stm32f4xx_hal_rtc_ex.c **** 
 377:Drivers/STM32F4xx_HAL_Driver/Src/stm32f4xx_hal_rtc_ex.c ****   /* Fill the Time structure fields with the read parameters */
 378:Drivers/STM32F4xx_HAL_Driver/Src/stm32f4xx_hal_rtc_ex.c ****   sTimeStamp->Hours      = (uint8_t)((tmptime & (RTC_TSTR_HT  | RTC_TSTR_HU))  >> RTC_TSTR_HU_Pos);
 443              		.loc 1 378 3 is_stmt 1 view .LVU152
 444              		.loc 1 378 28 is_stmt 0 view .LVU153
 445 000e C2F30540 		ubfx	r0, r2, #16, #6
 446              	.LVL31:
 447              		.loc 1 378 26 view .LVU154
 448 0012 2070     		strb	r0, [r4]
 379:Drivers/STM32F4xx_HAL_Driver/Src/stm32f4xx_hal_rtc_ex.c ****   sTimeStamp->Minutes    = (uint8_t)((tmptime & (RTC_TSTR_MNT | RTC_TSTR_MNU)) >> RTC_TSTR_MNU_Pos)
 449              		.loc 1 379 3 is_stmt 1 view .LVU155
 450              		.loc 1 379 28 is_stmt 0 view .LVU156
 451 0014 C2F30620 		ubfx	r0, r2, #8, #7
 452              		.loc 1 379 26 view .LVU157
 453 0018 6070     		strb	r0, [r4, #1]
 380:Drivers/STM32F4xx_HAL_Driver/Src/stm32f4xx_hal_rtc_ex.c ****   sTimeStamp->Seconds    = (uint8_t)((tmptime & (RTC_TSTR_ST  | RTC_TSTR_SU))  >> RTC_TSTR_SU_Pos);
 454              		.loc 1 380 3 is_stmt 1 view .LVU158
 455              		.loc 1 380 28 is_stmt 0 view .LVU159
 456 001a 02F07F00 		and	r0, r2, #127
 457              		.loc 1 380 26 view .LVU160
 458 001e A070     		strb	r0, [r4, #2]
 381:Drivers/STM32F4xx_HAL_Driver/Src/stm32f4xx_hal_rtc_ex.c ****   sTimeStamp->TimeFormat = (uint8_t)((tmptime & (RTC_TSTR_PM))                 >> RTC_TSTR_PM_Pos);
 459              		.loc 1 381 3 is_stmt 1 view .LVU161
 460              		.loc 1 381 28 is_stmt 0 view .LVU162
 461 0020 C2F38052 		ubfx	r2, r2, #22, #1
 462              	.LVL32:
 463              		.loc 1 381 26 view .LVU163
 464 0024 E270     		strb	r2, [r4, #3]
 382:Drivers/STM32F4xx_HAL_Driver/Src/stm32f4xx_hal_rtc_ex.c ****   sTimeStamp->SubSeconds = (uint32_t) hrtc->Instance->TSSSR;
 465              		.loc 1 382 3 is_stmt 1 view .LVU164
 466              		.loc 1 382 43 is_stmt 0 view .LVU165
 467 0026 3268     		ldr	r2, [r6]
 468              		.loc 1 382 53 view .LVU166
 469 0028 926B     		ldr	r2, [r2, #56]
 470              		.loc 1 382 26 view .LVU167
 471 002a 6260     		str	r2, [r4, #4]
 383:Drivers/STM32F4xx_HAL_Driver/Src/stm32f4xx_hal_rtc_ex.c **** 
 384:Drivers/STM32F4xx_HAL_Driver/Src/stm32f4xx_hal_rtc_ex.c ****   /* Fill the Date structure fields with the read parameters */
 385:Drivers/STM32F4xx_HAL_Driver/Src/stm32f4xx_hal_rtc_ex.c ****   sTimeStampDate->Year    = 0U;
 472              		.loc 1 385 3 is_stmt 1 view .LVU168
ARM GAS  /tmp/cc8XWiN3.s 			page 16


 473              		.loc 1 385 27 is_stmt 0 view .LVU169
 474 002c 0022     		movs	r2, #0
 475 002e EA70     		strb	r2, [r5, #3]
 386:Drivers/STM32F4xx_HAL_Driver/Src/stm32f4xx_hal_rtc_ex.c ****   sTimeStampDate->Month   = (uint8_t)((tmpdate & (RTC_TSDR_MT | RTC_TSDR_MU)) >> RTC_TSDR_MU_Pos);
 476              		.loc 1 386 3 is_stmt 1 view .LVU170
 477              		.loc 1 386 29 is_stmt 0 view .LVU171
 478 0030 C1F30422 		ubfx	r2, r1, #8, #5
 479              		.loc 1 386 27 view .LVU172
 480 0034 6A70     		strb	r2, [r5, #1]
 387:Drivers/STM32F4xx_HAL_Driver/Src/stm32f4xx_hal_rtc_ex.c ****   sTimeStampDate->Date    = (uint8_t)((tmpdate & (RTC_TSDR_DT | RTC_TSDR_DU)) >> RTC_TSDR_DU_Pos);
 481              		.loc 1 387 3 is_stmt 1 view .LVU173
 482              		.loc 1 387 29 is_stmt 0 view .LVU174
 483 0036 01F03F02 		and	r2, r1, #63
 484              		.loc 1 387 27 view .LVU175
 485 003a AA70     		strb	r2, [r5, #2]
 388:Drivers/STM32F4xx_HAL_Driver/Src/stm32f4xx_hal_rtc_ex.c ****   sTimeStampDate->WeekDay = (uint8_t)((tmpdate & (RTC_TSDR_WDU))              >> RTC_TSDR_WDU_Pos);
 486              		.loc 1 388 3 is_stmt 1 view .LVU176
 487              		.loc 1 388 29 is_stmt 0 view .LVU177
 488 003c C1F34231 		ubfx	r1, r1, #13, #3
 489              	.LVL33:
 490              		.loc 1 388 27 view .LVU178
 491 0040 2970     		strb	r1, [r5]
 389:Drivers/STM32F4xx_HAL_Driver/Src/stm32f4xx_hal_rtc_ex.c **** 
 390:Drivers/STM32F4xx_HAL_Driver/Src/stm32f4xx_hal_rtc_ex.c ****   /* Check the input parameters format */
 391:Drivers/STM32F4xx_HAL_Driver/Src/stm32f4xx_hal_rtc_ex.c ****   if (Format == RTC_FORMAT_BIN)
 492              		.loc 1 391 3 is_stmt 1 view .LVU179
 493              		.loc 1 391 6 is_stmt 0 view .LVU180
 494 0042 3BB1     		cbz	r3, .L23
 495              	.LVL34:
 496              	.L21:
 392:Drivers/STM32F4xx_HAL_Driver/Src/stm32f4xx_hal_rtc_ex.c ****   {
 393:Drivers/STM32F4xx_HAL_Driver/Src/stm32f4xx_hal_rtc_ex.c ****     /* Convert the Timestamp structure parameters to Binary format */
 394:Drivers/STM32F4xx_HAL_Driver/Src/stm32f4xx_hal_rtc_ex.c ****     sTimeStamp->Hours   = (uint8_t)RTC_Bcd2ToByte(sTimeStamp->Hours);
 395:Drivers/STM32F4xx_HAL_Driver/Src/stm32f4xx_hal_rtc_ex.c ****     sTimeStamp->Minutes = (uint8_t)RTC_Bcd2ToByte(sTimeStamp->Minutes);
 396:Drivers/STM32F4xx_HAL_Driver/Src/stm32f4xx_hal_rtc_ex.c ****     sTimeStamp->Seconds = (uint8_t)RTC_Bcd2ToByte(sTimeStamp->Seconds);
 397:Drivers/STM32F4xx_HAL_Driver/Src/stm32f4xx_hal_rtc_ex.c **** 
 398:Drivers/STM32F4xx_HAL_Driver/Src/stm32f4xx_hal_rtc_ex.c ****     /* Convert the DateTimeStamp structure parameters to Binary format */
 399:Drivers/STM32F4xx_HAL_Driver/Src/stm32f4xx_hal_rtc_ex.c ****     sTimeStampDate->Month   = (uint8_t)RTC_Bcd2ToByte(sTimeStampDate->Month);
 400:Drivers/STM32F4xx_HAL_Driver/Src/stm32f4xx_hal_rtc_ex.c ****     sTimeStampDate->Date    = (uint8_t)RTC_Bcd2ToByte(sTimeStampDate->Date);
 401:Drivers/STM32F4xx_HAL_Driver/Src/stm32f4xx_hal_rtc_ex.c ****     sTimeStampDate->WeekDay = (uint8_t)RTC_Bcd2ToByte(sTimeStampDate->WeekDay);
 402:Drivers/STM32F4xx_HAL_Driver/Src/stm32f4xx_hal_rtc_ex.c ****   }
 403:Drivers/STM32F4xx_HAL_Driver/Src/stm32f4xx_hal_rtc_ex.c **** 
 404:Drivers/STM32F4xx_HAL_Driver/Src/stm32f4xx_hal_rtc_ex.c ****   /* Clear the Timestamp Flag */
 405:Drivers/STM32F4xx_HAL_Driver/Src/stm32f4xx_hal_rtc_ex.c ****   __HAL_RTC_TIMESTAMP_CLEAR_FLAG(hrtc, RTC_FLAG_TSF);
 497              		.loc 1 405 3 is_stmt 1 view .LVU181
 498 0044 3268     		ldr	r2, [r6]
 499 0046 D368     		ldr	r3, [r2, #12]
 500 0048 DBB2     		uxtb	r3, r3
 501 004a 63F40863 		orn	r3, r3, #2176
 502 004e D360     		str	r3, [r2, #12]
 406:Drivers/STM32F4xx_HAL_Driver/Src/stm32f4xx_hal_rtc_ex.c **** 
 407:Drivers/STM32F4xx_HAL_Driver/Src/stm32f4xx_hal_rtc_ex.c ****   return HAL_OK;
 503              		.loc 1 407 3 view .LVU182
 408:Drivers/STM32F4xx_HAL_Driver/Src/stm32f4xx_hal_rtc_ex.c **** }
 504              		.loc 1 408 1 is_stmt 0 view .LVU183
 505 0050 0020     		movs	r0, #0
 506 0052 70BD     		pop	{r4, r5, r6, pc}
ARM GAS  /tmp/cc8XWiN3.s 			page 17


 507              	.LVL35:
 508              	.L23:
 394:Drivers/STM32F4xx_HAL_Driver/Src/stm32f4xx_hal_rtc_ex.c ****     sTimeStamp->Minutes = (uint8_t)RTC_Bcd2ToByte(sTimeStamp->Minutes);
 509              		.loc 1 394 5 is_stmt 1 view .LVU184
 394:Drivers/STM32F4xx_HAL_Driver/Src/stm32f4xx_hal_rtc_ex.c ****     sTimeStamp->Minutes = (uint8_t)RTC_Bcd2ToByte(sTimeStamp->Minutes);
 510              		.loc 1 394 36 is_stmt 0 view .LVU185
 511 0054 2078     		ldrb	r0, [r4]	@ zero_extendqisi2
 512 0056 FFF7FEFF 		bl	RTC_Bcd2ToByte
 513              	.LVL36:
 394:Drivers/STM32F4xx_HAL_Driver/Src/stm32f4xx_hal_rtc_ex.c ****     sTimeStamp->Minutes = (uint8_t)RTC_Bcd2ToByte(sTimeStamp->Minutes);
 514              		.loc 1 394 25 discriminator 1 view .LVU186
 515 005a 2070     		strb	r0, [r4]
 395:Drivers/STM32F4xx_HAL_Driver/Src/stm32f4xx_hal_rtc_ex.c ****     sTimeStamp->Seconds = (uint8_t)RTC_Bcd2ToByte(sTimeStamp->Seconds);
 516              		.loc 1 395 5 is_stmt 1 view .LVU187
 395:Drivers/STM32F4xx_HAL_Driver/Src/stm32f4xx_hal_rtc_ex.c ****     sTimeStamp->Seconds = (uint8_t)RTC_Bcd2ToByte(sTimeStamp->Seconds);
 517              		.loc 1 395 36 is_stmt 0 view .LVU188
 518 005c 6078     		ldrb	r0, [r4, #1]	@ zero_extendqisi2
 519 005e FFF7FEFF 		bl	RTC_Bcd2ToByte
 520              	.LVL37:
 395:Drivers/STM32F4xx_HAL_Driver/Src/stm32f4xx_hal_rtc_ex.c ****     sTimeStamp->Seconds = (uint8_t)RTC_Bcd2ToByte(sTimeStamp->Seconds);
 521              		.loc 1 395 25 discriminator 1 view .LVU189
 522 0062 6070     		strb	r0, [r4, #1]
 396:Drivers/STM32F4xx_HAL_Driver/Src/stm32f4xx_hal_rtc_ex.c **** 
 523              		.loc 1 396 5 is_stmt 1 view .LVU190
 396:Drivers/STM32F4xx_HAL_Driver/Src/stm32f4xx_hal_rtc_ex.c **** 
 524              		.loc 1 396 36 is_stmt 0 view .LVU191
 525 0064 A078     		ldrb	r0, [r4, #2]	@ zero_extendqisi2
 526 0066 FFF7FEFF 		bl	RTC_Bcd2ToByte
 527              	.LVL38:
 396:Drivers/STM32F4xx_HAL_Driver/Src/stm32f4xx_hal_rtc_ex.c **** 
 528              		.loc 1 396 25 discriminator 1 view .LVU192
 529 006a A070     		strb	r0, [r4, #2]
 399:Drivers/STM32F4xx_HAL_Driver/Src/stm32f4xx_hal_rtc_ex.c ****     sTimeStampDate->Date    = (uint8_t)RTC_Bcd2ToByte(sTimeStampDate->Date);
 530              		.loc 1 399 5 is_stmt 1 view .LVU193
 399:Drivers/STM32F4xx_HAL_Driver/Src/stm32f4xx_hal_rtc_ex.c ****     sTimeStampDate->Date    = (uint8_t)RTC_Bcd2ToByte(sTimeStampDate->Date);
 531              		.loc 1 399 40 is_stmt 0 view .LVU194
 532 006c 6878     		ldrb	r0, [r5, #1]	@ zero_extendqisi2
 533 006e FFF7FEFF 		bl	RTC_Bcd2ToByte
 534              	.LVL39:
 399:Drivers/STM32F4xx_HAL_Driver/Src/stm32f4xx_hal_rtc_ex.c ****     sTimeStampDate->Date    = (uint8_t)RTC_Bcd2ToByte(sTimeStampDate->Date);
 535              		.loc 1 399 29 discriminator 1 view .LVU195
 536 0072 6870     		strb	r0, [r5, #1]
 400:Drivers/STM32F4xx_HAL_Driver/Src/stm32f4xx_hal_rtc_ex.c ****     sTimeStampDate->WeekDay = (uint8_t)RTC_Bcd2ToByte(sTimeStampDate->WeekDay);
 537              		.loc 1 400 5 is_stmt 1 view .LVU196
 400:Drivers/STM32F4xx_HAL_Driver/Src/stm32f4xx_hal_rtc_ex.c ****     sTimeStampDate->WeekDay = (uint8_t)RTC_Bcd2ToByte(sTimeStampDate->WeekDay);
 538              		.loc 1 400 40 is_stmt 0 view .LVU197
 539 0074 A878     		ldrb	r0, [r5, #2]	@ zero_extendqisi2
 540 0076 FFF7FEFF 		bl	RTC_Bcd2ToByte
 541              	.LVL40:
 400:Drivers/STM32F4xx_HAL_Driver/Src/stm32f4xx_hal_rtc_ex.c ****     sTimeStampDate->WeekDay = (uint8_t)RTC_Bcd2ToByte(sTimeStampDate->WeekDay);
 542              		.loc 1 400 29 discriminator 1 view .LVU198
 543 007a A870     		strb	r0, [r5, #2]
 401:Drivers/STM32F4xx_HAL_Driver/Src/stm32f4xx_hal_rtc_ex.c ****   }
 544              		.loc 1 401 5 is_stmt 1 view .LVU199
 401:Drivers/STM32F4xx_HAL_Driver/Src/stm32f4xx_hal_rtc_ex.c ****   }
 545              		.loc 1 401 40 is_stmt 0 view .LVU200
 546 007c 2878     		ldrb	r0, [r5]	@ zero_extendqisi2
ARM GAS  /tmp/cc8XWiN3.s 			page 18


 547 007e FFF7FEFF 		bl	RTC_Bcd2ToByte
 548              	.LVL41:
 401:Drivers/STM32F4xx_HAL_Driver/Src/stm32f4xx_hal_rtc_ex.c ****   }
 549              		.loc 1 401 29 discriminator 1 view .LVU201
 550 0082 2870     		strb	r0, [r5]
 551 0084 DEE7     		b	.L21
 552              		.cfi_endproc
 553              	.LFE133:
 555              		.section	.text.HAL_RTCEx_SetTamper,"ax",%progbits
 556              		.align	1
 557              		.global	HAL_RTCEx_SetTamper
 558              		.syntax unified
 559              		.thumb
 560              		.thumb_func
 562              	HAL_RTCEx_SetTamper:
 563              	.LVL42:
 564              	.LFB134:
 409:Drivers/STM32F4xx_HAL_Driver/Src/stm32f4xx_hal_rtc_ex.c **** 
 410:Drivers/STM32F4xx_HAL_Driver/Src/stm32f4xx_hal_rtc_ex.c **** /**
 411:Drivers/STM32F4xx_HAL_Driver/Src/stm32f4xx_hal_rtc_ex.c ****   * @brief  Sets Tamper.
 412:Drivers/STM32F4xx_HAL_Driver/Src/stm32f4xx_hal_rtc_ex.c ****   * @note   By calling this API the tamper global interrupt will be disabled.
 413:Drivers/STM32F4xx_HAL_Driver/Src/stm32f4xx_hal_rtc_ex.c ****   * @param  hrtc pointer to a RTC_HandleTypeDef structure that contains
 414:Drivers/STM32F4xx_HAL_Driver/Src/stm32f4xx_hal_rtc_ex.c ****   *                the configuration information for RTC.
 415:Drivers/STM32F4xx_HAL_Driver/Src/stm32f4xx_hal_rtc_ex.c ****   * @param  sTamper Pointer to Tamper Structure.
 416:Drivers/STM32F4xx_HAL_Driver/Src/stm32f4xx_hal_rtc_ex.c ****   * @retval HAL status
 417:Drivers/STM32F4xx_HAL_Driver/Src/stm32f4xx_hal_rtc_ex.c ****   */
 418:Drivers/STM32F4xx_HAL_Driver/Src/stm32f4xx_hal_rtc_ex.c **** HAL_StatusTypeDef HAL_RTCEx_SetTamper(RTC_HandleTypeDef *hrtc, RTC_TamperTypeDef *sTamper)
 419:Drivers/STM32F4xx_HAL_Driver/Src/stm32f4xx_hal_rtc_ex.c **** {
 565              		.loc 1 419 1 is_stmt 1 view -0
 566              		.cfi_startproc
 567              		@ args = 0, pretend = 0, frame = 0
 568              		@ frame_needed = 0, uses_anonymous_args = 0
 569              		@ link register save eliminated.
 420:Drivers/STM32F4xx_HAL_Driver/Src/stm32f4xx_hal_rtc_ex.c ****   uint32_t tmpreg = 0U;
 570              		.loc 1 420 3 view .LVU203
 421:Drivers/STM32F4xx_HAL_Driver/Src/stm32f4xx_hal_rtc_ex.c **** 
 422:Drivers/STM32F4xx_HAL_Driver/Src/stm32f4xx_hal_rtc_ex.c ****   /* Check the parameters */
 423:Drivers/STM32F4xx_HAL_Driver/Src/stm32f4xx_hal_rtc_ex.c ****   assert_param(IS_RTC_TAMPER(sTamper->Tamper));
 571              		.loc 1 423 3 view .LVU204
 424:Drivers/STM32F4xx_HAL_Driver/Src/stm32f4xx_hal_rtc_ex.c ****   assert_param(IS_RTC_TAMPER_PIN(sTamper->PinSelection));
 572              		.loc 1 424 3 view .LVU205
 425:Drivers/STM32F4xx_HAL_Driver/Src/stm32f4xx_hal_rtc_ex.c ****   assert_param(IS_RTC_TAMPER_TRIGGER(sTamper->Trigger));
 573              		.loc 1 425 3 view .LVU206
 426:Drivers/STM32F4xx_HAL_Driver/Src/stm32f4xx_hal_rtc_ex.c ****   assert_param(IS_RTC_TAMPER_FILTER(sTamper->Filter));
 574              		.loc 1 426 3 view .LVU207
 427:Drivers/STM32F4xx_HAL_Driver/Src/stm32f4xx_hal_rtc_ex.c ****   assert_param(IS_RTC_TAMPER_FILTER_CONFIG_CORRECT(sTamper->Filter, sTamper->Trigger));
 575              		.loc 1 427 3 view .LVU208
 428:Drivers/STM32F4xx_HAL_Driver/Src/stm32f4xx_hal_rtc_ex.c ****   assert_param(IS_RTC_TAMPER_SAMPLING_FREQ(sTamper->SamplingFrequency));
 576              		.loc 1 428 3 view .LVU209
 429:Drivers/STM32F4xx_HAL_Driver/Src/stm32f4xx_hal_rtc_ex.c ****   assert_param(IS_RTC_TAMPER_PRECHARGE_DURATION(sTamper->PrechargeDuration));
 577              		.loc 1 429 3 view .LVU210
 430:Drivers/STM32F4xx_HAL_Driver/Src/stm32f4xx_hal_rtc_ex.c ****   assert_param(IS_RTC_TAMPER_PULLUP_STATE(sTamper->TamperPullUp));
 578              		.loc 1 430 3 view .LVU211
 431:Drivers/STM32F4xx_HAL_Driver/Src/stm32f4xx_hal_rtc_ex.c ****   assert_param(IS_RTC_TAMPER_TIMESTAMPONTAMPER_DETECTION(sTamper->TimeStampOnTamperDetection));
 579              		.loc 1 431 3 view .LVU212
 432:Drivers/STM32F4xx_HAL_Driver/Src/stm32f4xx_hal_rtc_ex.c **** 
 433:Drivers/STM32F4xx_HAL_Driver/Src/stm32f4xx_hal_rtc_ex.c ****   /* Process Locked */
ARM GAS  /tmp/cc8XWiN3.s 			page 19


 434:Drivers/STM32F4xx_HAL_Driver/Src/stm32f4xx_hal_rtc_ex.c ****   __HAL_LOCK(hrtc);
 580              		.loc 1 434 3 view .LVU213
 581              		.loc 1 434 3 view .LVU214
 582 0000 037F     		ldrb	r3, [r0, #28]	@ zero_extendqisi2
 583 0002 012B     		cmp	r3, #1
 584 0004 28D0     		beq	.L28
 419:Drivers/STM32F4xx_HAL_Driver/Src/stm32f4xx_hal_rtc_ex.c ****   uint32_t tmpreg = 0U;
 585              		.loc 1 419 1 is_stmt 0 view .LVU215
 586 0006 30B4     		push	{r4, r5}
 587              		.cfi_def_cfa_offset 8
 588              		.cfi_offset 4, -8
 589              		.cfi_offset 5, -4
 590 0008 0246     		mov	r2, r0
 591              		.loc 1 434 3 is_stmt 1 discriminator 2 view .LVU216
 592 000a 0123     		movs	r3, #1
 593 000c 0377     		strb	r3, [r0, #28]
 594              		.loc 1 434 3 view .LVU217
 435:Drivers/STM32F4xx_HAL_Driver/Src/stm32f4xx_hal_rtc_ex.c **** 
 436:Drivers/STM32F4xx_HAL_Driver/Src/stm32f4xx_hal_rtc_ex.c ****   hrtc->State = HAL_RTC_STATE_BUSY;
 595              		.loc 1 436 3 view .LVU218
 596              		.loc 1 436 15 is_stmt 0 view .LVU219
 597 000e 0223     		movs	r3, #2
 598 0010 4377     		strb	r3, [r0, #29]
 437:Drivers/STM32F4xx_HAL_Driver/Src/stm32f4xx_hal_rtc_ex.c **** 
 438:Drivers/STM32F4xx_HAL_Driver/Src/stm32f4xx_hal_rtc_ex.c ****   /* Copy control register into temporary variable */
 439:Drivers/STM32F4xx_HAL_Driver/Src/stm32f4xx_hal_rtc_ex.c ****   tmpreg = hrtc->Instance->TAFCR;
 599              		.loc 1 439 3 is_stmt 1 view .LVU220
 600              		.loc 1 439 16 is_stmt 0 view .LVU221
 601 0012 0468     		ldr	r4, [r0]
 602              		.loc 1 439 10 view .LVU222
 603 0014 206C     		ldr	r0, [r4, #64]
 604              	.LVL43:
 440:Drivers/STM32F4xx_HAL_Driver/Src/stm32f4xx_hal_rtc_ex.c **** 
 441:Drivers/STM32F4xx_HAL_Driver/Src/stm32f4xx_hal_rtc_ex.c ****   /* Enable selected tamper */
 442:Drivers/STM32F4xx_HAL_Driver/Src/stm32f4xx_hal_rtc_ex.c ****   tmpreg |= (sTamper->Tamper);
 605              		.loc 1 442 3 is_stmt 1 view .LVU223
 606              		.loc 1 442 21 is_stmt 0 view .LVU224
 607 0016 0D68     		ldr	r5, [r1]
 608              		.loc 1 442 10 view .LVU225
 609 0018 2843     		orrs	r0, r0, r5
 610              	.LVL44:
 443:Drivers/STM32F4xx_HAL_Driver/Src/stm32f4xx_hal_rtc_ex.c **** 
 444:Drivers/STM32F4xx_HAL_Driver/Src/stm32f4xx_hal_rtc_ex.c ****   /* Configure the tamper trigger bit (this bit is just on the right of the
 445:Drivers/STM32F4xx_HAL_Driver/Src/stm32f4xx_hal_rtc_ex.c ****        tamper enable bit, hence the one-time right shift before updating it) */
 446:Drivers/STM32F4xx_HAL_Driver/Src/stm32f4xx_hal_rtc_ex.c ****   if (sTamper->Trigger == RTC_TAMPERTRIGGER_FALLINGEDGE)
 611              		.loc 1 446 3 is_stmt 1 view .LVU226
 612              		.loc 1 446 14 is_stmt 0 view .LVU227
 613 001a 8B68     		ldr	r3, [r1, #8]
 614              		.loc 1 446 6 view .LVU228
 615 001c 022B     		cmp	r3, #2
 616 001e 18D0     		beq	.L33
 447:Drivers/STM32F4xx_HAL_Driver/Src/stm32f4xx_hal_rtc_ex.c ****   {
 448:Drivers/STM32F4xx_HAL_Driver/Src/stm32f4xx_hal_rtc_ex.c ****     /* Set the tamper trigger bit (case of falling edge or high level) */
 449:Drivers/STM32F4xx_HAL_Driver/Src/stm32f4xx_hal_rtc_ex.c ****     tmpreg |= (uint32_t)(sTamper->Tamper << 1U);
 450:Drivers/STM32F4xx_HAL_Driver/Src/stm32f4xx_hal_rtc_ex.c ****   }
 451:Drivers/STM32F4xx_HAL_Driver/Src/stm32f4xx_hal_rtc_ex.c ****   else
 452:Drivers/STM32F4xx_HAL_Driver/Src/stm32f4xx_hal_rtc_ex.c ****   {
ARM GAS  /tmp/cc8XWiN3.s 			page 20


 453:Drivers/STM32F4xx_HAL_Driver/Src/stm32f4xx_hal_rtc_ex.c ****     /* Clear the tamper trigger bit (case of rising edge or low level) */
 454:Drivers/STM32F4xx_HAL_Driver/Src/stm32f4xx_hal_rtc_ex.c ****     tmpreg &= (uint32_t)~(sTamper->Tamper << 1U);
 617              		.loc 1 454 5 is_stmt 1 view .LVU229
 618              		.loc 1 454 12 is_stmt 0 view .LVU230
 619 0020 20EA4500 		bic	r0, r0, r5, lsl #1
 620              	.LVL45:
 621              	.L27:
 455:Drivers/STM32F4xx_HAL_Driver/Src/stm32f4xx_hal_rtc_ex.c ****   }
 456:Drivers/STM32F4xx_HAL_Driver/Src/stm32f4xx_hal_rtc_ex.c **** 
 457:Drivers/STM32F4xx_HAL_Driver/Src/stm32f4xx_hal_rtc_ex.c ****   /* Clear remaining fields before setting them */
 458:Drivers/STM32F4xx_HAL_Driver/Src/stm32f4xx_hal_rtc_ex.c ****   tmpreg &= ~(RTC_TAMPERFILTER_MASK              | \
 622              		.loc 1 458 3 is_stmt 1 view .LVU231
 623              		.loc 1 458 10 is_stmt 0 view .LVU232
 624 0024 6FF3D010 		bfc	r0, #7, #10
 625              	.LVL46:
 459:Drivers/STM32F4xx_HAL_Driver/Src/stm32f4xx_hal_rtc_ex.c ****               RTC_TAMPERSAMPLINGFREQ_RTCCLK_MASK | \
 460:Drivers/STM32F4xx_HAL_Driver/Src/stm32f4xx_hal_rtc_ex.c ****               RTC_TAMPERPRECHARGEDURATION_MASK   | \
 461:Drivers/STM32F4xx_HAL_Driver/Src/stm32f4xx_hal_rtc_ex.c ****               RTC_TAMPER_PULLUP_MASK             | \
 462:Drivers/STM32F4xx_HAL_Driver/Src/stm32f4xx_hal_rtc_ex.c ****               RTC_TAFCR_TAMP1INSEL               | \
 463:Drivers/STM32F4xx_HAL_Driver/Src/stm32f4xx_hal_rtc_ex.c ****               RTC_TIMESTAMPONTAMPERDETECTION_MASK);
 464:Drivers/STM32F4xx_HAL_Driver/Src/stm32f4xx_hal_rtc_ex.c **** 
 465:Drivers/STM32F4xx_HAL_Driver/Src/stm32f4xx_hal_rtc_ex.c ****   /* Set remaining parameters of desired configuration into temporary variable */
 466:Drivers/STM32F4xx_HAL_Driver/Src/stm32f4xx_hal_rtc_ex.c ****   tmpreg |= ((uint32_t)sTamper->Filter            | \
 626              		.loc 1 466 3 is_stmt 1 view .LVU233
 627              		.loc 1 466 31 is_stmt 0 view .LVU234
 628 0028 CB68     		ldr	r3, [r1, #12]
 467:Drivers/STM32F4xx_HAL_Driver/Src/stm32f4xx_hal_rtc_ex.c ****              (uint32_t)sTamper->SamplingFrequency | \
 629              		.loc 1 467 31 view .LVU235
 630 002a 0D69     		ldr	r5, [r1, #16]
 466:Drivers/STM32F4xx_HAL_Driver/Src/stm32f4xx_hal_rtc_ex.c ****              (uint32_t)sTamper->SamplingFrequency | \
 631              		.loc 1 466 51 view .LVU236
 632 002c 2B43     		orrs	r3, r3, r5
 468:Drivers/STM32F4xx_HAL_Driver/Src/stm32f4xx_hal_rtc_ex.c ****              (uint32_t)sTamper->PrechargeDuration | \
 633              		.loc 1 468 31 view .LVU237
 634 002e 4D69     		ldr	r5, [r1, #20]
 467:Drivers/STM32F4xx_HAL_Driver/Src/stm32f4xx_hal_rtc_ex.c ****              (uint32_t)sTamper->SamplingFrequency | \
 635              		.loc 1 467 51 view .LVU238
 636 0030 2B43     		orrs	r3, r3, r5
 469:Drivers/STM32F4xx_HAL_Driver/Src/stm32f4xx_hal_rtc_ex.c ****              (uint32_t)sTamper->TamperPullUp      | \
 637              		.loc 1 469 31 view .LVU239
 638 0032 8D69     		ldr	r5, [r1, #24]
 468:Drivers/STM32F4xx_HAL_Driver/Src/stm32f4xx_hal_rtc_ex.c ****              (uint32_t)sTamper->PrechargeDuration | \
 639              		.loc 1 468 51 view .LVU240
 640 0034 2B43     		orrs	r3, r3, r5
 470:Drivers/STM32F4xx_HAL_Driver/Src/stm32f4xx_hal_rtc_ex.c ****              (uint32_t)sTamper->PinSelection      | \
 641              		.loc 1 470 31 view .LVU241
 642 0036 4D68     		ldr	r5, [r1, #4]
 469:Drivers/STM32F4xx_HAL_Driver/Src/stm32f4xx_hal_rtc_ex.c ****              (uint32_t)sTamper->TamperPullUp      | \
 643              		.loc 1 469 51 view .LVU242
 644 0038 2B43     		orrs	r3, r3, r5
 471:Drivers/STM32F4xx_HAL_Driver/Src/stm32f4xx_hal_rtc_ex.c ****              (uint32_t)sTamper->TimeStampOnTamperDetection);
 645              		.loc 1 471 31 view .LVU243
 646 003a C969     		ldr	r1, [r1, #28]
 647              	.LVL47:
 470:Drivers/STM32F4xx_HAL_Driver/Src/stm32f4xx_hal_rtc_ex.c ****              (uint32_t)sTamper->PinSelection      | \
 648              		.loc 1 470 51 view .LVU244
 649 003c 0B43     		orrs	r3, r3, r1
ARM GAS  /tmp/cc8XWiN3.s 			page 21


 466:Drivers/STM32F4xx_HAL_Driver/Src/stm32f4xx_hal_rtc_ex.c ****              (uint32_t)sTamper->SamplingFrequency | \
 650              		.loc 1 466 10 view .LVU245
 651 003e 0343     		orrs	r3, r3, r0
 652              	.LVL48:
 472:Drivers/STM32F4xx_HAL_Driver/Src/stm32f4xx_hal_rtc_ex.c **** 
 473:Drivers/STM32F4xx_HAL_Driver/Src/stm32f4xx_hal_rtc_ex.c ****   /* Disable tamper global interrupt in case it is enabled */
 474:Drivers/STM32F4xx_HAL_Driver/Src/stm32f4xx_hal_rtc_ex.c ****   tmpreg &= (uint32_t)~RTC_TAFCR_TAMPIE;
 653              		.loc 1 474 3 is_stmt 1 view .LVU246
 654              		.loc 1 474 10 is_stmt 0 view .LVU247
 655 0040 23F00403 		bic	r3, r3, #4
 656              	.LVL49:
 475:Drivers/STM32F4xx_HAL_Driver/Src/stm32f4xx_hal_rtc_ex.c **** 
 476:Drivers/STM32F4xx_HAL_Driver/Src/stm32f4xx_hal_rtc_ex.c ****   /* Copy desired configuration into configuration register */
 477:Drivers/STM32F4xx_HAL_Driver/Src/stm32f4xx_hal_rtc_ex.c ****   hrtc->Instance->TAFCR = tmpreg;
 657              		.loc 1 477 3 is_stmt 1 view .LVU248
 658              		.loc 1 477 25 is_stmt 0 view .LVU249
 659 0044 2364     		str	r3, [r4, #64]
 478:Drivers/STM32F4xx_HAL_Driver/Src/stm32f4xx_hal_rtc_ex.c **** 
 479:Drivers/STM32F4xx_HAL_Driver/Src/stm32f4xx_hal_rtc_ex.c ****   hrtc->State = HAL_RTC_STATE_READY;
 660              		.loc 1 479 3 is_stmt 1 view .LVU250
 661              		.loc 1 479 15 is_stmt 0 view .LVU251
 662 0046 0123     		movs	r3, #1
 663              	.LVL50:
 664              		.loc 1 479 15 view .LVU252
 665 0048 5377     		strb	r3, [r2, #29]
 666              	.LVL51:
 480:Drivers/STM32F4xx_HAL_Driver/Src/stm32f4xx_hal_rtc_ex.c **** 
 481:Drivers/STM32F4xx_HAL_Driver/Src/stm32f4xx_hal_rtc_ex.c ****   /* Process Unlocked */
 482:Drivers/STM32F4xx_HAL_Driver/Src/stm32f4xx_hal_rtc_ex.c ****   __HAL_UNLOCK(hrtc);
 667              		.loc 1 482 3 is_stmt 1 view .LVU253
 668              		.loc 1 482 3 view .LVU254
 669 004a 0020     		movs	r0, #0
 670 004c 1077     		strb	r0, [r2, #28]
 671              		.loc 1 482 3 view .LVU255
 483:Drivers/STM32F4xx_HAL_Driver/Src/stm32f4xx_hal_rtc_ex.c **** 
 484:Drivers/STM32F4xx_HAL_Driver/Src/stm32f4xx_hal_rtc_ex.c ****   return HAL_OK;
 672              		.loc 1 484 3 view .LVU256
 485:Drivers/STM32F4xx_HAL_Driver/Src/stm32f4xx_hal_rtc_ex.c **** }
 673              		.loc 1 485 1 is_stmt 0 view .LVU257
 674 004e 30BC     		pop	{r4, r5}
 675              		.cfi_remember_state
 676              		.cfi_restore 5
 677              		.cfi_restore 4
 678              		.cfi_def_cfa_offset 0
 679 0050 7047     		bx	lr
 680              	.LVL52:
 681              	.L33:
 682              		.cfi_restore_state
 449:Drivers/STM32F4xx_HAL_Driver/Src/stm32f4xx_hal_rtc_ex.c ****   }
 683              		.loc 1 449 5 is_stmt 1 view .LVU258
 449:Drivers/STM32F4xx_HAL_Driver/Src/stm32f4xx_hal_rtc_ex.c ****   }
 684              		.loc 1 449 12 is_stmt 0 view .LVU259
 685 0052 40EA4500 		orr	r0, r0, r5, lsl #1
 686              	.LVL53:
 449:Drivers/STM32F4xx_HAL_Driver/Src/stm32f4xx_hal_rtc_ex.c ****   }
 687              		.loc 1 449 12 view .LVU260
 688 0056 E5E7     		b	.L27
ARM GAS  /tmp/cc8XWiN3.s 			page 22


 689              	.LVL54:
 690              	.L28:
 691              		.cfi_def_cfa_offset 0
 692              		.cfi_restore 4
 693              		.cfi_restore 5
 434:Drivers/STM32F4xx_HAL_Driver/Src/stm32f4xx_hal_rtc_ex.c **** 
 694              		.loc 1 434 3 discriminator 1 view .LVU261
 695 0058 0220     		movs	r0, #2
 696              	.LVL55:
 697              		.loc 1 485 1 view .LVU262
 698 005a 7047     		bx	lr
 699              		.cfi_endproc
 700              	.LFE134:
 702              		.section	.text.HAL_RTCEx_SetTamper_IT,"ax",%progbits
 703              		.align	1
 704              		.global	HAL_RTCEx_SetTamper_IT
 705              		.syntax unified
 706              		.thumb
 707              		.thumb_func
 709              	HAL_RTCEx_SetTamper_IT:
 710              	.LVL56:
 711              	.LFB135:
 486:Drivers/STM32F4xx_HAL_Driver/Src/stm32f4xx_hal_rtc_ex.c **** 
 487:Drivers/STM32F4xx_HAL_Driver/Src/stm32f4xx_hal_rtc_ex.c **** /**
 488:Drivers/STM32F4xx_HAL_Driver/Src/stm32f4xx_hal_rtc_ex.c ****   * @brief  Sets Tamper with interrupt.
 489:Drivers/STM32F4xx_HAL_Driver/Src/stm32f4xx_hal_rtc_ex.c ****   * @note   By calling this API the tamper global interrupt will be enabled.
 490:Drivers/STM32F4xx_HAL_Driver/Src/stm32f4xx_hal_rtc_ex.c ****   * @param  hrtc pointer to a RTC_HandleTypeDef structure that contains
 491:Drivers/STM32F4xx_HAL_Driver/Src/stm32f4xx_hal_rtc_ex.c ****   *                the configuration information for RTC.
 492:Drivers/STM32F4xx_HAL_Driver/Src/stm32f4xx_hal_rtc_ex.c ****   * @param  sTamper Pointer to RTC Tamper.
 493:Drivers/STM32F4xx_HAL_Driver/Src/stm32f4xx_hal_rtc_ex.c ****   * @retval HAL status
 494:Drivers/STM32F4xx_HAL_Driver/Src/stm32f4xx_hal_rtc_ex.c ****   */
 495:Drivers/STM32F4xx_HAL_Driver/Src/stm32f4xx_hal_rtc_ex.c **** HAL_StatusTypeDef HAL_RTCEx_SetTamper_IT(RTC_HandleTypeDef *hrtc, RTC_TamperTypeDef *sTamper)
 496:Drivers/STM32F4xx_HAL_Driver/Src/stm32f4xx_hal_rtc_ex.c **** {
 712              		.loc 1 496 1 is_stmt 1 view -0
 713              		.cfi_startproc
 714              		@ args = 0, pretend = 0, frame = 0
 715              		@ frame_needed = 0, uses_anonymous_args = 0
 716              		@ link register save eliminated.
 497:Drivers/STM32F4xx_HAL_Driver/Src/stm32f4xx_hal_rtc_ex.c ****   uint32_t tmpreg = 0U;
 717              		.loc 1 497 3 view .LVU264
 498:Drivers/STM32F4xx_HAL_Driver/Src/stm32f4xx_hal_rtc_ex.c **** 
 499:Drivers/STM32F4xx_HAL_Driver/Src/stm32f4xx_hal_rtc_ex.c ****   /* Check the parameters */
 500:Drivers/STM32F4xx_HAL_Driver/Src/stm32f4xx_hal_rtc_ex.c ****   assert_param(IS_RTC_TAMPER(sTamper->Tamper));
 718              		.loc 1 500 3 view .LVU265
 501:Drivers/STM32F4xx_HAL_Driver/Src/stm32f4xx_hal_rtc_ex.c ****   assert_param(IS_RTC_TAMPER_PIN(sTamper->PinSelection));
 719              		.loc 1 501 3 view .LVU266
 502:Drivers/STM32F4xx_HAL_Driver/Src/stm32f4xx_hal_rtc_ex.c ****   assert_param(IS_RTC_TAMPER_TRIGGER(sTamper->Trigger));
 720              		.loc 1 502 3 view .LVU267
 503:Drivers/STM32F4xx_HAL_Driver/Src/stm32f4xx_hal_rtc_ex.c ****   assert_param(IS_RTC_TAMPER_FILTER(sTamper->Filter));
 721              		.loc 1 503 3 view .LVU268
 504:Drivers/STM32F4xx_HAL_Driver/Src/stm32f4xx_hal_rtc_ex.c ****   assert_param(IS_RTC_TAMPER_FILTER_CONFIG_CORRECT(sTamper->Filter, sTamper->Trigger));
 722              		.loc 1 504 3 view .LVU269
 505:Drivers/STM32F4xx_HAL_Driver/Src/stm32f4xx_hal_rtc_ex.c ****   assert_param(IS_RTC_TAMPER_SAMPLING_FREQ(sTamper->SamplingFrequency));
 723              		.loc 1 505 3 view .LVU270
 506:Drivers/STM32F4xx_HAL_Driver/Src/stm32f4xx_hal_rtc_ex.c ****   assert_param(IS_RTC_TAMPER_PRECHARGE_DURATION(sTamper->PrechargeDuration));
 724              		.loc 1 506 3 view .LVU271
 507:Drivers/STM32F4xx_HAL_Driver/Src/stm32f4xx_hal_rtc_ex.c ****   assert_param(IS_RTC_TAMPER_PULLUP_STATE(sTamper->TamperPullUp));
ARM GAS  /tmp/cc8XWiN3.s 			page 23


 725              		.loc 1 507 3 view .LVU272
 508:Drivers/STM32F4xx_HAL_Driver/Src/stm32f4xx_hal_rtc_ex.c ****   assert_param(IS_RTC_TAMPER_TIMESTAMPONTAMPER_DETECTION(sTamper->TimeStampOnTamperDetection));
 726              		.loc 1 508 3 view .LVU273
 509:Drivers/STM32F4xx_HAL_Driver/Src/stm32f4xx_hal_rtc_ex.c **** 
 510:Drivers/STM32F4xx_HAL_Driver/Src/stm32f4xx_hal_rtc_ex.c ****   /* Process Locked */
 511:Drivers/STM32F4xx_HAL_Driver/Src/stm32f4xx_hal_rtc_ex.c ****   __HAL_LOCK(hrtc);
 727              		.loc 1 511 3 view .LVU274
 728              		.loc 1 511 3 view .LVU275
 729 0000 037F     		ldrb	r3, [r0, #28]	@ zero_extendqisi2
 730 0002 012B     		cmp	r3, #1
 731 0004 31D0     		beq	.L38
 496:Drivers/STM32F4xx_HAL_Driver/Src/stm32f4xx_hal_rtc_ex.c ****   uint32_t tmpreg = 0U;
 732              		.loc 1 496 1 is_stmt 0 view .LVU276
 733 0006 30B4     		push	{r4, r5}
 734              		.cfi_def_cfa_offset 8
 735              		.cfi_offset 4, -8
 736              		.cfi_offset 5, -4
 737 0008 0246     		mov	r2, r0
 738              		.loc 1 511 3 is_stmt 1 discriminator 2 view .LVU277
 739 000a 0123     		movs	r3, #1
 740 000c 0377     		strb	r3, [r0, #28]
 741              		.loc 1 511 3 view .LVU278
 512:Drivers/STM32F4xx_HAL_Driver/Src/stm32f4xx_hal_rtc_ex.c **** 
 513:Drivers/STM32F4xx_HAL_Driver/Src/stm32f4xx_hal_rtc_ex.c ****   hrtc->State = HAL_RTC_STATE_BUSY;
 742              		.loc 1 513 3 view .LVU279
 743              		.loc 1 513 15 is_stmt 0 view .LVU280
 744 000e 0223     		movs	r3, #2
 745 0010 4377     		strb	r3, [r0, #29]
 514:Drivers/STM32F4xx_HAL_Driver/Src/stm32f4xx_hal_rtc_ex.c **** 
 515:Drivers/STM32F4xx_HAL_Driver/Src/stm32f4xx_hal_rtc_ex.c ****   /* Copy control register into temporary variable */
 516:Drivers/STM32F4xx_HAL_Driver/Src/stm32f4xx_hal_rtc_ex.c ****   tmpreg = hrtc->Instance->TAFCR;
 746              		.loc 1 516 3 is_stmt 1 view .LVU281
 747              		.loc 1 516 16 is_stmt 0 view .LVU282
 748 0012 0468     		ldr	r4, [r0]
 749              		.loc 1 516 10 view .LVU283
 750 0014 206C     		ldr	r0, [r4, #64]
 751              	.LVL57:
 517:Drivers/STM32F4xx_HAL_Driver/Src/stm32f4xx_hal_rtc_ex.c **** 
 518:Drivers/STM32F4xx_HAL_Driver/Src/stm32f4xx_hal_rtc_ex.c ****   /* Enable selected tamper */
 519:Drivers/STM32F4xx_HAL_Driver/Src/stm32f4xx_hal_rtc_ex.c ****   tmpreg |= (sTamper->Tamper);
 752              		.loc 1 519 3 is_stmt 1 view .LVU284
 753              		.loc 1 519 21 is_stmt 0 view .LVU285
 754 0016 0D68     		ldr	r5, [r1]
 755              		.loc 1 519 10 view .LVU286
 756 0018 2843     		orrs	r0, r0, r5
 757              	.LVL58:
 520:Drivers/STM32F4xx_HAL_Driver/Src/stm32f4xx_hal_rtc_ex.c **** 
 521:Drivers/STM32F4xx_HAL_Driver/Src/stm32f4xx_hal_rtc_ex.c ****   /* Configure the tamper trigger bit (this bit is just on the right of the
 522:Drivers/STM32F4xx_HAL_Driver/Src/stm32f4xx_hal_rtc_ex.c ****        tamper enable bit, hence the one-time right shift before updating it) */
 523:Drivers/STM32F4xx_HAL_Driver/Src/stm32f4xx_hal_rtc_ex.c ****   if (sTamper->Trigger == RTC_TAMPERTRIGGER_FALLINGEDGE)
 758              		.loc 1 523 3 is_stmt 1 view .LVU287
 759              		.loc 1 523 14 is_stmt 0 view .LVU288
 760 001a 8B68     		ldr	r3, [r1, #8]
 761              		.loc 1 523 6 view .LVU289
 762 001c 022B     		cmp	r3, #2
 763 001e 21D0     		beq	.L43
 524:Drivers/STM32F4xx_HAL_Driver/Src/stm32f4xx_hal_rtc_ex.c ****   {
ARM GAS  /tmp/cc8XWiN3.s 			page 24


 525:Drivers/STM32F4xx_HAL_Driver/Src/stm32f4xx_hal_rtc_ex.c ****     /* Set the tamper trigger bit (case of falling edge or high level) */
 526:Drivers/STM32F4xx_HAL_Driver/Src/stm32f4xx_hal_rtc_ex.c ****     tmpreg |= (uint32_t)(sTamper->Tamper << 1U);
 527:Drivers/STM32F4xx_HAL_Driver/Src/stm32f4xx_hal_rtc_ex.c ****   }
 528:Drivers/STM32F4xx_HAL_Driver/Src/stm32f4xx_hal_rtc_ex.c ****   else
 529:Drivers/STM32F4xx_HAL_Driver/Src/stm32f4xx_hal_rtc_ex.c ****   {
 530:Drivers/STM32F4xx_HAL_Driver/Src/stm32f4xx_hal_rtc_ex.c ****     /* Clear the tamper trigger bit (case of rising edge or low level) */
 531:Drivers/STM32F4xx_HAL_Driver/Src/stm32f4xx_hal_rtc_ex.c ****     tmpreg &= (uint32_t)~(sTamper->Tamper << 1U);
 764              		.loc 1 531 5 is_stmt 1 view .LVU290
 765              		.loc 1 531 12 is_stmt 0 view .LVU291
 766 0020 20EA4500 		bic	r0, r0, r5, lsl #1
 767              	.LVL59:
 768              	.L37:
 532:Drivers/STM32F4xx_HAL_Driver/Src/stm32f4xx_hal_rtc_ex.c ****   }
 533:Drivers/STM32F4xx_HAL_Driver/Src/stm32f4xx_hal_rtc_ex.c **** 
 534:Drivers/STM32F4xx_HAL_Driver/Src/stm32f4xx_hal_rtc_ex.c ****   /* Clear remaining fields before setting them */
 535:Drivers/STM32F4xx_HAL_Driver/Src/stm32f4xx_hal_rtc_ex.c ****   tmpreg &= ~(RTC_TAMPERFILTER_MASK              | \
 769              		.loc 1 535 3 is_stmt 1 view .LVU292
 770              		.loc 1 535 10 is_stmt 0 view .LVU293
 771 0024 6FF3D010 		bfc	r0, #7, #10
 772              	.LVL60:
 536:Drivers/STM32F4xx_HAL_Driver/Src/stm32f4xx_hal_rtc_ex.c ****               RTC_TAMPERSAMPLINGFREQ_RTCCLK_MASK | \
 537:Drivers/STM32F4xx_HAL_Driver/Src/stm32f4xx_hal_rtc_ex.c ****               RTC_TAMPERPRECHARGEDURATION_MASK   | \
 538:Drivers/STM32F4xx_HAL_Driver/Src/stm32f4xx_hal_rtc_ex.c ****               RTC_TAMPER_PULLUP_MASK             | \
 539:Drivers/STM32F4xx_HAL_Driver/Src/stm32f4xx_hal_rtc_ex.c ****               RTC_TAFCR_TAMP1INSEL               | \
 540:Drivers/STM32F4xx_HAL_Driver/Src/stm32f4xx_hal_rtc_ex.c ****               RTC_TIMESTAMPONTAMPERDETECTION_MASK);
 541:Drivers/STM32F4xx_HAL_Driver/Src/stm32f4xx_hal_rtc_ex.c **** 
 542:Drivers/STM32F4xx_HAL_Driver/Src/stm32f4xx_hal_rtc_ex.c ****   /* Set remaining parameters of desired configuration into temporary variable */
 543:Drivers/STM32F4xx_HAL_Driver/Src/stm32f4xx_hal_rtc_ex.c ****   tmpreg |= ((uint32_t)sTamper->Filter            | \
 773              		.loc 1 543 3 is_stmt 1 view .LVU294
 774              		.loc 1 543 31 is_stmt 0 view .LVU295
 775 0028 CB68     		ldr	r3, [r1, #12]
 544:Drivers/STM32F4xx_HAL_Driver/Src/stm32f4xx_hal_rtc_ex.c ****              (uint32_t)sTamper->SamplingFrequency | \
 776              		.loc 1 544 31 view .LVU296
 777 002a 0D69     		ldr	r5, [r1, #16]
 543:Drivers/STM32F4xx_HAL_Driver/Src/stm32f4xx_hal_rtc_ex.c ****              (uint32_t)sTamper->SamplingFrequency | \
 778              		.loc 1 543 51 view .LVU297
 779 002c 2B43     		orrs	r3, r3, r5
 545:Drivers/STM32F4xx_HAL_Driver/Src/stm32f4xx_hal_rtc_ex.c ****              (uint32_t)sTamper->PrechargeDuration | \
 780              		.loc 1 545 31 view .LVU298
 781 002e 4D69     		ldr	r5, [r1, #20]
 544:Drivers/STM32F4xx_HAL_Driver/Src/stm32f4xx_hal_rtc_ex.c ****              (uint32_t)sTamper->SamplingFrequency | \
 782              		.loc 1 544 51 view .LVU299
 783 0030 2B43     		orrs	r3, r3, r5
 546:Drivers/STM32F4xx_HAL_Driver/Src/stm32f4xx_hal_rtc_ex.c ****              (uint32_t)sTamper->TamperPullUp      | \
 784              		.loc 1 546 31 view .LVU300
 785 0032 8D69     		ldr	r5, [r1, #24]
 545:Drivers/STM32F4xx_HAL_Driver/Src/stm32f4xx_hal_rtc_ex.c ****              (uint32_t)sTamper->PrechargeDuration | \
 786              		.loc 1 545 51 view .LVU301
 787 0034 2B43     		orrs	r3, r3, r5
 547:Drivers/STM32F4xx_HAL_Driver/Src/stm32f4xx_hal_rtc_ex.c ****              (uint32_t)sTamper->PinSelection      | \
 788              		.loc 1 547 31 view .LVU302
 789 0036 4D68     		ldr	r5, [r1, #4]
 546:Drivers/STM32F4xx_HAL_Driver/Src/stm32f4xx_hal_rtc_ex.c ****              (uint32_t)sTamper->TamperPullUp      | \
 790              		.loc 1 546 51 view .LVU303
 791 0038 2B43     		orrs	r3, r3, r5
 548:Drivers/STM32F4xx_HAL_Driver/Src/stm32f4xx_hal_rtc_ex.c ****              (uint32_t)sTamper->TimeStampOnTamperDetection);
 792              		.loc 1 548 31 view .LVU304
ARM GAS  /tmp/cc8XWiN3.s 			page 25


 793 003a C969     		ldr	r1, [r1, #28]
 794              	.LVL61:
 547:Drivers/STM32F4xx_HAL_Driver/Src/stm32f4xx_hal_rtc_ex.c ****              (uint32_t)sTamper->PinSelection      | \
 795              		.loc 1 547 51 view .LVU305
 796 003c 0B43     		orrs	r3, r3, r1
 543:Drivers/STM32F4xx_HAL_Driver/Src/stm32f4xx_hal_rtc_ex.c ****              (uint32_t)sTamper->SamplingFrequency | \
 797              		.loc 1 543 10 view .LVU306
 798 003e 0343     		orrs	r3, r3, r0
 799              	.LVL62:
 549:Drivers/STM32F4xx_HAL_Driver/Src/stm32f4xx_hal_rtc_ex.c **** 
 550:Drivers/STM32F4xx_HAL_Driver/Src/stm32f4xx_hal_rtc_ex.c ****   /* Enable global tamper interrupt */
 551:Drivers/STM32F4xx_HAL_Driver/Src/stm32f4xx_hal_rtc_ex.c ****   tmpreg |= (uint32_t)RTC_TAFCR_TAMPIE;
 800              		.loc 1 551 3 is_stmt 1 view .LVU307
 801              		.loc 1 551 10 is_stmt 0 view .LVU308
 802 0040 43F00403 		orr	r3, r3, #4
 803              	.LVL63:
 552:Drivers/STM32F4xx_HAL_Driver/Src/stm32f4xx_hal_rtc_ex.c **** 
 553:Drivers/STM32F4xx_HAL_Driver/Src/stm32f4xx_hal_rtc_ex.c ****   /* Copy desired configuration into configuration register */
 554:Drivers/STM32F4xx_HAL_Driver/Src/stm32f4xx_hal_rtc_ex.c ****   hrtc->Instance->TAFCR = tmpreg;
 804              		.loc 1 554 3 is_stmt 1 view .LVU309
 805              		.loc 1 554 25 is_stmt 0 view .LVU310
 806 0044 2364     		str	r3, [r4, #64]
 555:Drivers/STM32F4xx_HAL_Driver/Src/stm32f4xx_hal_rtc_ex.c **** 
 556:Drivers/STM32F4xx_HAL_Driver/Src/stm32f4xx_hal_rtc_ex.c ****   /* RTC Tamper Interrupt Configuration: EXTI configuration */
 557:Drivers/STM32F4xx_HAL_Driver/Src/stm32f4xx_hal_rtc_ex.c ****   __HAL_RTC_TAMPER_TIMESTAMP_EXTI_ENABLE_IT();
 807              		.loc 1 557 3 is_stmt 1 view .LVU311
 808 0046 0A4B     		ldr	r3, .L44
 809              	.LVL64:
 810              		.loc 1 557 3 is_stmt 0 view .LVU312
 811 0048 1968     		ldr	r1, [r3]
 812 004a 41F40011 		orr	r1, r1, #2097152
 813 004e 1960     		str	r1, [r3]
 814              	.LVL65:
 558:Drivers/STM32F4xx_HAL_Driver/Src/stm32f4xx_hal_rtc_ex.c ****   __HAL_RTC_TAMPER_TIMESTAMP_EXTI_ENABLE_RISING_EDGE();
 815              		.loc 1 558 3 is_stmt 1 view .LVU313
 816 0050 9968     		ldr	r1, [r3, #8]
 817 0052 41F40011 		orr	r1, r1, #2097152
 818 0056 9960     		str	r1, [r3, #8]
 559:Drivers/STM32F4xx_HAL_Driver/Src/stm32f4xx_hal_rtc_ex.c **** 
 560:Drivers/STM32F4xx_HAL_Driver/Src/stm32f4xx_hal_rtc_ex.c ****   hrtc->State = HAL_RTC_STATE_READY;
 819              		.loc 1 560 3 view .LVU314
 820              		.loc 1 560 15 is_stmt 0 view .LVU315
 821 0058 0123     		movs	r3, #1
 822 005a 5377     		strb	r3, [r2, #29]
 561:Drivers/STM32F4xx_HAL_Driver/Src/stm32f4xx_hal_rtc_ex.c **** 
 562:Drivers/STM32F4xx_HAL_Driver/Src/stm32f4xx_hal_rtc_ex.c ****   /* Process Unlocked */
 563:Drivers/STM32F4xx_HAL_Driver/Src/stm32f4xx_hal_rtc_ex.c ****   __HAL_UNLOCK(hrtc);
 823              		.loc 1 563 3 is_stmt 1 view .LVU316
 824              		.loc 1 563 3 view .LVU317
 825 005c 0020     		movs	r0, #0
 826 005e 1077     		strb	r0, [r2, #28]
 827              		.loc 1 563 3 view .LVU318
 564:Drivers/STM32F4xx_HAL_Driver/Src/stm32f4xx_hal_rtc_ex.c **** 
 565:Drivers/STM32F4xx_HAL_Driver/Src/stm32f4xx_hal_rtc_ex.c ****   return HAL_OK;
 828              		.loc 1 565 3 view .LVU319
 566:Drivers/STM32F4xx_HAL_Driver/Src/stm32f4xx_hal_rtc_ex.c **** }
 829              		.loc 1 566 1 is_stmt 0 view .LVU320
ARM GAS  /tmp/cc8XWiN3.s 			page 26


 830 0060 30BC     		pop	{r4, r5}
 831              		.cfi_remember_state
 832              		.cfi_restore 5
 833              		.cfi_restore 4
 834              		.cfi_def_cfa_offset 0
 835 0062 7047     		bx	lr
 836              	.LVL66:
 837              	.L43:
 838              		.cfi_restore_state
 526:Drivers/STM32F4xx_HAL_Driver/Src/stm32f4xx_hal_rtc_ex.c ****   }
 839              		.loc 1 526 5 is_stmt 1 view .LVU321
 526:Drivers/STM32F4xx_HAL_Driver/Src/stm32f4xx_hal_rtc_ex.c ****   }
 840              		.loc 1 526 12 is_stmt 0 view .LVU322
 841 0064 40EA4500 		orr	r0, r0, r5, lsl #1
 842              	.LVL67:
 526:Drivers/STM32F4xx_HAL_Driver/Src/stm32f4xx_hal_rtc_ex.c ****   }
 843              		.loc 1 526 12 view .LVU323
 844 0068 DCE7     		b	.L37
 845              	.LVL68:
 846              	.L38:
 847              		.cfi_def_cfa_offset 0
 848              		.cfi_restore 4
 849              		.cfi_restore 5
 511:Drivers/STM32F4xx_HAL_Driver/Src/stm32f4xx_hal_rtc_ex.c **** 
 850              		.loc 1 511 3 discriminator 1 view .LVU324
 851 006a 0220     		movs	r0, #2
 852              	.LVL69:
 853              		.loc 1 566 1 view .LVU325
 854 006c 7047     		bx	lr
 855              	.L45:
 856 006e 00BF     		.align	2
 857              	.L44:
 858 0070 003C0140 		.word	1073822720
 859              		.cfi_endproc
 860              	.LFE135:
 862              		.section	.text.HAL_RTCEx_DeactivateTamper,"ax",%progbits
 863              		.align	1
 864              		.global	HAL_RTCEx_DeactivateTamper
 865              		.syntax unified
 866              		.thumb
 867              		.thumb_func
 869              	HAL_RTCEx_DeactivateTamper:
 870              	.LVL70:
 871              	.LFB136:
 567:Drivers/STM32F4xx_HAL_Driver/Src/stm32f4xx_hal_rtc_ex.c **** 
 568:Drivers/STM32F4xx_HAL_Driver/Src/stm32f4xx_hal_rtc_ex.c **** /**
 569:Drivers/STM32F4xx_HAL_Driver/Src/stm32f4xx_hal_rtc_ex.c ****   * @brief  Deactivates Tamper.
 570:Drivers/STM32F4xx_HAL_Driver/Src/stm32f4xx_hal_rtc_ex.c ****   * @note   The tamper global interrupt bit will remain unchanged.
 571:Drivers/STM32F4xx_HAL_Driver/Src/stm32f4xx_hal_rtc_ex.c ****   * @param  hrtc pointer to a RTC_HandleTypeDef structure that contains
 572:Drivers/STM32F4xx_HAL_Driver/Src/stm32f4xx_hal_rtc_ex.c ****   *                the configuration information for RTC.
 573:Drivers/STM32F4xx_HAL_Driver/Src/stm32f4xx_hal_rtc_ex.c ****   * @param  Tamper Selected tamper pin.
 574:Drivers/STM32F4xx_HAL_Driver/Src/stm32f4xx_hal_rtc_ex.c ****   *          This parameter can be any combination of the following values:
 575:Drivers/STM32F4xx_HAL_Driver/Src/stm32f4xx_hal_rtc_ex.c ****   *            @arg RTC_TAMPER_1:  Tamper 1
 576:Drivers/STM32F4xx_HAL_Driver/Src/stm32f4xx_hal_rtc_ex.c ****   *            @arg RTC_TAMPER_2:  Tamper 2
 577:Drivers/STM32F4xx_HAL_Driver/Src/stm32f4xx_hal_rtc_ex.c ****   * @note   RTC_TAMPER_2 is not applicable to all devices.
 578:Drivers/STM32F4xx_HAL_Driver/Src/stm32f4xx_hal_rtc_ex.c ****   * @retval HAL status
 579:Drivers/STM32F4xx_HAL_Driver/Src/stm32f4xx_hal_rtc_ex.c ****   */
ARM GAS  /tmp/cc8XWiN3.s 			page 27


 580:Drivers/STM32F4xx_HAL_Driver/Src/stm32f4xx_hal_rtc_ex.c **** HAL_StatusTypeDef HAL_RTCEx_DeactivateTamper(RTC_HandleTypeDef *hrtc, uint32_t Tamper)
 581:Drivers/STM32F4xx_HAL_Driver/Src/stm32f4xx_hal_rtc_ex.c **** {
 872              		.loc 1 581 1 is_stmt 1 view -0
 873              		.cfi_startproc
 874              		@ args = 0, pretend = 0, frame = 0
 875              		@ frame_needed = 0, uses_anonymous_args = 0
 876              		@ link register save eliminated.
 582:Drivers/STM32F4xx_HAL_Driver/Src/stm32f4xx_hal_rtc_ex.c ****   assert_param(IS_RTC_TAMPER(Tamper));
 877              		.loc 1 582 3 view .LVU327
 583:Drivers/STM32F4xx_HAL_Driver/Src/stm32f4xx_hal_rtc_ex.c **** 
 584:Drivers/STM32F4xx_HAL_Driver/Src/stm32f4xx_hal_rtc_ex.c ****   /* Process Locked */
 585:Drivers/STM32F4xx_HAL_Driver/Src/stm32f4xx_hal_rtc_ex.c ****   __HAL_LOCK(hrtc);
 878              		.loc 1 585 3 view .LVU328
 879              		.loc 1 585 3 view .LVU329
 880 0000 037F     		ldrb	r3, [r0, #28]	@ zero_extendqisi2
 881 0002 012B     		cmp	r3, #1
 882 0004 10D0     		beq	.L48
 581:Drivers/STM32F4xx_HAL_Driver/Src/stm32f4xx_hal_rtc_ex.c ****   assert_param(IS_RTC_TAMPER(Tamper));
 883              		.loc 1 581 1 is_stmt 0 view .LVU330
 884 0006 10B4     		push	{r4}
 885              		.cfi_def_cfa_offset 4
 886              		.cfi_offset 4, -4
 887              		.loc 1 585 3 is_stmt 1 discriminator 2 view .LVU331
 888 0008 0122     		movs	r2, #1
 889 000a 0277     		strb	r2, [r0, #28]
 890              		.loc 1 585 3 view .LVU332
 586:Drivers/STM32F4xx_HAL_Driver/Src/stm32f4xx_hal_rtc_ex.c **** 
 587:Drivers/STM32F4xx_HAL_Driver/Src/stm32f4xx_hal_rtc_ex.c ****   hrtc->State = HAL_RTC_STATE_BUSY;
 891              		.loc 1 587 3 view .LVU333
 892              		.loc 1 587 15 is_stmt 0 view .LVU334
 893 000c 0223     		movs	r3, #2
 894 000e 4377     		strb	r3, [r0, #29]
 588:Drivers/STM32F4xx_HAL_Driver/Src/stm32f4xx_hal_rtc_ex.c **** 
 589:Drivers/STM32F4xx_HAL_Driver/Src/stm32f4xx_hal_rtc_ex.c ****   /* Disable the selected Tamper pin */
 590:Drivers/STM32F4xx_HAL_Driver/Src/stm32f4xx_hal_rtc_ex.c ****   hrtc->Instance->TAFCR &= (uint32_t)~Tamper;
 895              		.loc 1 590 3 is_stmt 1 view .LVU335
 896              		.loc 1 590 7 is_stmt 0 view .LVU336
 897 0010 0468     		ldr	r4, [r0]
 898              		.loc 1 590 17 view .LVU337
 899 0012 236C     		ldr	r3, [r4, #64]
 900              		.loc 1 590 25 view .LVU338
 901 0014 23EA0103 		bic	r3, r3, r1
 902 0018 2364     		str	r3, [r4, #64]
 591:Drivers/STM32F4xx_HAL_Driver/Src/stm32f4xx_hal_rtc_ex.c **** 
 592:Drivers/STM32F4xx_HAL_Driver/Src/stm32f4xx_hal_rtc_ex.c ****   hrtc->State = HAL_RTC_STATE_READY;
 903              		.loc 1 592 3 is_stmt 1 view .LVU339
 904              		.loc 1 592 15 is_stmt 0 view .LVU340
 905 001a 4277     		strb	r2, [r0, #29]
 593:Drivers/STM32F4xx_HAL_Driver/Src/stm32f4xx_hal_rtc_ex.c **** 
 594:Drivers/STM32F4xx_HAL_Driver/Src/stm32f4xx_hal_rtc_ex.c ****   /* Process Unlocked */
 595:Drivers/STM32F4xx_HAL_Driver/Src/stm32f4xx_hal_rtc_ex.c ****   __HAL_UNLOCK(hrtc);
 906              		.loc 1 595 3 is_stmt 1 view .LVU341
 907              		.loc 1 595 3 view .LVU342
 908 001c 0023     		movs	r3, #0
 909 001e 0377     		strb	r3, [r0, #28]
 910              		.loc 1 595 3 view .LVU343
 596:Drivers/STM32F4xx_HAL_Driver/Src/stm32f4xx_hal_rtc_ex.c **** 
ARM GAS  /tmp/cc8XWiN3.s 			page 28


 597:Drivers/STM32F4xx_HAL_Driver/Src/stm32f4xx_hal_rtc_ex.c ****   return HAL_OK;
 911              		.loc 1 597 3 view .LVU344
 912              		.loc 1 597 10 is_stmt 0 view .LVU345
 913 0020 1846     		mov	r0, r3
 914              	.LVL71:
 598:Drivers/STM32F4xx_HAL_Driver/Src/stm32f4xx_hal_rtc_ex.c **** }
 915              		.loc 1 598 1 view .LVU346
 916 0022 5DF8044B 		ldr	r4, [sp], #4
 917              		.cfi_restore 4
 918              		.cfi_def_cfa_offset 0
 919 0026 7047     		bx	lr
 920              	.LVL72:
 921              	.L48:
 585:Drivers/STM32F4xx_HAL_Driver/Src/stm32f4xx_hal_rtc_ex.c **** 
 922              		.loc 1 585 3 discriminator 1 view .LVU347
 923 0028 0220     		movs	r0, #2
 924              	.LVL73:
 925              		.loc 1 598 1 view .LVU348
 926 002a 7047     		bx	lr
 927              		.cfi_endproc
 928              	.LFE136:
 930              		.section	.text.HAL_RTCEx_TimeStampEventCallback,"ax",%progbits
 931              		.align	1
 932              		.weak	HAL_RTCEx_TimeStampEventCallback
 933              		.syntax unified
 934              		.thumb
 935              		.thumb_func
 937              	HAL_RTCEx_TimeStampEventCallback:
 938              	.LVL74:
 939              	.LFB138:
 599:Drivers/STM32F4xx_HAL_Driver/Src/stm32f4xx_hal_rtc_ex.c **** 
 600:Drivers/STM32F4xx_HAL_Driver/Src/stm32f4xx_hal_rtc_ex.c **** /**
 601:Drivers/STM32F4xx_HAL_Driver/Src/stm32f4xx_hal_rtc_ex.c ****   * @brief  Handles Timestamp and Tamper interrupt request.
 602:Drivers/STM32F4xx_HAL_Driver/Src/stm32f4xx_hal_rtc_ex.c ****   * @param  hrtc pointer to a RTC_HandleTypeDef structure that contains
 603:Drivers/STM32F4xx_HAL_Driver/Src/stm32f4xx_hal_rtc_ex.c ****   *                the configuration information for RTC.
 604:Drivers/STM32F4xx_HAL_Driver/Src/stm32f4xx_hal_rtc_ex.c ****   * @retval None
 605:Drivers/STM32F4xx_HAL_Driver/Src/stm32f4xx_hal_rtc_ex.c ****   */
 606:Drivers/STM32F4xx_HAL_Driver/Src/stm32f4xx_hal_rtc_ex.c **** void HAL_RTCEx_TamperTimeStampIRQHandler(RTC_HandleTypeDef *hrtc)
 607:Drivers/STM32F4xx_HAL_Driver/Src/stm32f4xx_hal_rtc_ex.c **** {
 608:Drivers/STM32F4xx_HAL_Driver/Src/stm32f4xx_hal_rtc_ex.c ****   /* Get the Timestamp interrupt source enable status */
 609:Drivers/STM32F4xx_HAL_Driver/Src/stm32f4xx_hal_rtc_ex.c ****   if (__HAL_RTC_TIMESTAMP_GET_IT_SOURCE(hrtc, RTC_IT_TS) != 0U)
 610:Drivers/STM32F4xx_HAL_Driver/Src/stm32f4xx_hal_rtc_ex.c ****   {
 611:Drivers/STM32F4xx_HAL_Driver/Src/stm32f4xx_hal_rtc_ex.c ****     /* Get the pending status of the Timestamp Interrupt */
 612:Drivers/STM32F4xx_HAL_Driver/Src/stm32f4xx_hal_rtc_ex.c ****     if (__HAL_RTC_TIMESTAMP_GET_FLAG(hrtc, RTC_FLAG_TSF) != 0U)
 613:Drivers/STM32F4xx_HAL_Driver/Src/stm32f4xx_hal_rtc_ex.c ****     {
 614:Drivers/STM32F4xx_HAL_Driver/Src/stm32f4xx_hal_rtc_ex.c ****       /* Timestamp callback */
 615:Drivers/STM32F4xx_HAL_Driver/Src/stm32f4xx_hal_rtc_ex.c **** #if (USE_HAL_RTC_REGISTER_CALLBACKS == 1)
 616:Drivers/STM32F4xx_HAL_Driver/Src/stm32f4xx_hal_rtc_ex.c ****       hrtc->TimeStampEventCallback(hrtc);
 617:Drivers/STM32F4xx_HAL_Driver/Src/stm32f4xx_hal_rtc_ex.c **** #else
 618:Drivers/STM32F4xx_HAL_Driver/Src/stm32f4xx_hal_rtc_ex.c ****       HAL_RTCEx_TimeStampEventCallback(hrtc);
 619:Drivers/STM32F4xx_HAL_Driver/Src/stm32f4xx_hal_rtc_ex.c **** #endif /* USE_HAL_RTC_REGISTER_CALLBACKS */
 620:Drivers/STM32F4xx_HAL_Driver/Src/stm32f4xx_hal_rtc_ex.c **** 
 621:Drivers/STM32F4xx_HAL_Driver/Src/stm32f4xx_hal_rtc_ex.c ****       /* Clear the Timestamp interrupt pending bit */
 622:Drivers/STM32F4xx_HAL_Driver/Src/stm32f4xx_hal_rtc_ex.c ****       __HAL_RTC_TIMESTAMP_CLEAR_FLAG(hrtc, RTC_FLAG_TSF);
 623:Drivers/STM32F4xx_HAL_Driver/Src/stm32f4xx_hal_rtc_ex.c ****     }
 624:Drivers/STM32F4xx_HAL_Driver/Src/stm32f4xx_hal_rtc_ex.c ****   }
 625:Drivers/STM32F4xx_HAL_Driver/Src/stm32f4xx_hal_rtc_ex.c **** 
ARM GAS  /tmp/cc8XWiN3.s 			page 29


 626:Drivers/STM32F4xx_HAL_Driver/Src/stm32f4xx_hal_rtc_ex.c ****   /* Get the Tamper 1 interrupt source enable status */
 627:Drivers/STM32F4xx_HAL_Driver/Src/stm32f4xx_hal_rtc_ex.c ****   if (__HAL_RTC_TAMPER_GET_IT_SOURCE(hrtc, RTC_IT_TAMP) != 0U)
 628:Drivers/STM32F4xx_HAL_Driver/Src/stm32f4xx_hal_rtc_ex.c ****   {
 629:Drivers/STM32F4xx_HAL_Driver/Src/stm32f4xx_hal_rtc_ex.c ****     /* Get the pending status of the Tamper 1 Interrupt */
 630:Drivers/STM32F4xx_HAL_Driver/Src/stm32f4xx_hal_rtc_ex.c ****     if (__HAL_RTC_TAMPER_GET_FLAG(hrtc, RTC_FLAG_TAMP1F) != 0U)
 631:Drivers/STM32F4xx_HAL_Driver/Src/stm32f4xx_hal_rtc_ex.c ****     {
 632:Drivers/STM32F4xx_HAL_Driver/Src/stm32f4xx_hal_rtc_ex.c ****       /* Tamper callback */
 633:Drivers/STM32F4xx_HAL_Driver/Src/stm32f4xx_hal_rtc_ex.c **** #if (USE_HAL_RTC_REGISTER_CALLBACKS == 1)
 634:Drivers/STM32F4xx_HAL_Driver/Src/stm32f4xx_hal_rtc_ex.c ****       hrtc->Tamper1EventCallback(hrtc);
 635:Drivers/STM32F4xx_HAL_Driver/Src/stm32f4xx_hal_rtc_ex.c **** #else
 636:Drivers/STM32F4xx_HAL_Driver/Src/stm32f4xx_hal_rtc_ex.c ****       HAL_RTCEx_Tamper1EventCallback(hrtc);
 637:Drivers/STM32F4xx_HAL_Driver/Src/stm32f4xx_hal_rtc_ex.c **** #endif /* USE_HAL_RTC_REGISTER_CALLBACKS */
 638:Drivers/STM32F4xx_HAL_Driver/Src/stm32f4xx_hal_rtc_ex.c **** 
 639:Drivers/STM32F4xx_HAL_Driver/Src/stm32f4xx_hal_rtc_ex.c ****       /* Clear the Tamper interrupt pending bit */
 640:Drivers/STM32F4xx_HAL_Driver/Src/stm32f4xx_hal_rtc_ex.c ****       __HAL_RTC_TAMPER_CLEAR_FLAG(hrtc, RTC_FLAG_TAMP1F);
 641:Drivers/STM32F4xx_HAL_Driver/Src/stm32f4xx_hal_rtc_ex.c ****     }
 642:Drivers/STM32F4xx_HAL_Driver/Src/stm32f4xx_hal_rtc_ex.c ****   }
 643:Drivers/STM32F4xx_HAL_Driver/Src/stm32f4xx_hal_rtc_ex.c **** 
 644:Drivers/STM32F4xx_HAL_Driver/Src/stm32f4xx_hal_rtc_ex.c **** #if defined(RTC_TAMPER2_SUPPORT)
 645:Drivers/STM32F4xx_HAL_Driver/Src/stm32f4xx_hal_rtc_ex.c ****   /* Get the Tamper 2 interrupt source enable status */
 646:Drivers/STM32F4xx_HAL_Driver/Src/stm32f4xx_hal_rtc_ex.c ****   if (__HAL_RTC_TAMPER_GET_IT_SOURCE(hrtc, RTC_IT_TAMP) != 0U)
 647:Drivers/STM32F4xx_HAL_Driver/Src/stm32f4xx_hal_rtc_ex.c ****   {
 648:Drivers/STM32F4xx_HAL_Driver/Src/stm32f4xx_hal_rtc_ex.c ****     /* Get the pending status of the Tamper 2 Interrupt */
 649:Drivers/STM32F4xx_HAL_Driver/Src/stm32f4xx_hal_rtc_ex.c ****     if (__HAL_RTC_TAMPER_GET_FLAG(hrtc, RTC_FLAG_TAMP2F) != 0U)
 650:Drivers/STM32F4xx_HAL_Driver/Src/stm32f4xx_hal_rtc_ex.c ****     {
 651:Drivers/STM32F4xx_HAL_Driver/Src/stm32f4xx_hal_rtc_ex.c ****       /* Tamper callback */
 652:Drivers/STM32F4xx_HAL_Driver/Src/stm32f4xx_hal_rtc_ex.c **** #if (USE_HAL_RTC_REGISTER_CALLBACKS == 1)
 653:Drivers/STM32F4xx_HAL_Driver/Src/stm32f4xx_hal_rtc_ex.c ****       hrtc->Tamper2EventCallback(hrtc);
 654:Drivers/STM32F4xx_HAL_Driver/Src/stm32f4xx_hal_rtc_ex.c **** #else
 655:Drivers/STM32F4xx_HAL_Driver/Src/stm32f4xx_hal_rtc_ex.c ****       HAL_RTCEx_Tamper2EventCallback(hrtc);
 656:Drivers/STM32F4xx_HAL_Driver/Src/stm32f4xx_hal_rtc_ex.c **** #endif /* USE_HAL_RTC_REGISTER_CALLBACKS */
 657:Drivers/STM32F4xx_HAL_Driver/Src/stm32f4xx_hal_rtc_ex.c **** 
 658:Drivers/STM32F4xx_HAL_Driver/Src/stm32f4xx_hal_rtc_ex.c ****       /* Clear the Tamper interrupt pending bit */
 659:Drivers/STM32F4xx_HAL_Driver/Src/stm32f4xx_hal_rtc_ex.c ****       __HAL_RTC_TAMPER_CLEAR_FLAG(hrtc, RTC_FLAG_TAMP2F);
 660:Drivers/STM32F4xx_HAL_Driver/Src/stm32f4xx_hal_rtc_ex.c ****     }
 661:Drivers/STM32F4xx_HAL_Driver/Src/stm32f4xx_hal_rtc_ex.c ****   }
 662:Drivers/STM32F4xx_HAL_Driver/Src/stm32f4xx_hal_rtc_ex.c **** #endif /* RTC_TAMPER2_SUPPORT */
 663:Drivers/STM32F4xx_HAL_Driver/Src/stm32f4xx_hal_rtc_ex.c **** 
 664:Drivers/STM32F4xx_HAL_Driver/Src/stm32f4xx_hal_rtc_ex.c ****   /* Clear the EXTI's Flag for RTC Timestamp and Tamper */
 665:Drivers/STM32F4xx_HAL_Driver/Src/stm32f4xx_hal_rtc_ex.c ****   __HAL_RTC_TAMPER_TIMESTAMP_EXTI_CLEAR_FLAG();
 666:Drivers/STM32F4xx_HAL_Driver/Src/stm32f4xx_hal_rtc_ex.c **** 
 667:Drivers/STM32F4xx_HAL_Driver/Src/stm32f4xx_hal_rtc_ex.c ****   /* Change RTC state */
 668:Drivers/STM32F4xx_HAL_Driver/Src/stm32f4xx_hal_rtc_ex.c ****   hrtc->State = HAL_RTC_STATE_READY;
 669:Drivers/STM32F4xx_HAL_Driver/Src/stm32f4xx_hal_rtc_ex.c **** }
 670:Drivers/STM32F4xx_HAL_Driver/Src/stm32f4xx_hal_rtc_ex.c **** 
 671:Drivers/STM32F4xx_HAL_Driver/Src/stm32f4xx_hal_rtc_ex.c **** /**
 672:Drivers/STM32F4xx_HAL_Driver/Src/stm32f4xx_hal_rtc_ex.c ****   * @brief  Timestamp callback.
 673:Drivers/STM32F4xx_HAL_Driver/Src/stm32f4xx_hal_rtc_ex.c ****   * @param  hrtc pointer to a RTC_HandleTypeDef structure that contains
 674:Drivers/STM32F4xx_HAL_Driver/Src/stm32f4xx_hal_rtc_ex.c ****   *                the configuration information for RTC.
 675:Drivers/STM32F4xx_HAL_Driver/Src/stm32f4xx_hal_rtc_ex.c ****   * @retval None
 676:Drivers/STM32F4xx_HAL_Driver/Src/stm32f4xx_hal_rtc_ex.c ****   */
 677:Drivers/STM32F4xx_HAL_Driver/Src/stm32f4xx_hal_rtc_ex.c **** __weak void HAL_RTCEx_TimeStampEventCallback(RTC_HandleTypeDef *hrtc)
 678:Drivers/STM32F4xx_HAL_Driver/Src/stm32f4xx_hal_rtc_ex.c **** {
 940              		.loc 1 678 1 is_stmt 1 view -0
 941              		.cfi_startproc
 942              		@ args = 0, pretend = 0, frame = 0
 943              		@ frame_needed = 0, uses_anonymous_args = 0
ARM GAS  /tmp/cc8XWiN3.s 			page 30


 944              		@ link register save eliminated.
 679:Drivers/STM32F4xx_HAL_Driver/Src/stm32f4xx_hal_rtc_ex.c ****   /* Prevent unused argument(s) compilation warning */
 680:Drivers/STM32F4xx_HAL_Driver/Src/stm32f4xx_hal_rtc_ex.c ****   UNUSED(hrtc);
 945              		.loc 1 680 3 view .LVU350
 681:Drivers/STM32F4xx_HAL_Driver/Src/stm32f4xx_hal_rtc_ex.c **** 
 682:Drivers/STM32F4xx_HAL_Driver/Src/stm32f4xx_hal_rtc_ex.c ****   /* NOTE: This function should not be modified, when the callback is needed,
 683:Drivers/STM32F4xx_HAL_Driver/Src/stm32f4xx_hal_rtc_ex.c ****            the HAL_RTCEx_TimeStampEventCallback could be implemented in the user file
 684:Drivers/STM32F4xx_HAL_Driver/Src/stm32f4xx_hal_rtc_ex.c ****   */
 685:Drivers/STM32F4xx_HAL_Driver/Src/stm32f4xx_hal_rtc_ex.c **** }
 946              		.loc 1 685 1 is_stmt 0 view .LVU351
 947 0000 7047     		bx	lr
 948              		.cfi_endproc
 949              	.LFE138:
 951              		.section	.text.HAL_RTCEx_Tamper1EventCallback,"ax",%progbits
 952              		.align	1
 953              		.weak	HAL_RTCEx_Tamper1EventCallback
 954              		.syntax unified
 955              		.thumb
 956              		.thumb_func
 958              	HAL_RTCEx_Tamper1EventCallback:
 959              	.LVL75:
 960              	.LFB139:
 686:Drivers/STM32F4xx_HAL_Driver/Src/stm32f4xx_hal_rtc_ex.c **** 
 687:Drivers/STM32F4xx_HAL_Driver/Src/stm32f4xx_hal_rtc_ex.c **** /**
 688:Drivers/STM32F4xx_HAL_Driver/Src/stm32f4xx_hal_rtc_ex.c ****   * @brief  Tamper 1 callback.
 689:Drivers/STM32F4xx_HAL_Driver/Src/stm32f4xx_hal_rtc_ex.c ****   * @param  hrtc pointer to a RTC_HandleTypeDef structure that contains
 690:Drivers/STM32F4xx_HAL_Driver/Src/stm32f4xx_hal_rtc_ex.c ****   *                the configuration information for RTC.
 691:Drivers/STM32F4xx_HAL_Driver/Src/stm32f4xx_hal_rtc_ex.c ****   * @retval None
 692:Drivers/STM32F4xx_HAL_Driver/Src/stm32f4xx_hal_rtc_ex.c ****   */
 693:Drivers/STM32F4xx_HAL_Driver/Src/stm32f4xx_hal_rtc_ex.c **** __weak void HAL_RTCEx_Tamper1EventCallback(RTC_HandleTypeDef *hrtc)
 694:Drivers/STM32F4xx_HAL_Driver/Src/stm32f4xx_hal_rtc_ex.c **** {
 961              		.loc 1 694 1 is_stmt 1 view -0
 962              		.cfi_startproc
 963              		@ args = 0, pretend = 0, frame = 0
 964              		@ frame_needed = 0, uses_anonymous_args = 0
 965              		@ link register save eliminated.
 695:Drivers/STM32F4xx_HAL_Driver/Src/stm32f4xx_hal_rtc_ex.c ****   /* Prevent unused argument(s) compilation warning */
 696:Drivers/STM32F4xx_HAL_Driver/Src/stm32f4xx_hal_rtc_ex.c ****   UNUSED(hrtc);
 966              		.loc 1 696 3 view .LVU353
 697:Drivers/STM32F4xx_HAL_Driver/Src/stm32f4xx_hal_rtc_ex.c **** 
 698:Drivers/STM32F4xx_HAL_Driver/Src/stm32f4xx_hal_rtc_ex.c ****   /* NOTE: This function should not be modified, when the callback is needed,
 699:Drivers/STM32F4xx_HAL_Driver/Src/stm32f4xx_hal_rtc_ex.c ****            the HAL_RTCEx_Tamper1EventCallback could be implemented in the user file
 700:Drivers/STM32F4xx_HAL_Driver/Src/stm32f4xx_hal_rtc_ex.c ****    */
 701:Drivers/STM32F4xx_HAL_Driver/Src/stm32f4xx_hal_rtc_ex.c **** }
 967              		.loc 1 701 1 is_stmt 0 view .LVU354
 968 0000 7047     		bx	lr
 969              		.cfi_endproc
 970              	.LFE139:
 972              		.section	.text.HAL_RTCEx_TamperTimeStampIRQHandler,"ax",%progbits
 973              		.align	1
 974              		.global	HAL_RTCEx_TamperTimeStampIRQHandler
 975              		.syntax unified
 976              		.thumb
 977              		.thumb_func
 979              	HAL_RTCEx_TamperTimeStampIRQHandler:
 980              	.LVL76:
 981              	.LFB137:
ARM GAS  /tmp/cc8XWiN3.s 			page 31


 607:Drivers/STM32F4xx_HAL_Driver/Src/stm32f4xx_hal_rtc_ex.c ****   /* Get the Timestamp interrupt source enable status */
 982              		.loc 1 607 1 is_stmt 1 view -0
 983              		.cfi_startproc
 984              		@ args = 0, pretend = 0, frame = 0
 985              		@ frame_needed = 0, uses_anonymous_args = 0
 607:Drivers/STM32F4xx_HAL_Driver/Src/stm32f4xx_hal_rtc_ex.c ****   /* Get the Timestamp interrupt source enable status */
 986              		.loc 1 607 1 is_stmt 0 view .LVU356
 987 0000 10B5     		push	{r4, lr}
 988              		.cfi_def_cfa_offset 8
 989              		.cfi_offset 4, -8
 990              		.cfi_offset 14, -4
 991 0002 0446     		mov	r4, r0
 609:Drivers/STM32F4xx_HAL_Driver/Src/stm32f4xx_hal_rtc_ex.c ****   {
 992              		.loc 1 609 3 is_stmt 1 view .LVU357
 609:Drivers/STM32F4xx_HAL_Driver/Src/stm32f4xx_hal_rtc_ex.c ****   {
 993              		.loc 1 609 7 is_stmt 0 view .LVU358
 994 0004 0368     		ldr	r3, [r0]
 995 0006 9A68     		ldr	r2, [r3, #8]
 609:Drivers/STM32F4xx_HAL_Driver/Src/stm32f4xx_hal_rtc_ex.c ****   {
 996              		.loc 1 609 6 view .LVU359
 997 0008 12F4004F 		tst	r2, #32768
 998 000c 03D0     		beq	.L56
 612:Drivers/STM32F4xx_HAL_Driver/Src/stm32f4xx_hal_rtc_ex.c ****     {
 999              		.loc 1 612 5 is_stmt 1 view .LVU360
 612:Drivers/STM32F4xx_HAL_Driver/Src/stm32f4xx_hal_rtc_ex.c ****     {
 1000              		.loc 1 612 9 is_stmt 0 view .LVU361
 1001 000e DB68     		ldr	r3, [r3, #12]
 612:Drivers/STM32F4xx_HAL_Driver/Src/stm32f4xx_hal_rtc_ex.c ****     {
 1002              		.loc 1 612 8 view .LVU362
 1003 0010 13F4006F 		tst	r3, #2048
 1004 0014 0FD1     		bne	.L59
 1005              	.LVL77:
 1006              	.L56:
 627:Drivers/STM32F4xx_HAL_Driver/Src/stm32f4xx_hal_rtc_ex.c ****   {
 1007              		.loc 1 627 3 is_stmt 1 view .LVU363
 627:Drivers/STM32F4xx_HAL_Driver/Src/stm32f4xx_hal_rtc_ex.c ****   {
 1008              		.loc 1 627 7 is_stmt 0 view .LVU364
 1009 0016 2368     		ldr	r3, [r4]
 1010 0018 1A6C     		ldr	r2, [r3, #64]
 627:Drivers/STM32F4xx_HAL_Driver/Src/stm32f4xx_hal_rtc_ex.c ****   {
 1011              		.loc 1 627 6 view .LVU365
 1012 001a 12F0040F 		tst	r2, #4
 1013 001e 03D0     		beq	.L57
 630:Drivers/STM32F4xx_HAL_Driver/Src/stm32f4xx_hal_rtc_ex.c ****     {
 1014              		.loc 1 630 5 is_stmt 1 view .LVU366
 630:Drivers/STM32F4xx_HAL_Driver/Src/stm32f4xx_hal_rtc_ex.c ****     {
 1015              		.loc 1 630 9 is_stmt 0 view .LVU367
 1016 0020 DB68     		ldr	r3, [r3, #12]
 630:Drivers/STM32F4xx_HAL_Driver/Src/stm32f4xx_hal_rtc_ex.c ****     {
 1017              		.loc 1 630 8 view .LVU368
 1018 0022 13F4005F 		tst	r3, #8192
 1019 0026 0FD1     		bne	.L60
 1020              	.L57:
 665:Drivers/STM32F4xx_HAL_Driver/Src/stm32f4xx_hal_rtc_ex.c **** 
 1021              		.loc 1 665 3 is_stmt 1 view .LVU369
 1022 0028 0C4B     		ldr	r3, .L61
 1023 002a 4FF40012 		mov	r2, #2097152
ARM GAS  /tmp/cc8XWiN3.s 			page 32


 1024 002e 5A61     		str	r2, [r3, #20]
 668:Drivers/STM32F4xx_HAL_Driver/Src/stm32f4xx_hal_rtc_ex.c **** }
 1025              		.loc 1 668 3 view .LVU370
 668:Drivers/STM32F4xx_HAL_Driver/Src/stm32f4xx_hal_rtc_ex.c **** }
 1026              		.loc 1 668 15 is_stmt 0 view .LVU371
 1027 0030 0123     		movs	r3, #1
 1028 0032 6377     		strb	r3, [r4, #29]
 669:Drivers/STM32F4xx_HAL_Driver/Src/stm32f4xx_hal_rtc_ex.c **** 
 1029              		.loc 1 669 1 view .LVU372
 1030 0034 10BD     		pop	{r4, pc}
 1031              	.LVL78:
 1032              	.L59:
 618:Drivers/STM32F4xx_HAL_Driver/Src/stm32f4xx_hal_rtc_ex.c **** #endif /* USE_HAL_RTC_REGISTER_CALLBACKS */
 1033              		.loc 1 618 7 is_stmt 1 view .LVU373
 1034 0036 FFF7FEFF 		bl	HAL_RTCEx_TimeStampEventCallback
 1035              	.LVL79:
 622:Drivers/STM32F4xx_HAL_Driver/Src/stm32f4xx_hal_rtc_ex.c ****     }
 1036              		.loc 1 622 7 view .LVU374
 1037 003a 2268     		ldr	r2, [r4]
 1038 003c D368     		ldr	r3, [r2, #12]
 1039 003e DBB2     		uxtb	r3, r3
 1040 0040 63F40863 		orn	r3, r3, #2176
 1041 0044 D360     		str	r3, [r2, #12]
 1042 0046 E6E7     		b	.L56
 1043              	.L60:
 636:Drivers/STM32F4xx_HAL_Driver/Src/stm32f4xx_hal_rtc_ex.c **** #endif /* USE_HAL_RTC_REGISTER_CALLBACKS */
 1044              		.loc 1 636 7 view .LVU375
 1045 0048 2046     		mov	r0, r4
 1046 004a FFF7FEFF 		bl	HAL_RTCEx_Tamper1EventCallback
 1047              	.LVL80:
 640:Drivers/STM32F4xx_HAL_Driver/Src/stm32f4xx_hal_rtc_ex.c ****     }
 1048              		.loc 1 640 7 view .LVU376
 1049 004e 2268     		ldr	r2, [r4]
 1050 0050 D368     		ldr	r3, [r2, #12]
 1051 0052 DBB2     		uxtb	r3, r3
 1052 0054 63F40253 		orn	r3, r3, #8320
 1053 0058 D360     		str	r3, [r2, #12]
 1054 005a E5E7     		b	.L57
 1055              	.L62:
 1056              		.align	2
 1057              	.L61:
 1058 005c 003C0140 		.word	1073822720
 1059              		.cfi_endproc
 1060              	.LFE137:
 1062              		.section	.text.HAL_RTCEx_PollForTimeStampEvent,"ax",%progbits
 1063              		.align	1
 1064              		.global	HAL_RTCEx_PollForTimeStampEvent
 1065              		.syntax unified
 1066              		.thumb
 1067              		.thumb_func
 1069              	HAL_RTCEx_PollForTimeStampEvent:
 1070              	.LVL81:
 1071              	.LFB140:
 702:Drivers/STM32F4xx_HAL_Driver/Src/stm32f4xx_hal_rtc_ex.c **** 
 703:Drivers/STM32F4xx_HAL_Driver/Src/stm32f4xx_hal_rtc_ex.c **** #if defined(RTC_TAMPER2_SUPPORT)
 704:Drivers/STM32F4xx_HAL_Driver/Src/stm32f4xx_hal_rtc_ex.c **** /**
 705:Drivers/STM32F4xx_HAL_Driver/Src/stm32f4xx_hal_rtc_ex.c ****   * @brief  Tamper 2 callback.
ARM GAS  /tmp/cc8XWiN3.s 			page 33


 706:Drivers/STM32F4xx_HAL_Driver/Src/stm32f4xx_hal_rtc_ex.c ****   * @param  hrtc pointer to a RTC_HandleTypeDef structure that contains
 707:Drivers/STM32F4xx_HAL_Driver/Src/stm32f4xx_hal_rtc_ex.c ****   *                the configuration information for RTC.
 708:Drivers/STM32F4xx_HAL_Driver/Src/stm32f4xx_hal_rtc_ex.c ****   * @retval None
 709:Drivers/STM32F4xx_HAL_Driver/Src/stm32f4xx_hal_rtc_ex.c ****   */
 710:Drivers/STM32F4xx_HAL_Driver/Src/stm32f4xx_hal_rtc_ex.c **** __weak void HAL_RTCEx_Tamper2EventCallback(RTC_HandleTypeDef *hrtc)
 711:Drivers/STM32F4xx_HAL_Driver/Src/stm32f4xx_hal_rtc_ex.c **** {
 712:Drivers/STM32F4xx_HAL_Driver/Src/stm32f4xx_hal_rtc_ex.c ****   /* Prevent unused argument(s) compilation warning */
 713:Drivers/STM32F4xx_HAL_Driver/Src/stm32f4xx_hal_rtc_ex.c ****   UNUSED(hrtc);
 714:Drivers/STM32F4xx_HAL_Driver/Src/stm32f4xx_hal_rtc_ex.c **** 
 715:Drivers/STM32F4xx_HAL_Driver/Src/stm32f4xx_hal_rtc_ex.c ****   /* NOTE: This function should not be modified, when the callback is needed,
 716:Drivers/STM32F4xx_HAL_Driver/Src/stm32f4xx_hal_rtc_ex.c ****            the HAL_RTCEx_Tamper2EventCallback could be implemented in the user file
 717:Drivers/STM32F4xx_HAL_Driver/Src/stm32f4xx_hal_rtc_ex.c ****    */
 718:Drivers/STM32F4xx_HAL_Driver/Src/stm32f4xx_hal_rtc_ex.c **** }
 719:Drivers/STM32F4xx_HAL_Driver/Src/stm32f4xx_hal_rtc_ex.c **** #endif /* RTC_TAMPER2_SUPPORT */
 720:Drivers/STM32F4xx_HAL_Driver/Src/stm32f4xx_hal_rtc_ex.c **** 
 721:Drivers/STM32F4xx_HAL_Driver/Src/stm32f4xx_hal_rtc_ex.c **** /**
 722:Drivers/STM32F4xx_HAL_Driver/Src/stm32f4xx_hal_rtc_ex.c ****   * @brief  Handles Timestamp polling request.
 723:Drivers/STM32F4xx_HAL_Driver/Src/stm32f4xx_hal_rtc_ex.c ****   * @param  hrtc pointer to a RTC_HandleTypeDef structure that contains
 724:Drivers/STM32F4xx_HAL_Driver/Src/stm32f4xx_hal_rtc_ex.c ****   *                the configuration information for RTC.
 725:Drivers/STM32F4xx_HAL_Driver/Src/stm32f4xx_hal_rtc_ex.c ****   * @param  Timeout Timeout duration
 726:Drivers/STM32F4xx_HAL_Driver/Src/stm32f4xx_hal_rtc_ex.c ****   * @retval HAL status
 727:Drivers/STM32F4xx_HAL_Driver/Src/stm32f4xx_hal_rtc_ex.c ****   */
 728:Drivers/STM32F4xx_HAL_Driver/Src/stm32f4xx_hal_rtc_ex.c **** HAL_StatusTypeDef HAL_RTCEx_PollForTimeStampEvent(RTC_HandleTypeDef *hrtc, uint32_t Timeout)
 729:Drivers/STM32F4xx_HAL_Driver/Src/stm32f4xx_hal_rtc_ex.c **** {
 1072              		.loc 1 729 1 view -0
 1073              		.cfi_startproc
 1074              		@ args = 0, pretend = 0, frame = 0
 1075              		@ frame_needed = 0, uses_anonymous_args = 0
 1076              		.loc 1 729 1 is_stmt 0 view .LVU378
 1077 0000 70B5     		push	{r4, r5, r6, lr}
 1078              		.cfi_def_cfa_offset 16
 1079              		.cfi_offset 4, -16
 1080              		.cfi_offset 5, -12
 1081              		.cfi_offset 6, -8
 1082              		.cfi_offset 14, -4
 1083 0002 0546     		mov	r5, r0
 1084 0004 0C46     		mov	r4, r1
 730:Drivers/STM32F4xx_HAL_Driver/Src/stm32f4xx_hal_rtc_ex.c ****   uint32_t tickstart = 0U;
 1085              		.loc 1 730 3 is_stmt 1 view .LVU379
 1086              	.LVL82:
 731:Drivers/STM32F4xx_HAL_Driver/Src/stm32f4xx_hal_rtc_ex.c **** 
 732:Drivers/STM32F4xx_HAL_Driver/Src/stm32f4xx_hal_rtc_ex.c ****   /* Get tick */
 733:Drivers/STM32F4xx_HAL_Driver/Src/stm32f4xx_hal_rtc_ex.c ****   tickstart = HAL_GetTick();
 1087              		.loc 1 733 3 view .LVU380
 1088              		.loc 1 733 15 is_stmt 0 view .LVU381
 1089 0006 FFF7FEFF 		bl	HAL_GetTick
 1090              	.LVL83:
 1091              		.loc 1 733 15 view .LVU382
 1092 000a 0646     		mov	r6, r0
 1093              	.LVL84:
 734:Drivers/STM32F4xx_HAL_Driver/Src/stm32f4xx_hal_rtc_ex.c **** 
 735:Drivers/STM32F4xx_HAL_Driver/Src/stm32f4xx_hal_rtc_ex.c ****   while (__HAL_RTC_TIMESTAMP_GET_FLAG(hrtc, RTC_FLAG_TSF) == 0U)
 1094              		.loc 1 735 3 is_stmt 1 view .LVU383
 1095              		.loc 1 735 9 is_stmt 0 view .LVU384
 1096 000c 04E0     		b	.L64
 1097              	.LVL85:
 1098              	.L65:
ARM GAS  /tmp/cc8XWiN3.s 			page 34


 736:Drivers/STM32F4xx_HAL_Driver/Src/stm32f4xx_hal_rtc_ex.c ****   {
 737:Drivers/STM32F4xx_HAL_Driver/Src/stm32f4xx_hal_rtc_ex.c ****     if (Timeout != HAL_MAX_DELAY)
 738:Drivers/STM32F4xx_HAL_Driver/Src/stm32f4xx_hal_rtc_ex.c ****     {
 739:Drivers/STM32F4xx_HAL_Driver/Src/stm32f4xx_hal_rtc_ex.c ****       if ((Timeout == 0U) || ((HAL_GetTick() - tickstart) > Timeout))
 740:Drivers/STM32F4xx_HAL_Driver/Src/stm32f4xx_hal_rtc_ex.c ****       {
 741:Drivers/STM32F4xx_HAL_Driver/Src/stm32f4xx_hal_rtc_ex.c ****         hrtc->State = HAL_RTC_STATE_TIMEOUT;
 742:Drivers/STM32F4xx_HAL_Driver/Src/stm32f4xx_hal_rtc_ex.c ****         return HAL_TIMEOUT;
 743:Drivers/STM32F4xx_HAL_Driver/Src/stm32f4xx_hal_rtc_ex.c ****       }
 744:Drivers/STM32F4xx_HAL_Driver/Src/stm32f4xx_hal_rtc_ex.c ****     }
 745:Drivers/STM32F4xx_HAL_Driver/Src/stm32f4xx_hal_rtc_ex.c **** 
 746:Drivers/STM32F4xx_HAL_Driver/Src/stm32f4xx_hal_rtc_ex.c ****     if (__HAL_RTC_TIMESTAMP_GET_FLAG(hrtc, RTC_FLAG_TSOVF) != 0U)
 1099              		.loc 1 746 5 is_stmt 1 view .LVU385
 1100              		.loc 1 746 9 is_stmt 0 view .LVU386
 1101 000e 2B68     		ldr	r3, [r5]
 1102 0010 DA68     		ldr	r2, [r3, #12]
 1103              		.loc 1 746 8 view .LVU387
 1104 0012 12F4805F 		tst	r2, #4096
 1105 0016 10D1     		bne	.L70
 1106              	.L64:
 735:Drivers/STM32F4xx_HAL_Driver/Src/stm32f4xx_hal_rtc_ex.c ****   {
 1107              		.loc 1 735 59 is_stmt 1 view .LVU388
 735:Drivers/STM32F4xx_HAL_Driver/Src/stm32f4xx_hal_rtc_ex.c ****   {
 1108              		.loc 1 735 10 is_stmt 0 view .LVU389
 1109 0018 2B68     		ldr	r3, [r5]
 1110 001a DB68     		ldr	r3, [r3, #12]
 735:Drivers/STM32F4xx_HAL_Driver/Src/stm32f4xx_hal_rtc_ex.c ****   {
 1111              		.loc 1 735 59 view .LVU390
 1112 001c 13F4006F 		tst	r3, #2048
 1113 0020 14D1     		bne	.L71
 737:Drivers/STM32F4xx_HAL_Driver/Src/stm32f4xx_hal_rtc_ex.c ****     {
 1114              		.loc 1 737 5 is_stmt 1 view .LVU391
 737:Drivers/STM32F4xx_HAL_Driver/Src/stm32f4xx_hal_rtc_ex.c ****     {
 1115              		.loc 1 737 8 is_stmt 0 view .LVU392
 1116 0022 B4F1FF3F 		cmp	r4, #-1
 1117 0026 F2D0     		beq	.L65
 739:Drivers/STM32F4xx_HAL_Driver/Src/stm32f4xx_hal_rtc_ex.c ****       {
 1118              		.loc 1 739 7 is_stmt 1 view .LVU393
 739:Drivers/STM32F4xx_HAL_Driver/Src/stm32f4xx_hal_rtc_ex.c ****       {
 1119              		.loc 1 739 10 is_stmt 0 view .LVU394
 1120 0028 24B1     		cbz	r4, .L66
 739:Drivers/STM32F4xx_HAL_Driver/Src/stm32f4xx_hal_rtc_ex.c ****       {
 1121              		.loc 1 739 32 discriminator 1 view .LVU395
 1122 002a FFF7FEFF 		bl	HAL_GetTick
 1123              	.LVL86:
 739:Drivers/STM32F4xx_HAL_Driver/Src/stm32f4xx_hal_rtc_ex.c ****       {
 1124              		.loc 1 739 46 discriminator 1 view .LVU396
 1125 002e 831B     		subs	r3, r0, r6
 739:Drivers/STM32F4xx_HAL_Driver/Src/stm32f4xx_hal_rtc_ex.c ****       {
 1126              		.loc 1 739 27 discriminator 1 view .LVU397
 1127 0030 A342     		cmp	r3, r4
 1128 0032 ECD9     		bls	.L65
 1129              	.L66:
 741:Drivers/STM32F4xx_HAL_Driver/Src/stm32f4xx_hal_rtc_ex.c ****         return HAL_TIMEOUT;
 1130              		.loc 1 741 9 is_stmt 1 view .LVU398
 741:Drivers/STM32F4xx_HAL_Driver/Src/stm32f4xx_hal_rtc_ex.c ****         return HAL_TIMEOUT;
 1131              		.loc 1 741 21 is_stmt 0 view .LVU399
 1132 0034 0320     		movs	r0, #3
ARM GAS  /tmp/cc8XWiN3.s 			page 35


 1133 0036 6877     		strb	r0, [r5, #29]
 742:Drivers/STM32F4xx_HAL_Driver/Src/stm32f4xx_hal_rtc_ex.c ****       }
 1134              		.loc 1 742 9 is_stmt 1 view .LVU400
 1135              	.L67:
 747:Drivers/STM32F4xx_HAL_Driver/Src/stm32f4xx_hal_rtc_ex.c ****     {
 748:Drivers/STM32F4xx_HAL_Driver/Src/stm32f4xx_hal_rtc_ex.c ****       /* Clear the Timestamp Overrun Flag */
 749:Drivers/STM32F4xx_HAL_Driver/Src/stm32f4xx_hal_rtc_ex.c ****       __HAL_RTC_TIMESTAMP_CLEAR_FLAG(hrtc, RTC_FLAG_TSOVF);
 750:Drivers/STM32F4xx_HAL_Driver/Src/stm32f4xx_hal_rtc_ex.c **** 
 751:Drivers/STM32F4xx_HAL_Driver/Src/stm32f4xx_hal_rtc_ex.c ****       /* Change Timestamp state */
 752:Drivers/STM32F4xx_HAL_Driver/Src/stm32f4xx_hal_rtc_ex.c ****       hrtc->State = HAL_RTC_STATE_ERROR;
 753:Drivers/STM32F4xx_HAL_Driver/Src/stm32f4xx_hal_rtc_ex.c **** 
 754:Drivers/STM32F4xx_HAL_Driver/Src/stm32f4xx_hal_rtc_ex.c ****       return HAL_ERROR;
 755:Drivers/STM32F4xx_HAL_Driver/Src/stm32f4xx_hal_rtc_ex.c ****     }
 756:Drivers/STM32F4xx_HAL_Driver/Src/stm32f4xx_hal_rtc_ex.c ****   }
 757:Drivers/STM32F4xx_HAL_Driver/Src/stm32f4xx_hal_rtc_ex.c **** 
 758:Drivers/STM32F4xx_HAL_Driver/Src/stm32f4xx_hal_rtc_ex.c ****   /* Change RTC state */
 759:Drivers/STM32F4xx_HAL_Driver/Src/stm32f4xx_hal_rtc_ex.c ****   hrtc->State = HAL_RTC_STATE_READY;
 760:Drivers/STM32F4xx_HAL_Driver/Src/stm32f4xx_hal_rtc_ex.c **** 
 761:Drivers/STM32F4xx_HAL_Driver/Src/stm32f4xx_hal_rtc_ex.c ****   return HAL_OK;
 762:Drivers/STM32F4xx_HAL_Driver/Src/stm32f4xx_hal_rtc_ex.c **** }
 1136              		.loc 1 762 1 is_stmt 0 view .LVU401
 1137 0038 70BD     		pop	{r4, r5, r6, pc}
 1138              	.LVL87:
 1139              	.L70:
 749:Drivers/STM32F4xx_HAL_Driver/Src/stm32f4xx_hal_rtc_ex.c **** 
 1140              		.loc 1 749 7 is_stmt 1 view .LVU402
 1141 003a DA68     		ldr	r2, [r3, #12]
 1142 003c D2B2     		uxtb	r2, r2
 1143 003e 62F48452 		orn	r2, r2, #4224
 1144 0042 DA60     		str	r2, [r3, #12]
 752:Drivers/STM32F4xx_HAL_Driver/Src/stm32f4xx_hal_rtc_ex.c **** 
 1145              		.loc 1 752 7 view .LVU403
 752:Drivers/STM32F4xx_HAL_Driver/Src/stm32f4xx_hal_rtc_ex.c **** 
 1146              		.loc 1 752 19 is_stmt 0 view .LVU404
 1147 0044 0423     		movs	r3, #4
 1148 0046 6B77     		strb	r3, [r5, #29]
 754:Drivers/STM32F4xx_HAL_Driver/Src/stm32f4xx_hal_rtc_ex.c ****     }
 1149              		.loc 1 754 7 is_stmt 1 view .LVU405
 754:Drivers/STM32F4xx_HAL_Driver/Src/stm32f4xx_hal_rtc_ex.c ****     }
 1150              		.loc 1 754 14 is_stmt 0 view .LVU406
 1151 0048 0120     		movs	r0, #1
 1152 004a F5E7     		b	.L67
 1153              	.L71:
 759:Drivers/STM32F4xx_HAL_Driver/Src/stm32f4xx_hal_rtc_ex.c **** 
 1154              		.loc 1 759 3 is_stmt 1 view .LVU407
 759:Drivers/STM32F4xx_HAL_Driver/Src/stm32f4xx_hal_rtc_ex.c **** 
 1155              		.loc 1 759 15 is_stmt 0 view .LVU408
 1156 004c 0123     		movs	r3, #1
 1157 004e 6B77     		strb	r3, [r5, #29]
 761:Drivers/STM32F4xx_HAL_Driver/Src/stm32f4xx_hal_rtc_ex.c **** }
 1158              		.loc 1 761 3 is_stmt 1 view .LVU409
 761:Drivers/STM32F4xx_HAL_Driver/Src/stm32f4xx_hal_rtc_ex.c **** }
 1159              		.loc 1 761 10 is_stmt 0 view .LVU410
 1160 0050 0020     		movs	r0, #0
 1161 0052 F1E7     		b	.L67
 1162              		.cfi_endproc
 1163              	.LFE140:
ARM GAS  /tmp/cc8XWiN3.s 			page 36


 1165              		.section	.text.HAL_RTCEx_PollForTamper1Event,"ax",%progbits
 1166              		.align	1
 1167              		.global	HAL_RTCEx_PollForTamper1Event
 1168              		.syntax unified
 1169              		.thumb
 1170              		.thumb_func
 1172              	HAL_RTCEx_PollForTamper1Event:
 1173              	.LVL88:
 1174              	.LFB141:
 763:Drivers/STM32F4xx_HAL_Driver/Src/stm32f4xx_hal_rtc_ex.c **** 
 764:Drivers/STM32F4xx_HAL_Driver/Src/stm32f4xx_hal_rtc_ex.c **** /**
 765:Drivers/STM32F4xx_HAL_Driver/Src/stm32f4xx_hal_rtc_ex.c ****   * @brief  Handles Tamper 1 Polling.
 766:Drivers/STM32F4xx_HAL_Driver/Src/stm32f4xx_hal_rtc_ex.c ****   * @param  hrtc pointer to a RTC_HandleTypeDef structure that contains
 767:Drivers/STM32F4xx_HAL_Driver/Src/stm32f4xx_hal_rtc_ex.c ****   *                the configuration information for RTC.
 768:Drivers/STM32F4xx_HAL_Driver/Src/stm32f4xx_hal_rtc_ex.c ****   * @param  Timeout Timeout duration
 769:Drivers/STM32F4xx_HAL_Driver/Src/stm32f4xx_hal_rtc_ex.c ****   * @retval HAL status
 770:Drivers/STM32F4xx_HAL_Driver/Src/stm32f4xx_hal_rtc_ex.c ****   */
 771:Drivers/STM32F4xx_HAL_Driver/Src/stm32f4xx_hal_rtc_ex.c **** HAL_StatusTypeDef HAL_RTCEx_PollForTamper1Event(RTC_HandleTypeDef *hrtc, uint32_t Timeout)
 772:Drivers/STM32F4xx_HAL_Driver/Src/stm32f4xx_hal_rtc_ex.c **** {
 1175              		.loc 1 772 1 is_stmt 1 view -0
 1176              		.cfi_startproc
 1177              		@ args = 0, pretend = 0, frame = 0
 1178              		@ frame_needed = 0, uses_anonymous_args = 0
 1179              		.loc 1 772 1 is_stmt 0 view .LVU412
 1180 0000 70B5     		push	{r4, r5, r6, lr}
 1181              		.cfi_def_cfa_offset 16
 1182              		.cfi_offset 4, -16
 1183              		.cfi_offset 5, -12
 1184              		.cfi_offset 6, -8
 1185              		.cfi_offset 14, -4
 1186 0002 0446     		mov	r4, r0
 1187 0004 0D46     		mov	r5, r1
 773:Drivers/STM32F4xx_HAL_Driver/Src/stm32f4xx_hal_rtc_ex.c ****   uint32_t tickstart = 0U;
 1188              		.loc 1 773 3 is_stmt 1 view .LVU413
 1189              	.LVL89:
 774:Drivers/STM32F4xx_HAL_Driver/Src/stm32f4xx_hal_rtc_ex.c **** 
 775:Drivers/STM32F4xx_HAL_Driver/Src/stm32f4xx_hal_rtc_ex.c ****   /* Get tick */
 776:Drivers/STM32F4xx_HAL_Driver/Src/stm32f4xx_hal_rtc_ex.c ****   tickstart = HAL_GetTick();
 1190              		.loc 1 776 3 view .LVU414
 1191              		.loc 1 776 15 is_stmt 0 view .LVU415
 1192 0006 FFF7FEFF 		bl	HAL_GetTick
 1193              	.LVL90:
 1194              		.loc 1 776 15 view .LVU416
 1195 000a 0646     		mov	r6, r0
 1196              	.LVL91:
 777:Drivers/STM32F4xx_HAL_Driver/Src/stm32f4xx_hal_rtc_ex.c **** 
 778:Drivers/STM32F4xx_HAL_Driver/Src/stm32f4xx_hal_rtc_ex.c ****   /* Get the status of the Interrupt */
 779:Drivers/STM32F4xx_HAL_Driver/Src/stm32f4xx_hal_rtc_ex.c ****   while (__HAL_RTC_TAMPER_GET_FLAG(hrtc, RTC_FLAG_TAMP1F) == 0U)
 1197              		.loc 1 779 3 is_stmt 1 view .LVU417
 1198              	.L74:
 1199              		.loc 1 779 59 view .LVU418
 1200              		.loc 1 779 10 is_stmt 0 view .LVU419
 1201 000c 2368     		ldr	r3, [r4]
 1202 000e DA68     		ldr	r2, [r3, #12]
 1203              		.loc 1 779 59 view .LVU420
 1204 0010 12F4005F 		tst	r2, #8192
 1205 0014 0BD1     		bne	.L79
ARM GAS  /tmp/cc8XWiN3.s 			page 37


 780:Drivers/STM32F4xx_HAL_Driver/Src/stm32f4xx_hal_rtc_ex.c ****   {
 781:Drivers/STM32F4xx_HAL_Driver/Src/stm32f4xx_hal_rtc_ex.c ****     if (Timeout != HAL_MAX_DELAY)
 1206              		.loc 1 781 5 is_stmt 1 view .LVU421
 1207              		.loc 1 781 8 is_stmt 0 view .LVU422
 1208 0016 B5F1FF3F 		cmp	r5, #-1
 1209 001a F7D0     		beq	.L74
 782:Drivers/STM32F4xx_HAL_Driver/Src/stm32f4xx_hal_rtc_ex.c ****     {
 783:Drivers/STM32F4xx_HAL_Driver/Src/stm32f4xx_hal_rtc_ex.c ****       if ((Timeout == 0U) || ((HAL_GetTick() - tickstart) > Timeout))
 1210              		.loc 1 783 7 is_stmt 1 view .LVU423
 1211              		.loc 1 783 10 is_stmt 0 view .LVU424
 1212 001c 25B1     		cbz	r5, .L75
 1213              		.loc 1 783 32 discriminator 1 view .LVU425
 1214 001e FFF7FEFF 		bl	HAL_GetTick
 1215              	.LVL92:
 1216              		.loc 1 783 46 discriminator 1 view .LVU426
 1217 0022 801B     		subs	r0, r0, r6
 1218              		.loc 1 783 27 discriminator 1 view .LVU427
 1219 0024 A842     		cmp	r0, r5
 1220 0026 F1D9     		bls	.L74
 1221              	.L75:
 784:Drivers/STM32F4xx_HAL_Driver/Src/stm32f4xx_hal_rtc_ex.c ****       {
 785:Drivers/STM32F4xx_HAL_Driver/Src/stm32f4xx_hal_rtc_ex.c ****         hrtc->State = HAL_RTC_STATE_TIMEOUT;
 1222              		.loc 1 785 9 is_stmt 1 view .LVU428
 1223              		.loc 1 785 21 is_stmt 0 view .LVU429
 1224 0028 0320     		movs	r0, #3
 1225 002a 6077     		strb	r0, [r4, #29]
 786:Drivers/STM32F4xx_HAL_Driver/Src/stm32f4xx_hal_rtc_ex.c ****         return HAL_TIMEOUT;
 1226              		.loc 1 786 9 is_stmt 1 view .LVU430
 1227              		.loc 1 786 16 is_stmt 0 view .LVU431
 1228 002c 07E0     		b	.L76
 1229              	.L79:
 787:Drivers/STM32F4xx_HAL_Driver/Src/stm32f4xx_hal_rtc_ex.c ****       }
 788:Drivers/STM32F4xx_HAL_Driver/Src/stm32f4xx_hal_rtc_ex.c ****     }
 789:Drivers/STM32F4xx_HAL_Driver/Src/stm32f4xx_hal_rtc_ex.c ****   }
 790:Drivers/STM32F4xx_HAL_Driver/Src/stm32f4xx_hal_rtc_ex.c **** 
 791:Drivers/STM32F4xx_HAL_Driver/Src/stm32f4xx_hal_rtc_ex.c ****   /* Clear the Tamper Flag */
 792:Drivers/STM32F4xx_HAL_Driver/Src/stm32f4xx_hal_rtc_ex.c ****   __HAL_RTC_TAMPER_CLEAR_FLAG(hrtc, RTC_FLAG_TAMP1F);
 1230              		.loc 1 792 3 is_stmt 1 view .LVU432
 1231 002e DA68     		ldr	r2, [r3, #12]
 1232 0030 D2B2     		uxtb	r2, r2
 1233 0032 62F40252 		orn	r2, r2, #8320
 1234 0036 DA60     		str	r2, [r3, #12]
 793:Drivers/STM32F4xx_HAL_Driver/Src/stm32f4xx_hal_rtc_ex.c **** 
 794:Drivers/STM32F4xx_HAL_Driver/Src/stm32f4xx_hal_rtc_ex.c ****   /* Change RTC state */
 795:Drivers/STM32F4xx_HAL_Driver/Src/stm32f4xx_hal_rtc_ex.c ****   hrtc->State = HAL_RTC_STATE_READY;
 1235              		.loc 1 795 3 view .LVU433
 1236              		.loc 1 795 15 is_stmt 0 view .LVU434
 1237 0038 0123     		movs	r3, #1
 1238 003a 6377     		strb	r3, [r4, #29]
 796:Drivers/STM32F4xx_HAL_Driver/Src/stm32f4xx_hal_rtc_ex.c **** 
 797:Drivers/STM32F4xx_HAL_Driver/Src/stm32f4xx_hal_rtc_ex.c ****   return HAL_OK;
 1239              		.loc 1 797 3 is_stmt 1 view .LVU435
 1240              		.loc 1 797 10 is_stmt 0 view .LVU436
 1241 003c 0020     		movs	r0, #0
 1242              	.L76:
 798:Drivers/STM32F4xx_HAL_Driver/Src/stm32f4xx_hal_rtc_ex.c **** }
 1243              		.loc 1 798 1 view .LVU437
ARM GAS  /tmp/cc8XWiN3.s 			page 38


 1244 003e 70BD     		pop	{r4, r5, r6, pc}
 1245              		.loc 1 798 1 view .LVU438
 1246              		.cfi_endproc
 1247              	.LFE141:
 1249              		.section	.text.HAL_RTCEx_SetWakeUpTimer,"ax",%progbits
 1250              		.align	1
 1251              		.global	HAL_RTCEx_SetWakeUpTimer
 1252              		.syntax unified
 1253              		.thumb
 1254              		.thumb_func
 1256              	HAL_RTCEx_SetWakeUpTimer:
 1257              	.LVL93:
 1258              	.LFB142:
 799:Drivers/STM32F4xx_HAL_Driver/Src/stm32f4xx_hal_rtc_ex.c **** 
 800:Drivers/STM32F4xx_HAL_Driver/Src/stm32f4xx_hal_rtc_ex.c **** #if defined(RTC_TAMPER2_SUPPORT)
 801:Drivers/STM32F4xx_HAL_Driver/Src/stm32f4xx_hal_rtc_ex.c **** /**
 802:Drivers/STM32F4xx_HAL_Driver/Src/stm32f4xx_hal_rtc_ex.c ****   * @brief  Handles Tamper 2 Polling.
 803:Drivers/STM32F4xx_HAL_Driver/Src/stm32f4xx_hal_rtc_ex.c ****   * @param  hrtc pointer to a RTC_HandleTypeDef structure that contains
 804:Drivers/STM32F4xx_HAL_Driver/Src/stm32f4xx_hal_rtc_ex.c ****   *                the configuration information for RTC.
 805:Drivers/STM32F4xx_HAL_Driver/Src/stm32f4xx_hal_rtc_ex.c ****   * @param  Timeout Timeout duration
 806:Drivers/STM32F4xx_HAL_Driver/Src/stm32f4xx_hal_rtc_ex.c ****   * @retval HAL status
 807:Drivers/STM32F4xx_HAL_Driver/Src/stm32f4xx_hal_rtc_ex.c ****   */
 808:Drivers/STM32F4xx_HAL_Driver/Src/stm32f4xx_hal_rtc_ex.c **** HAL_StatusTypeDef HAL_RTCEx_PollForTamper2Event(RTC_HandleTypeDef *hrtc, uint32_t Timeout)
 809:Drivers/STM32F4xx_HAL_Driver/Src/stm32f4xx_hal_rtc_ex.c **** {
 810:Drivers/STM32F4xx_HAL_Driver/Src/stm32f4xx_hal_rtc_ex.c ****   uint32_t tickstart = 0U;
 811:Drivers/STM32F4xx_HAL_Driver/Src/stm32f4xx_hal_rtc_ex.c **** 
 812:Drivers/STM32F4xx_HAL_Driver/Src/stm32f4xx_hal_rtc_ex.c ****   /* Get tick */
 813:Drivers/STM32F4xx_HAL_Driver/Src/stm32f4xx_hal_rtc_ex.c ****   tickstart = HAL_GetTick();
 814:Drivers/STM32F4xx_HAL_Driver/Src/stm32f4xx_hal_rtc_ex.c **** 
 815:Drivers/STM32F4xx_HAL_Driver/Src/stm32f4xx_hal_rtc_ex.c ****   /* Get the status of the Interrupt */
 816:Drivers/STM32F4xx_HAL_Driver/Src/stm32f4xx_hal_rtc_ex.c ****   while (__HAL_RTC_TAMPER_GET_FLAG(hrtc, RTC_FLAG_TAMP2F) == 0U)
 817:Drivers/STM32F4xx_HAL_Driver/Src/stm32f4xx_hal_rtc_ex.c ****   {
 818:Drivers/STM32F4xx_HAL_Driver/Src/stm32f4xx_hal_rtc_ex.c ****     if (Timeout != HAL_MAX_DELAY)
 819:Drivers/STM32F4xx_HAL_Driver/Src/stm32f4xx_hal_rtc_ex.c ****     {
 820:Drivers/STM32F4xx_HAL_Driver/Src/stm32f4xx_hal_rtc_ex.c ****       if ((Timeout == 0U) || ((HAL_GetTick() - tickstart) > Timeout))
 821:Drivers/STM32F4xx_HAL_Driver/Src/stm32f4xx_hal_rtc_ex.c ****       {
 822:Drivers/STM32F4xx_HAL_Driver/Src/stm32f4xx_hal_rtc_ex.c ****         hrtc->State = HAL_RTC_STATE_TIMEOUT;
 823:Drivers/STM32F4xx_HAL_Driver/Src/stm32f4xx_hal_rtc_ex.c ****         return HAL_TIMEOUT;
 824:Drivers/STM32F4xx_HAL_Driver/Src/stm32f4xx_hal_rtc_ex.c ****       }
 825:Drivers/STM32F4xx_HAL_Driver/Src/stm32f4xx_hal_rtc_ex.c ****     }
 826:Drivers/STM32F4xx_HAL_Driver/Src/stm32f4xx_hal_rtc_ex.c ****   }
 827:Drivers/STM32F4xx_HAL_Driver/Src/stm32f4xx_hal_rtc_ex.c **** 
 828:Drivers/STM32F4xx_HAL_Driver/Src/stm32f4xx_hal_rtc_ex.c ****   /* Clear the Tamper Flag */
 829:Drivers/STM32F4xx_HAL_Driver/Src/stm32f4xx_hal_rtc_ex.c ****   __HAL_RTC_TAMPER_CLEAR_FLAG(hrtc, RTC_FLAG_TAMP2F);
 830:Drivers/STM32F4xx_HAL_Driver/Src/stm32f4xx_hal_rtc_ex.c **** 
 831:Drivers/STM32F4xx_HAL_Driver/Src/stm32f4xx_hal_rtc_ex.c ****   /* Change RTC state */
 832:Drivers/STM32F4xx_HAL_Driver/Src/stm32f4xx_hal_rtc_ex.c ****   hrtc->State = HAL_RTC_STATE_READY;
 833:Drivers/STM32F4xx_HAL_Driver/Src/stm32f4xx_hal_rtc_ex.c **** 
 834:Drivers/STM32F4xx_HAL_Driver/Src/stm32f4xx_hal_rtc_ex.c ****   return HAL_OK;
 835:Drivers/STM32F4xx_HAL_Driver/Src/stm32f4xx_hal_rtc_ex.c **** }
 836:Drivers/STM32F4xx_HAL_Driver/Src/stm32f4xx_hal_rtc_ex.c **** #endif /* RTC_TAMPER2_SUPPORT */
 837:Drivers/STM32F4xx_HAL_Driver/Src/stm32f4xx_hal_rtc_ex.c **** 
 838:Drivers/STM32F4xx_HAL_Driver/Src/stm32f4xx_hal_rtc_ex.c **** /**
 839:Drivers/STM32F4xx_HAL_Driver/Src/stm32f4xx_hal_rtc_ex.c ****   * @}
 840:Drivers/STM32F4xx_HAL_Driver/Src/stm32f4xx_hal_rtc_ex.c ****   */
 841:Drivers/STM32F4xx_HAL_Driver/Src/stm32f4xx_hal_rtc_ex.c **** 
 842:Drivers/STM32F4xx_HAL_Driver/Src/stm32f4xx_hal_rtc_ex.c **** /** @defgroup RTCEx_Exported_Functions_Group2 RTC Wakeup functions
ARM GAS  /tmp/cc8XWiN3.s 			page 39


 843:Drivers/STM32F4xx_HAL_Driver/Src/stm32f4xx_hal_rtc_ex.c ****   * @brief    RTC Wakeup functions
 844:Drivers/STM32F4xx_HAL_Driver/Src/stm32f4xx_hal_rtc_ex.c ****   *
 845:Drivers/STM32F4xx_HAL_Driver/Src/stm32f4xx_hal_rtc_ex.c **** @verbatim
 846:Drivers/STM32F4xx_HAL_Driver/Src/stm32f4xx_hal_rtc_ex.c ****  ===============================================================================
 847:Drivers/STM32F4xx_HAL_Driver/Src/stm32f4xx_hal_rtc_ex.c ****                         ##### RTC Wakeup functions #####
 848:Drivers/STM32F4xx_HAL_Driver/Src/stm32f4xx_hal_rtc_ex.c ****  ===============================================================================
 849:Drivers/STM32F4xx_HAL_Driver/Src/stm32f4xx_hal_rtc_ex.c **** 
 850:Drivers/STM32F4xx_HAL_Driver/Src/stm32f4xx_hal_rtc_ex.c ****  [..] This section provides functions allowing to configure Wakeup feature
 851:Drivers/STM32F4xx_HAL_Driver/Src/stm32f4xx_hal_rtc_ex.c **** 
 852:Drivers/STM32F4xx_HAL_Driver/Src/stm32f4xx_hal_rtc_ex.c **** @endverbatim
 853:Drivers/STM32F4xx_HAL_Driver/Src/stm32f4xx_hal_rtc_ex.c ****   * @{
 854:Drivers/STM32F4xx_HAL_Driver/Src/stm32f4xx_hal_rtc_ex.c ****   */
 855:Drivers/STM32F4xx_HAL_Driver/Src/stm32f4xx_hal_rtc_ex.c **** 
 856:Drivers/STM32F4xx_HAL_Driver/Src/stm32f4xx_hal_rtc_ex.c **** /**
 857:Drivers/STM32F4xx_HAL_Driver/Src/stm32f4xx_hal_rtc_ex.c ****   * @brief  Sets wakeup timer.
 858:Drivers/STM32F4xx_HAL_Driver/Src/stm32f4xx_hal_rtc_ex.c ****   * @param  hrtc pointer to a RTC_HandleTypeDef structure that contains
 859:Drivers/STM32F4xx_HAL_Driver/Src/stm32f4xx_hal_rtc_ex.c ****   *                the configuration information for RTC.
 860:Drivers/STM32F4xx_HAL_Driver/Src/stm32f4xx_hal_rtc_ex.c ****   * @param  WakeUpCounter Wakeup counter
 861:Drivers/STM32F4xx_HAL_Driver/Src/stm32f4xx_hal_rtc_ex.c ****   * @param  WakeUpClock Wakeup clock
 862:Drivers/STM32F4xx_HAL_Driver/Src/stm32f4xx_hal_rtc_ex.c ****   * @retval HAL status
 863:Drivers/STM32F4xx_HAL_Driver/Src/stm32f4xx_hal_rtc_ex.c ****   */
 864:Drivers/STM32F4xx_HAL_Driver/Src/stm32f4xx_hal_rtc_ex.c **** HAL_StatusTypeDef HAL_RTCEx_SetWakeUpTimer(RTC_HandleTypeDef *hrtc, uint32_t WakeUpCounter, uint32_
 865:Drivers/STM32F4xx_HAL_Driver/Src/stm32f4xx_hal_rtc_ex.c **** {
 1259              		.loc 1 865 1 is_stmt 1 view -0
 1260              		.cfi_startproc
 1261              		@ args = 0, pretend = 0, frame = 0
 1262              		@ frame_needed = 0, uses_anonymous_args = 0
 1263              		.loc 1 865 1 is_stmt 0 view .LVU440
 1264 0000 F8B5     		push	{r3, r4, r5, r6, r7, lr}
 1265              		.cfi_def_cfa_offset 24
 1266              		.cfi_offset 3, -24
 1267              		.cfi_offset 4, -20
 1268              		.cfi_offset 5, -16
 1269              		.cfi_offset 6, -12
 1270              		.cfi_offset 7, -8
 1271              		.cfi_offset 14, -4
 866:Drivers/STM32F4xx_HAL_Driver/Src/stm32f4xx_hal_rtc_ex.c ****   uint32_t tickstart = 0U;
 1272              		.loc 1 866 3 is_stmt 1 view .LVU441
 1273              	.LVL94:
 867:Drivers/STM32F4xx_HAL_Driver/Src/stm32f4xx_hal_rtc_ex.c **** 
 868:Drivers/STM32F4xx_HAL_Driver/Src/stm32f4xx_hal_rtc_ex.c ****   /* Check the parameters */
 869:Drivers/STM32F4xx_HAL_Driver/Src/stm32f4xx_hal_rtc_ex.c ****   assert_param(IS_RTC_WAKEUP_CLOCK(WakeUpClock));
 1274              		.loc 1 869 3 view .LVU442
 870:Drivers/STM32F4xx_HAL_Driver/Src/stm32f4xx_hal_rtc_ex.c ****   assert_param(IS_RTC_WAKEUP_COUNTER(WakeUpCounter));
 1275              		.loc 1 870 3 view .LVU443
 871:Drivers/STM32F4xx_HAL_Driver/Src/stm32f4xx_hal_rtc_ex.c **** 
 872:Drivers/STM32F4xx_HAL_Driver/Src/stm32f4xx_hal_rtc_ex.c ****   /* Process Locked */
 873:Drivers/STM32F4xx_HAL_Driver/Src/stm32f4xx_hal_rtc_ex.c ****   __HAL_LOCK(hrtc);
 1276              		.loc 1 873 3 view .LVU444
 1277              		.loc 1 873 3 view .LVU445
 1278 0002 037F     		ldrb	r3, [r0, #28]	@ zero_extendqisi2
 1279 0004 012B     		cmp	r3, #1
 1280 0006 5FD0     		beq	.L87
 1281 0008 0446     		mov	r4, r0
 1282 000a 0D46     		mov	r5, r1
 1283 000c 1646     		mov	r6, r2
 1284              		.loc 1 873 3 discriminator 2 view .LVU446
ARM GAS  /tmp/cc8XWiN3.s 			page 40


 1285 000e 0123     		movs	r3, #1
 1286 0010 0377     		strb	r3, [r0, #28]
 1287              		.loc 1 873 3 view .LVU447
 874:Drivers/STM32F4xx_HAL_Driver/Src/stm32f4xx_hal_rtc_ex.c **** 
 875:Drivers/STM32F4xx_HAL_Driver/Src/stm32f4xx_hal_rtc_ex.c ****   hrtc->State = HAL_RTC_STATE_BUSY;
 1288              		.loc 1 875 3 view .LVU448
 1289              		.loc 1 875 15 is_stmt 0 view .LVU449
 1290 0012 0223     		movs	r3, #2
 1291 0014 4377     		strb	r3, [r0, #29]
 876:Drivers/STM32F4xx_HAL_Driver/Src/stm32f4xx_hal_rtc_ex.c **** 
 877:Drivers/STM32F4xx_HAL_Driver/Src/stm32f4xx_hal_rtc_ex.c ****   /* Disable the write protection for RTC registers */
 878:Drivers/STM32F4xx_HAL_Driver/Src/stm32f4xx_hal_rtc_ex.c ****   __HAL_RTC_WRITEPROTECTION_DISABLE(hrtc);
 1292              		.loc 1 878 3 is_stmt 1 view .LVU450
 1293              		.loc 1 878 3 view .LVU451
 1294 0016 0368     		ldr	r3, [r0]
 1295 0018 CA22     		movs	r2, #202
 1296              	.LVL95:
 1297              		.loc 1 878 3 is_stmt 0 view .LVU452
 1298 001a 5A62     		str	r2, [r3, #36]
 1299              		.loc 1 878 3 is_stmt 1 view .LVU453
 1300 001c 0368     		ldr	r3, [r0]
 1301 001e 5322     		movs	r2, #83
 1302 0020 5A62     		str	r2, [r3, #36]
 1303              		.loc 1 878 3 view .LVU454
 879:Drivers/STM32F4xx_HAL_Driver/Src/stm32f4xx_hal_rtc_ex.c **** 
 880:Drivers/STM32F4xx_HAL_Driver/Src/stm32f4xx_hal_rtc_ex.c ****   /* Check RTC WUTWF flag is reset only when wakeup timer enabled*/
 881:Drivers/STM32F4xx_HAL_Driver/Src/stm32f4xx_hal_rtc_ex.c ****   if ((hrtc->Instance->CR & RTC_CR_WUTE) != 0U)
 1304              		.loc 1 881 3 view .LVU455
 1305              		.loc 1 881 12 is_stmt 0 view .LVU456
 1306 0022 0368     		ldr	r3, [r0]
 1307              		.loc 1 881 22 view .LVU457
 1308 0024 9B68     		ldr	r3, [r3, #8]
 1309              		.loc 1 881 6 view .LVU458
 1310 0026 13F4806F 		tst	r3, #1024
 1311 002a 15D0     		beq	.L82
 882:Drivers/STM32F4xx_HAL_Driver/Src/stm32f4xx_hal_rtc_ex.c ****   {
 883:Drivers/STM32F4xx_HAL_Driver/Src/stm32f4xx_hal_rtc_ex.c ****     tickstart = HAL_GetTick();
 1312              		.loc 1 883 5 is_stmt 1 view .LVU459
 1313              		.loc 1 883 17 is_stmt 0 view .LVU460
 1314 002c FFF7FEFF 		bl	HAL_GetTick
 1315              	.LVL96:
 1316              		.loc 1 883 17 view .LVU461
 1317 0030 0746     		mov	r7, r0
 1318              	.LVL97:
 884:Drivers/STM32F4xx_HAL_Driver/Src/stm32f4xx_hal_rtc_ex.c **** 
 885:Drivers/STM32F4xx_HAL_Driver/Src/stm32f4xx_hal_rtc_ex.c ****     /* Wait till RTC WUTWF flag is reset and if timeout is reached exit */
 886:Drivers/STM32F4xx_HAL_Driver/Src/stm32f4xx_hal_rtc_ex.c ****     while (__HAL_RTC_WAKEUPTIMER_GET_FLAG(hrtc, RTC_FLAG_WUTWF) != 0U)
 1319              		.loc 1 886 5 is_stmt 1 view .LVU462
 1320              	.L83:
 1321              		.loc 1 886 65 view .LVU463
 1322              		.loc 1 886 12 is_stmt 0 view .LVU464
 1323 0032 2368     		ldr	r3, [r4]
 1324 0034 DB68     		ldr	r3, [r3, #12]
 1325              		.loc 1 886 65 view .LVU465
 1326 0036 13F0040F 		tst	r3, #4
 1327 003a 0DD0     		beq	.L82
 887:Drivers/STM32F4xx_HAL_Driver/Src/stm32f4xx_hal_rtc_ex.c ****     {
ARM GAS  /tmp/cc8XWiN3.s 			page 41


 888:Drivers/STM32F4xx_HAL_Driver/Src/stm32f4xx_hal_rtc_ex.c ****       if ((HAL_GetTick() - tickstart) > RTC_TIMEOUT_VALUE)
 1328              		.loc 1 888 7 is_stmt 1 view .LVU466
 1329              		.loc 1 888 12 is_stmt 0 view .LVU467
 1330 003c FFF7FEFF 		bl	HAL_GetTick
 1331              	.LVL98:
 1332              		.loc 1 888 26 discriminator 1 view .LVU468
 1333 0040 C01B     		subs	r0, r0, r7
 1334              		.loc 1 888 10 discriminator 1 view .LVU469
 1335 0042 B0F57A7F 		cmp	r0, #1000
 1336 0046 F4D9     		bls	.L83
 889:Drivers/STM32F4xx_HAL_Driver/Src/stm32f4xx_hal_rtc_ex.c ****       {
 890:Drivers/STM32F4xx_HAL_Driver/Src/stm32f4xx_hal_rtc_ex.c ****         /* Enable the write protection for RTC registers */
 891:Drivers/STM32F4xx_HAL_Driver/Src/stm32f4xx_hal_rtc_ex.c ****         __HAL_RTC_WRITEPROTECTION_ENABLE(hrtc);
 1337              		.loc 1 891 9 is_stmt 1 view .LVU470
 1338              		.loc 1 891 9 view .LVU471
 1339 0048 2368     		ldr	r3, [r4]
 1340 004a FF22     		movs	r2, #255
 1341 004c 5A62     		str	r2, [r3, #36]
 1342              		.loc 1 891 9 view .LVU472
 892:Drivers/STM32F4xx_HAL_Driver/Src/stm32f4xx_hal_rtc_ex.c **** 
 893:Drivers/STM32F4xx_HAL_Driver/Src/stm32f4xx_hal_rtc_ex.c ****         hrtc->State = HAL_RTC_STATE_TIMEOUT;
 1343              		.loc 1 893 9 view .LVU473
 1344              		.loc 1 893 21 is_stmt 0 view .LVU474
 1345 004e 0320     		movs	r0, #3
 1346 0050 6077     		strb	r0, [r4, #29]
 894:Drivers/STM32F4xx_HAL_Driver/Src/stm32f4xx_hal_rtc_ex.c **** 
 895:Drivers/STM32F4xx_HAL_Driver/Src/stm32f4xx_hal_rtc_ex.c ****         /* Process Unlocked */
 896:Drivers/STM32F4xx_HAL_Driver/Src/stm32f4xx_hal_rtc_ex.c ****         __HAL_UNLOCK(hrtc);
 1347              		.loc 1 896 9 is_stmt 1 view .LVU475
 1348              		.loc 1 896 9 view .LVU476
 1349 0052 0023     		movs	r3, #0
 1350 0054 2377     		strb	r3, [r4, #28]
 1351              		.loc 1 896 9 view .LVU477
 897:Drivers/STM32F4xx_HAL_Driver/Src/stm32f4xx_hal_rtc_ex.c **** 
 898:Drivers/STM32F4xx_HAL_Driver/Src/stm32f4xx_hal_rtc_ex.c ****         return HAL_TIMEOUT;
 1352              		.loc 1 898 9 view .LVU478
 1353              		.loc 1 898 16 is_stmt 0 view .LVU479
 1354 0056 36E0     		b	.L81
 1355              	.LVL99:
 1356              	.L82:
 899:Drivers/STM32F4xx_HAL_Driver/Src/stm32f4xx_hal_rtc_ex.c ****       }
 900:Drivers/STM32F4xx_HAL_Driver/Src/stm32f4xx_hal_rtc_ex.c ****     }
 901:Drivers/STM32F4xx_HAL_Driver/Src/stm32f4xx_hal_rtc_ex.c ****   }
 902:Drivers/STM32F4xx_HAL_Driver/Src/stm32f4xx_hal_rtc_ex.c **** 
 903:Drivers/STM32F4xx_HAL_Driver/Src/stm32f4xx_hal_rtc_ex.c ****   /* Disable the Wakeup timer */
 904:Drivers/STM32F4xx_HAL_Driver/Src/stm32f4xx_hal_rtc_ex.c ****   __HAL_RTC_WAKEUPTIMER_DISABLE(hrtc);
 1357              		.loc 1 904 3 is_stmt 1 view .LVU480
 1358 0058 2268     		ldr	r2, [r4]
 1359 005a 9368     		ldr	r3, [r2, #8]
 1360 005c 23F48063 		bic	r3, r3, #1024
 1361 0060 9360     		str	r3, [r2, #8]
 905:Drivers/STM32F4xx_HAL_Driver/Src/stm32f4xx_hal_rtc_ex.c **** 
 906:Drivers/STM32F4xx_HAL_Driver/Src/stm32f4xx_hal_rtc_ex.c ****   /* Clear the Wakeup flag */
 907:Drivers/STM32F4xx_HAL_Driver/Src/stm32f4xx_hal_rtc_ex.c ****   __HAL_RTC_WAKEUPTIMER_CLEAR_FLAG(hrtc, RTC_FLAG_WUTF);
 1362              		.loc 1 907 3 view .LVU481
 1363 0062 2268     		ldr	r2, [r4]
 1364 0064 D368     		ldr	r3, [r2, #12]
ARM GAS  /tmp/cc8XWiN3.s 			page 42


 1365 0066 DBB2     		uxtb	r3, r3
 1366 0068 63F49063 		orn	r3, r3, #1152
 1367 006c D360     		str	r3, [r2, #12]
 908:Drivers/STM32F4xx_HAL_Driver/Src/stm32f4xx_hal_rtc_ex.c **** 
 909:Drivers/STM32F4xx_HAL_Driver/Src/stm32f4xx_hal_rtc_ex.c ****   /* Get tick */
 910:Drivers/STM32F4xx_HAL_Driver/Src/stm32f4xx_hal_rtc_ex.c ****   tickstart = HAL_GetTick();
 1368              		.loc 1 910 3 view .LVU482
 1369              		.loc 1 910 15 is_stmt 0 view .LVU483
 1370 006e FFF7FEFF 		bl	HAL_GetTick
 1371              	.LVL100:
 1372 0072 0746     		mov	r7, r0
 1373              	.LVL101:
 911:Drivers/STM32F4xx_HAL_Driver/Src/stm32f4xx_hal_rtc_ex.c **** 
 912:Drivers/STM32F4xx_HAL_Driver/Src/stm32f4xx_hal_rtc_ex.c ****   /* Wait till RTC WUTWF flag is set and if timeout is reached exit */
 913:Drivers/STM32F4xx_HAL_Driver/Src/stm32f4xx_hal_rtc_ex.c ****   while (__HAL_RTC_WAKEUPTIMER_GET_FLAG(hrtc, RTC_FLAG_WUTWF) == 0U)
 1374              		.loc 1 913 3 is_stmt 1 view .LVU484
 1375              	.L85:
 1376              		.loc 1 913 63 view .LVU485
 1377              		.loc 1 913 10 is_stmt 0 view .LVU486
 1378 0074 2368     		ldr	r3, [r4]
 1379 0076 DA68     		ldr	r2, [r3, #12]
 1380              		.loc 1 913 63 view .LVU487
 1381 0078 12F0040F 		tst	r2, #4
 1382 007c 0DD1     		bne	.L89
 914:Drivers/STM32F4xx_HAL_Driver/Src/stm32f4xx_hal_rtc_ex.c ****   {
 915:Drivers/STM32F4xx_HAL_Driver/Src/stm32f4xx_hal_rtc_ex.c ****     if ((HAL_GetTick() - tickstart) > RTC_TIMEOUT_VALUE)
 1383              		.loc 1 915 5 is_stmt 1 view .LVU488
 1384              		.loc 1 915 10 is_stmt 0 view .LVU489
 1385 007e FFF7FEFF 		bl	HAL_GetTick
 1386              	.LVL102:
 1387              		.loc 1 915 24 discriminator 1 view .LVU490
 1388 0082 C01B     		subs	r0, r0, r7
 1389              		.loc 1 915 8 discriminator 1 view .LVU491
 1390 0084 B0F57A7F 		cmp	r0, #1000
 1391 0088 F4D9     		bls	.L85
 916:Drivers/STM32F4xx_HAL_Driver/Src/stm32f4xx_hal_rtc_ex.c ****     {
 917:Drivers/STM32F4xx_HAL_Driver/Src/stm32f4xx_hal_rtc_ex.c ****       /* Enable the write protection for RTC registers */
 918:Drivers/STM32F4xx_HAL_Driver/Src/stm32f4xx_hal_rtc_ex.c ****       __HAL_RTC_WRITEPROTECTION_ENABLE(hrtc);
 1392              		.loc 1 918 7 is_stmt 1 view .LVU492
 1393              		.loc 1 918 7 view .LVU493
 1394 008a 2368     		ldr	r3, [r4]
 1395 008c FF22     		movs	r2, #255
 1396 008e 5A62     		str	r2, [r3, #36]
 1397              		.loc 1 918 7 view .LVU494
 919:Drivers/STM32F4xx_HAL_Driver/Src/stm32f4xx_hal_rtc_ex.c **** 
 920:Drivers/STM32F4xx_HAL_Driver/Src/stm32f4xx_hal_rtc_ex.c ****       hrtc->State = HAL_RTC_STATE_TIMEOUT;
 1398              		.loc 1 920 7 view .LVU495
 1399              		.loc 1 920 19 is_stmt 0 view .LVU496
 1400 0090 0320     		movs	r0, #3
 1401 0092 6077     		strb	r0, [r4, #29]
 921:Drivers/STM32F4xx_HAL_Driver/Src/stm32f4xx_hal_rtc_ex.c **** 
 922:Drivers/STM32F4xx_HAL_Driver/Src/stm32f4xx_hal_rtc_ex.c ****       /* Process Unlocked */
 923:Drivers/STM32F4xx_HAL_Driver/Src/stm32f4xx_hal_rtc_ex.c ****       __HAL_UNLOCK(hrtc);
 1402              		.loc 1 923 7 is_stmt 1 view .LVU497
 1403              		.loc 1 923 7 view .LVU498
 1404 0094 0023     		movs	r3, #0
 1405 0096 2377     		strb	r3, [r4, #28]
ARM GAS  /tmp/cc8XWiN3.s 			page 43


 1406              		.loc 1 923 7 view .LVU499
 924:Drivers/STM32F4xx_HAL_Driver/Src/stm32f4xx_hal_rtc_ex.c **** 
 925:Drivers/STM32F4xx_HAL_Driver/Src/stm32f4xx_hal_rtc_ex.c ****       return HAL_TIMEOUT;
 1407              		.loc 1 925 7 view .LVU500
 1408              		.loc 1 925 14 is_stmt 0 view .LVU501
 1409 0098 15E0     		b	.L81
 1410              	.L89:
 926:Drivers/STM32F4xx_HAL_Driver/Src/stm32f4xx_hal_rtc_ex.c ****     }
 927:Drivers/STM32F4xx_HAL_Driver/Src/stm32f4xx_hal_rtc_ex.c ****   }
 928:Drivers/STM32F4xx_HAL_Driver/Src/stm32f4xx_hal_rtc_ex.c **** 
 929:Drivers/STM32F4xx_HAL_Driver/Src/stm32f4xx_hal_rtc_ex.c ****   /* Clear the Wakeup Timer clock source bits in CR register */
 930:Drivers/STM32F4xx_HAL_Driver/Src/stm32f4xx_hal_rtc_ex.c ****   hrtc->Instance->CR &= (uint32_t)~RTC_CR_WUCKSEL;
 1411              		.loc 1 930 3 is_stmt 1 view .LVU502
 1412              		.loc 1 930 17 is_stmt 0 view .LVU503
 1413 009a 9A68     		ldr	r2, [r3, #8]
 1414              		.loc 1 930 22 view .LVU504
 1415 009c 22F00702 		bic	r2, r2, #7
 1416 00a0 9A60     		str	r2, [r3, #8]
 931:Drivers/STM32F4xx_HAL_Driver/Src/stm32f4xx_hal_rtc_ex.c **** 
 932:Drivers/STM32F4xx_HAL_Driver/Src/stm32f4xx_hal_rtc_ex.c ****   /* Configure the clock source */
 933:Drivers/STM32F4xx_HAL_Driver/Src/stm32f4xx_hal_rtc_ex.c ****   hrtc->Instance->CR |= (uint32_t)WakeUpClock;
 1417              		.loc 1 933 3 is_stmt 1 view .LVU505
 1418              		.loc 1 933 7 is_stmt 0 view .LVU506
 1419 00a2 2268     		ldr	r2, [r4]
 1420              		.loc 1 933 17 view .LVU507
 1421 00a4 9368     		ldr	r3, [r2, #8]
 1422              		.loc 1 933 22 view .LVU508
 1423 00a6 3343     		orrs	r3, r3, r6
 1424 00a8 9360     		str	r3, [r2, #8]
 934:Drivers/STM32F4xx_HAL_Driver/Src/stm32f4xx_hal_rtc_ex.c **** 
 935:Drivers/STM32F4xx_HAL_Driver/Src/stm32f4xx_hal_rtc_ex.c ****   /* Configure the Wakeup Timer counter */
 936:Drivers/STM32F4xx_HAL_Driver/Src/stm32f4xx_hal_rtc_ex.c ****   hrtc->Instance->WUTR = (uint32_t)WakeUpCounter;
 1425              		.loc 1 936 3 is_stmt 1 view .LVU509
 1426              		.loc 1 936 7 is_stmt 0 view .LVU510
 1427 00aa 2368     		ldr	r3, [r4]
 1428              		.loc 1 936 24 view .LVU511
 1429 00ac 5D61     		str	r5, [r3, #20]
 937:Drivers/STM32F4xx_HAL_Driver/Src/stm32f4xx_hal_rtc_ex.c **** 
 938:Drivers/STM32F4xx_HAL_Driver/Src/stm32f4xx_hal_rtc_ex.c ****   /* Enable the Wakeup Timer */
 939:Drivers/STM32F4xx_HAL_Driver/Src/stm32f4xx_hal_rtc_ex.c ****   __HAL_RTC_WAKEUPTIMER_ENABLE(hrtc);
 1430              		.loc 1 939 3 is_stmt 1 view .LVU512
 1431 00ae 2268     		ldr	r2, [r4]
 1432 00b0 9368     		ldr	r3, [r2, #8]
 1433 00b2 43F48063 		orr	r3, r3, #1024
 1434 00b6 9360     		str	r3, [r2, #8]
 940:Drivers/STM32F4xx_HAL_Driver/Src/stm32f4xx_hal_rtc_ex.c **** 
 941:Drivers/STM32F4xx_HAL_Driver/Src/stm32f4xx_hal_rtc_ex.c ****   /* Enable the write protection for RTC registers */
 942:Drivers/STM32F4xx_HAL_Driver/Src/stm32f4xx_hal_rtc_ex.c ****   __HAL_RTC_WRITEPROTECTION_ENABLE(hrtc);
 1435              		.loc 1 942 3 view .LVU513
 1436              		.loc 1 942 3 view .LVU514
 1437 00b8 2368     		ldr	r3, [r4]
 1438 00ba FF22     		movs	r2, #255
 1439 00bc 5A62     		str	r2, [r3, #36]
 1440              		.loc 1 942 3 view .LVU515
 943:Drivers/STM32F4xx_HAL_Driver/Src/stm32f4xx_hal_rtc_ex.c **** 
 944:Drivers/STM32F4xx_HAL_Driver/Src/stm32f4xx_hal_rtc_ex.c ****   hrtc->State = HAL_RTC_STATE_READY;
 1441              		.loc 1 944 3 view .LVU516
ARM GAS  /tmp/cc8XWiN3.s 			page 44


 1442              		.loc 1 944 15 is_stmt 0 view .LVU517
 1443 00be 0123     		movs	r3, #1
 1444 00c0 6377     		strb	r3, [r4, #29]
 945:Drivers/STM32F4xx_HAL_Driver/Src/stm32f4xx_hal_rtc_ex.c **** 
 946:Drivers/STM32F4xx_HAL_Driver/Src/stm32f4xx_hal_rtc_ex.c ****   /* Process Unlocked */
 947:Drivers/STM32F4xx_HAL_Driver/Src/stm32f4xx_hal_rtc_ex.c ****   __HAL_UNLOCK(hrtc);
 1445              		.loc 1 947 3 is_stmt 1 view .LVU518
 1446              		.loc 1 947 3 view .LVU519
 1447 00c2 0020     		movs	r0, #0
 1448 00c4 2077     		strb	r0, [r4, #28]
 1449              		.loc 1 947 3 view .LVU520
 948:Drivers/STM32F4xx_HAL_Driver/Src/stm32f4xx_hal_rtc_ex.c **** 
 949:Drivers/STM32F4xx_HAL_Driver/Src/stm32f4xx_hal_rtc_ex.c ****   return HAL_OK;
 1450              		.loc 1 949 3 view .LVU521
 1451              	.LVL103:
 1452              	.L81:
 950:Drivers/STM32F4xx_HAL_Driver/Src/stm32f4xx_hal_rtc_ex.c **** }
 1453              		.loc 1 950 1 is_stmt 0 view .LVU522
 1454 00c6 F8BD     		pop	{r3, r4, r5, r6, r7, pc}
 1455              	.LVL104:
 1456              	.L87:
 873:Drivers/STM32F4xx_HAL_Driver/Src/stm32f4xx_hal_rtc_ex.c **** 
 1457              		.loc 1 873 3 discriminator 1 view .LVU523
 1458 00c8 0220     		movs	r0, #2
 1459              	.LVL105:
 873:Drivers/STM32F4xx_HAL_Driver/Src/stm32f4xx_hal_rtc_ex.c **** 
 1460              		.loc 1 873 3 discriminator 1 view .LVU524
 1461 00ca FCE7     		b	.L81
 1462              		.cfi_endproc
 1463              	.LFE142:
 1465              		.section	.text.HAL_RTCEx_SetWakeUpTimer_IT,"ax",%progbits
 1466              		.align	1
 1467              		.global	HAL_RTCEx_SetWakeUpTimer_IT
 1468              		.syntax unified
 1469              		.thumb
 1470              		.thumb_func
 1472              	HAL_RTCEx_SetWakeUpTimer_IT:
 1473              	.LVL106:
 1474              	.LFB143:
 951:Drivers/STM32F4xx_HAL_Driver/Src/stm32f4xx_hal_rtc_ex.c **** 
 952:Drivers/STM32F4xx_HAL_Driver/Src/stm32f4xx_hal_rtc_ex.c **** /**
 953:Drivers/STM32F4xx_HAL_Driver/Src/stm32f4xx_hal_rtc_ex.c ****   * @brief  Sets wakeup timer with interrupt.
 954:Drivers/STM32F4xx_HAL_Driver/Src/stm32f4xx_hal_rtc_ex.c ****   * @param  hrtc pointer to a RTC_HandleTypeDef structure that contains
 955:Drivers/STM32F4xx_HAL_Driver/Src/stm32f4xx_hal_rtc_ex.c ****   *                the configuration information for RTC.
 956:Drivers/STM32F4xx_HAL_Driver/Src/stm32f4xx_hal_rtc_ex.c ****   * @param  WakeUpCounter Wakeup counter
 957:Drivers/STM32F4xx_HAL_Driver/Src/stm32f4xx_hal_rtc_ex.c ****   * @param  WakeUpClock Wakeup clock
 958:Drivers/STM32F4xx_HAL_Driver/Src/stm32f4xx_hal_rtc_ex.c ****   * @retval HAL status
 959:Drivers/STM32F4xx_HAL_Driver/Src/stm32f4xx_hal_rtc_ex.c ****   */
 960:Drivers/STM32F4xx_HAL_Driver/Src/stm32f4xx_hal_rtc_ex.c **** HAL_StatusTypeDef HAL_RTCEx_SetWakeUpTimer_IT(RTC_HandleTypeDef *hrtc, uint32_t WakeUpCounter, uint
 961:Drivers/STM32F4xx_HAL_Driver/Src/stm32f4xx_hal_rtc_ex.c **** {
 1475              		.loc 1 961 1 is_stmt 1 view -0
 1476              		.cfi_startproc
 1477              		@ args = 0, pretend = 0, frame = 8
 1478              		@ frame_needed = 0, uses_anonymous_args = 0
 1479              		@ link register save eliminated.
 1480              		.loc 1 961 1 is_stmt 0 view .LVU526
 1481 0000 70B4     		push	{r4, r5, r6}
ARM GAS  /tmp/cc8XWiN3.s 			page 45


 1482              		.cfi_def_cfa_offset 12
 1483              		.cfi_offset 4, -12
 1484              		.cfi_offset 5, -8
 1485              		.cfi_offset 6, -4
 1486 0002 83B0     		sub	sp, sp, #12
 1487              		.cfi_def_cfa_offset 24
 1488 0004 0346     		mov	r3, r0
 962:Drivers/STM32F4xx_HAL_Driver/Src/stm32f4xx_hal_rtc_ex.c ****   __IO uint32_t count  = RTC_TIMEOUT_VALUE * (SystemCoreClock / 32U / 1000U);
 1489              		.loc 1 962 3 is_stmt 1 view .LVU527
 1490              		.loc 1 962 69 is_stmt 0 view .LVU528
 1491 0006 3948     		ldr	r0, .L101
 1492              	.LVL107:
 1493              		.loc 1 962 69 view .LVU529
 1494 0008 0468     		ldr	r4, [r0]
 1495 000a 3948     		ldr	r0, .L101+4
 1496 000c A0FB0404 		umull	r0, r4, r0, r4
 1497 0010 E40A     		lsrs	r4, r4, #11
 1498              		.loc 1 962 44 view .LVU530
 1499 0012 4FF47A70 		mov	r0, #1000
 1500 0016 00FB04F4 		mul	r4, r0, r4
 1501              		.loc 1 962 17 view .LVU531
 1502 001a 0194     		str	r4, [sp, #4]
 963:Drivers/STM32F4xx_HAL_Driver/Src/stm32f4xx_hal_rtc_ex.c **** 
 964:Drivers/STM32F4xx_HAL_Driver/Src/stm32f4xx_hal_rtc_ex.c ****   /* Check the parameters */
 965:Drivers/STM32F4xx_HAL_Driver/Src/stm32f4xx_hal_rtc_ex.c ****   assert_param(IS_RTC_WAKEUP_CLOCK(WakeUpClock));
 1503              		.loc 1 965 3 is_stmt 1 view .LVU532
 966:Drivers/STM32F4xx_HAL_Driver/Src/stm32f4xx_hal_rtc_ex.c ****   assert_param(IS_RTC_WAKEUP_COUNTER(WakeUpCounter));
 1504              		.loc 1 966 3 view .LVU533
 967:Drivers/STM32F4xx_HAL_Driver/Src/stm32f4xx_hal_rtc_ex.c **** 
 968:Drivers/STM32F4xx_HAL_Driver/Src/stm32f4xx_hal_rtc_ex.c ****   /* Process Locked */
 969:Drivers/STM32F4xx_HAL_Driver/Src/stm32f4xx_hal_rtc_ex.c ****   __HAL_LOCK(hrtc);
 1505              		.loc 1 969 3 view .LVU534
 1506              		.loc 1 969 3 view .LVU535
 1507 001c 187F     		ldrb	r0, [r3, #28]	@ zero_extendqisi2
 1508 001e 0128     		cmp	r0, #1
 1509 0020 62D0     		beq	.L97
 1510              		.loc 1 969 3 discriminator 2 view .LVU536
 1511 0022 0120     		movs	r0, #1
 1512 0024 1877     		strb	r0, [r3, #28]
 1513              		.loc 1 969 3 view .LVU537
 970:Drivers/STM32F4xx_HAL_Driver/Src/stm32f4xx_hal_rtc_ex.c **** 
 971:Drivers/STM32F4xx_HAL_Driver/Src/stm32f4xx_hal_rtc_ex.c ****   hrtc->State = HAL_RTC_STATE_BUSY;
 1514              		.loc 1 971 3 view .LVU538
 1515              		.loc 1 971 15 is_stmt 0 view .LVU539
 1516 0026 0220     		movs	r0, #2
 1517 0028 5877     		strb	r0, [r3, #29]
 972:Drivers/STM32F4xx_HAL_Driver/Src/stm32f4xx_hal_rtc_ex.c **** 
 973:Drivers/STM32F4xx_HAL_Driver/Src/stm32f4xx_hal_rtc_ex.c ****   /* Disable the write protection for RTC registers */
 974:Drivers/STM32F4xx_HAL_Driver/Src/stm32f4xx_hal_rtc_ex.c ****   __HAL_RTC_WRITEPROTECTION_DISABLE(hrtc);
 1518              		.loc 1 974 3 is_stmt 1 view .LVU540
 1519              		.loc 1 974 3 view .LVU541
 1520 002a 1868     		ldr	r0, [r3]
 1521 002c CA25     		movs	r5, #202
 1522 002e 4562     		str	r5, [r0, #36]
 1523              		.loc 1 974 3 view .LVU542
 1524 0030 1868     		ldr	r0, [r3]
 1525 0032 5325     		movs	r5, #83
ARM GAS  /tmp/cc8XWiN3.s 			page 46


 1526 0034 4562     		str	r5, [r0, #36]
 1527              		.loc 1 974 3 view .LVU543
 975:Drivers/STM32F4xx_HAL_Driver/Src/stm32f4xx_hal_rtc_ex.c **** 
 976:Drivers/STM32F4xx_HAL_Driver/Src/stm32f4xx_hal_rtc_ex.c ****   /* Check RTC WUTWF flag is reset only when wakeup timer enabled */
 977:Drivers/STM32F4xx_HAL_Driver/Src/stm32f4xx_hal_rtc_ex.c ****   if ((hrtc->Instance->CR & RTC_CR_WUTE) != 0U)
 1528              		.loc 1 977 3 view .LVU544
 1529              		.loc 1 977 12 is_stmt 0 view .LVU545
 1530 0036 1E68     		ldr	r6, [r3]
 1531              		.loc 1 977 22 view .LVU546
 1532 0038 B068     		ldr	r0, [r6, #8]
 1533              		.loc 1 977 6 view .LVU547
 1534 003a 10F4806F 		tst	r0, #1024
 1535 003e 08D0     		beq	.L92
 1536              	.L94:
 978:Drivers/STM32F4xx_HAL_Driver/Src/stm32f4xx_hal_rtc_ex.c ****   {
 979:Drivers/STM32F4xx_HAL_Driver/Src/stm32f4xx_hal_rtc_ex.c ****     /* Wait till RTC WUTWF flag is reset and if timeout is reached exit */
 980:Drivers/STM32F4xx_HAL_Driver/Src/stm32f4xx_hal_rtc_ex.c ****     do
 1537              		.loc 1 980 5 is_stmt 1 view .LVU548
 981:Drivers/STM32F4xx_HAL_Driver/Src/stm32f4xx_hal_rtc_ex.c ****     {
 982:Drivers/STM32F4xx_HAL_Driver/Src/stm32f4xx_hal_rtc_ex.c ****       if (count-- == 0U)
 1538              		.loc 1 982 7 view .LVU549
 1539              		.loc 1 982 16 is_stmt 0 view .LVU550
 1540 0040 0198     		ldr	r0, [sp, #4]
 1541 0042 451E     		subs	r5, r0, #1
 1542 0044 0195     		str	r5, [sp, #4]
 1543              		.loc 1 982 10 view .LVU551
 1544 0046 0028     		cmp	r0, #0
 1545 0048 3DD0     		beq	.L99
 983:Drivers/STM32F4xx_HAL_Driver/Src/stm32f4xx_hal_rtc_ex.c ****       {
 984:Drivers/STM32F4xx_HAL_Driver/Src/stm32f4xx_hal_rtc_ex.c ****         /* Enable the write protection for RTC registers */
 985:Drivers/STM32F4xx_HAL_Driver/Src/stm32f4xx_hal_rtc_ex.c ****         __HAL_RTC_WRITEPROTECTION_ENABLE(hrtc);
 986:Drivers/STM32F4xx_HAL_Driver/Src/stm32f4xx_hal_rtc_ex.c **** 
 987:Drivers/STM32F4xx_HAL_Driver/Src/stm32f4xx_hal_rtc_ex.c ****         hrtc->State = HAL_RTC_STATE_TIMEOUT;
 988:Drivers/STM32F4xx_HAL_Driver/Src/stm32f4xx_hal_rtc_ex.c **** 
 989:Drivers/STM32F4xx_HAL_Driver/Src/stm32f4xx_hal_rtc_ex.c ****         /* Process Unlocked */
 990:Drivers/STM32F4xx_HAL_Driver/Src/stm32f4xx_hal_rtc_ex.c ****         __HAL_UNLOCK(hrtc);
 991:Drivers/STM32F4xx_HAL_Driver/Src/stm32f4xx_hal_rtc_ex.c **** 
 992:Drivers/STM32F4xx_HAL_Driver/Src/stm32f4xx_hal_rtc_ex.c ****         return HAL_TIMEOUT;
 993:Drivers/STM32F4xx_HAL_Driver/Src/stm32f4xx_hal_rtc_ex.c ****       }
 994:Drivers/STM32F4xx_HAL_Driver/Src/stm32f4xx_hal_rtc_ex.c ****     } while (__HAL_RTC_WAKEUPTIMER_GET_FLAG(hrtc, RTC_FLAG_WUTWF) != 0U);
 1546              		.loc 1 994 67 is_stmt 1 view .LVU552
 1547              		.loc 1 994 14 is_stmt 0 view .LVU553
 1548 004a F068     		ldr	r0, [r6, #12]
 1549              		.loc 1 994 67 view .LVU554
 1550 004c 10F0040F 		tst	r0, #4
 1551 0050 F6D1     		bne	.L94
 1552              	.L92:
 995:Drivers/STM32F4xx_HAL_Driver/Src/stm32f4xx_hal_rtc_ex.c ****   }
 996:Drivers/STM32F4xx_HAL_Driver/Src/stm32f4xx_hal_rtc_ex.c **** 
 997:Drivers/STM32F4xx_HAL_Driver/Src/stm32f4xx_hal_rtc_ex.c ****   /* Disable the Wakeup timer */
 998:Drivers/STM32F4xx_HAL_Driver/Src/stm32f4xx_hal_rtc_ex.c ****   __HAL_RTC_WAKEUPTIMER_DISABLE(hrtc);
 1553              		.loc 1 998 3 is_stmt 1 view .LVU555
 1554 0052 B068     		ldr	r0, [r6, #8]
 1555 0054 20F48060 		bic	r0, r0, #1024
 1556 0058 B060     		str	r0, [r6, #8]
 999:Drivers/STM32F4xx_HAL_Driver/Src/stm32f4xx_hal_rtc_ex.c **** 
1000:Drivers/STM32F4xx_HAL_Driver/Src/stm32f4xx_hal_rtc_ex.c ****   /* Clear the Wakeup flag */
ARM GAS  /tmp/cc8XWiN3.s 			page 47


1001:Drivers/STM32F4xx_HAL_Driver/Src/stm32f4xx_hal_rtc_ex.c ****   __HAL_RTC_WAKEUPTIMER_CLEAR_FLAG(hrtc, RTC_FLAG_WUTF);
 1557              		.loc 1 1001 3 view .LVU556
 1558 005a 1D68     		ldr	r5, [r3]
 1559 005c E868     		ldr	r0, [r5, #12]
 1560 005e C0B2     		uxtb	r0, r0
 1561 0060 60F49060 		orn	r0, r0, #1152
 1562 0064 E860     		str	r0, [r5, #12]
1002:Drivers/STM32F4xx_HAL_Driver/Src/stm32f4xx_hal_rtc_ex.c **** 
1003:Drivers/STM32F4xx_HAL_Driver/Src/stm32f4xx_hal_rtc_ex.c ****   /* Reload the counter */
1004:Drivers/STM32F4xx_HAL_Driver/Src/stm32f4xx_hal_rtc_ex.c ****   count = RTC_TIMEOUT_VALUE * (SystemCoreClock / 32U / 1000U);
 1563              		.loc 1 1004 3 view .LVU557
 1564              		.loc 1 1004 9 is_stmt 0 view .LVU558
 1565 0066 0194     		str	r4, [sp, #4]
 1566              	.L96:
1005:Drivers/STM32F4xx_HAL_Driver/Src/stm32f4xx_hal_rtc_ex.c **** 
1006:Drivers/STM32F4xx_HAL_Driver/Src/stm32f4xx_hal_rtc_ex.c ****   /* Wait till RTC WUTWF flag is set and if timeout is reached exit */
1007:Drivers/STM32F4xx_HAL_Driver/Src/stm32f4xx_hal_rtc_ex.c ****   do
 1567              		.loc 1 1007 3 is_stmt 1 view .LVU559
1008:Drivers/STM32F4xx_HAL_Driver/Src/stm32f4xx_hal_rtc_ex.c ****   {
1009:Drivers/STM32F4xx_HAL_Driver/Src/stm32f4xx_hal_rtc_ex.c ****     if (count-- == 0U)
 1568              		.loc 1 1009 5 view .LVU560
 1569              		.loc 1 1009 14 is_stmt 0 view .LVU561
 1570 0068 0198     		ldr	r0, [sp, #4]
 1571 006a 441E     		subs	r4, r0, #1
 1572 006c 0194     		str	r4, [sp, #4]
 1573              		.loc 1 1009 8 view .LVU562
 1574 006e 0028     		cmp	r0, #0
 1575 0070 30D0     		beq	.L100
1010:Drivers/STM32F4xx_HAL_Driver/Src/stm32f4xx_hal_rtc_ex.c ****     {
1011:Drivers/STM32F4xx_HAL_Driver/Src/stm32f4xx_hal_rtc_ex.c ****       /* Enable the write protection for RTC registers */
1012:Drivers/STM32F4xx_HAL_Driver/Src/stm32f4xx_hal_rtc_ex.c ****       __HAL_RTC_WRITEPROTECTION_ENABLE(hrtc);
1013:Drivers/STM32F4xx_HAL_Driver/Src/stm32f4xx_hal_rtc_ex.c **** 
1014:Drivers/STM32F4xx_HAL_Driver/Src/stm32f4xx_hal_rtc_ex.c ****       hrtc->State = HAL_RTC_STATE_TIMEOUT;
1015:Drivers/STM32F4xx_HAL_Driver/Src/stm32f4xx_hal_rtc_ex.c **** 
1016:Drivers/STM32F4xx_HAL_Driver/Src/stm32f4xx_hal_rtc_ex.c ****       /* Process Unlocked */
1017:Drivers/STM32F4xx_HAL_Driver/Src/stm32f4xx_hal_rtc_ex.c ****       __HAL_UNLOCK(hrtc);
1018:Drivers/STM32F4xx_HAL_Driver/Src/stm32f4xx_hal_rtc_ex.c **** 
1019:Drivers/STM32F4xx_HAL_Driver/Src/stm32f4xx_hal_rtc_ex.c ****       return HAL_TIMEOUT;
1020:Drivers/STM32F4xx_HAL_Driver/Src/stm32f4xx_hal_rtc_ex.c ****     }
1021:Drivers/STM32F4xx_HAL_Driver/Src/stm32f4xx_hal_rtc_ex.c ****   } while (__HAL_RTC_WAKEUPTIMER_GET_FLAG(hrtc, RTC_FLAG_WUTWF) == 0U);
 1576              		.loc 1 1021 65 is_stmt 1 view .LVU563
 1577              		.loc 1 1021 12 is_stmt 0 view .LVU564
 1578 0072 1868     		ldr	r0, [r3]
 1579 0074 C468     		ldr	r4, [r0, #12]
 1580              		.loc 1 1021 65 view .LVU565
 1581 0076 14F0040F 		tst	r4, #4
 1582 007a F5D0     		beq	.L96
1022:Drivers/STM32F4xx_HAL_Driver/Src/stm32f4xx_hal_rtc_ex.c **** 
1023:Drivers/STM32F4xx_HAL_Driver/Src/stm32f4xx_hal_rtc_ex.c ****   /* Clear the Wakeup Timer clock source bits in CR register */
1024:Drivers/STM32F4xx_HAL_Driver/Src/stm32f4xx_hal_rtc_ex.c ****   hrtc->Instance->CR &= (uint32_t)~RTC_CR_WUCKSEL;
 1583              		.loc 1 1024 3 is_stmt 1 view .LVU566
 1584              		.loc 1 1024 17 is_stmt 0 view .LVU567
 1585 007c 8468     		ldr	r4, [r0, #8]
 1586              		.loc 1 1024 22 view .LVU568
 1587 007e 24F00704 		bic	r4, r4, #7
 1588 0082 8460     		str	r4, [r0, #8]
1025:Drivers/STM32F4xx_HAL_Driver/Src/stm32f4xx_hal_rtc_ex.c **** 
ARM GAS  /tmp/cc8XWiN3.s 			page 48


1026:Drivers/STM32F4xx_HAL_Driver/Src/stm32f4xx_hal_rtc_ex.c ****   /* Configure the clock source */
1027:Drivers/STM32F4xx_HAL_Driver/Src/stm32f4xx_hal_rtc_ex.c ****   hrtc->Instance->CR |= (uint32_t)WakeUpClock;
 1589              		.loc 1 1027 3 is_stmt 1 view .LVU569
 1590              		.loc 1 1027 7 is_stmt 0 view .LVU570
 1591 0084 1C68     		ldr	r4, [r3]
 1592              		.loc 1 1027 17 view .LVU571
 1593 0086 A068     		ldr	r0, [r4, #8]
 1594              		.loc 1 1027 22 view .LVU572
 1595 0088 0243     		orrs	r2, r2, r0
 1596              	.LVL108:
 1597              		.loc 1 1027 22 view .LVU573
 1598 008a A260     		str	r2, [r4, #8]
1028:Drivers/STM32F4xx_HAL_Driver/Src/stm32f4xx_hal_rtc_ex.c **** 
1029:Drivers/STM32F4xx_HAL_Driver/Src/stm32f4xx_hal_rtc_ex.c ****   /* Configure the Wakeup Timer counter */
1030:Drivers/STM32F4xx_HAL_Driver/Src/stm32f4xx_hal_rtc_ex.c ****   hrtc->Instance->WUTR = (uint32_t)WakeUpCounter;
 1599              		.loc 1 1030 3 is_stmt 1 view .LVU574
 1600              		.loc 1 1030 7 is_stmt 0 view .LVU575
 1601 008c 1A68     		ldr	r2, [r3]
 1602              		.loc 1 1030 24 view .LVU576
 1603 008e 5161     		str	r1, [r2, #20]
1031:Drivers/STM32F4xx_HAL_Driver/Src/stm32f4xx_hal_rtc_ex.c **** 
1032:Drivers/STM32F4xx_HAL_Driver/Src/stm32f4xx_hal_rtc_ex.c ****   /* RTC wakeup timer Interrupt Configuration: EXTI configuration */
1033:Drivers/STM32F4xx_HAL_Driver/Src/stm32f4xx_hal_rtc_ex.c ****   __HAL_RTC_WAKEUPTIMER_EXTI_ENABLE_IT();
 1604              		.loc 1 1033 3 is_stmt 1 view .LVU577
 1605 0090 184A     		ldr	r2, .L101+8
 1606 0092 1168     		ldr	r1, [r2]
 1607              	.LVL109:
 1608              		.loc 1 1033 3 is_stmt 0 view .LVU578
 1609 0094 41F48001 		orr	r1, r1, #4194304
 1610 0098 1160     		str	r1, [r2]
1034:Drivers/STM32F4xx_HAL_Driver/Src/stm32f4xx_hal_rtc_ex.c ****   __HAL_RTC_WAKEUPTIMER_EXTI_ENABLE_RISING_EDGE();
 1611              		.loc 1 1034 3 is_stmt 1 view .LVU579
 1612 009a 9168     		ldr	r1, [r2, #8]
 1613 009c 41F48001 		orr	r1, r1, #4194304
 1614 00a0 9160     		str	r1, [r2, #8]
1035:Drivers/STM32F4xx_HAL_Driver/Src/stm32f4xx_hal_rtc_ex.c **** 
1036:Drivers/STM32F4xx_HAL_Driver/Src/stm32f4xx_hal_rtc_ex.c ****   /* Configure the interrupt in the RTC_CR register */
1037:Drivers/STM32F4xx_HAL_Driver/Src/stm32f4xx_hal_rtc_ex.c ****   __HAL_RTC_WAKEUPTIMER_ENABLE_IT(hrtc, RTC_IT_WUT);
 1615              		.loc 1 1037 3 view .LVU580
 1616 00a2 1968     		ldr	r1, [r3]
 1617 00a4 8A68     		ldr	r2, [r1, #8]
 1618 00a6 42F48042 		orr	r2, r2, #16384
 1619 00aa 8A60     		str	r2, [r1, #8]
1038:Drivers/STM32F4xx_HAL_Driver/Src/stm32f4xx_hal_rtc_ex.c **** 
1039:Drivers/STM32F4xx_HAL_Driver/Src/stm32f4xx_hal_rtc_ex.c ****   /* Enable the Wakeup Timer */
1040:Drivers/STM32F4xx_HAL_Driver/Src/stm32f4xx_hal_rtc_ex.c ****   __HAL_RTC_WAKEUPTIMER_ENABLE(hrtc);
 1620              		.loc 1 1040 3 view .LVU581
 1621 00ac 1968     		ldr	r1, [r3]
 1622 00ae 8A68     		ldr	r2, [r1, #8]
 1623 00b0 42F48062 		orr	r2, r2, #1024
 1624 00b4 8A60     		str	r2, [r1, #8]
1041:Drivers/STM32F4xx_HAL_Driver/Src/stm32f4xx_hal_rtc_ex.c **** 
1042:Drivers/STM32F4xx_HAL_Driver/Src/stm32f4xx_hal_rtc_ex.c ****   /* Enable the write protection for RTC registers */
1043:Drivers/STM32F4xx_HAL_Driver/Src/stm32f4xx_hal_rtc_ex.c ****   __HAL_RTC_WRITEPROTECTION_ENABLE(hrtc);
 1625              		.loc 1 1043 3 view .LVU582
 1626              		.loc 1 1043 3 view .LVU583
 1627 00b6 1A68     		ldr	r2, [r3]
ARM GAS  /tmp/cc8XWiN3.s 			page 49


 1628 00b8 FF21     		movs	r1, #255
 1629 00ba 5162     		str	r1, [r2, #36]
 1630              		.loc 1 1043 3 view .LVU584
1044:Drivers/STM32F4xx_HAL_Driver/Src/stm32f4xx_hal_rtc_ex.c **** 
1045:Drivers/STM32F4xx_HAL_Driver/Src/stm32f4xx_hal_rtc_ex.c ****   hrtc->State = HAL_RTC_STATE_READY;
 1631              		.loc 1 1045 3 view .LVU585
 1632              		.loc 1 1045 15 is_stmt 0 view .LVU586
 1633 00bc 0122     		movs	r2, #1
 1634 00be 5A77     		strb	r2, [r3, #29]
1046:Drivers/STM32F4xx_HAL_Driver/Src/stm32f4xx_hal_rtc_ex.c **** 
1047:Drivers/STM32F4xx_HAL_Driver/Src/stm32f4xx_hal_rtc_ex.c ****   /* Process Unlocked */
1048:Drivers/STM32F4xx_HAL_Driver/Src/stm32f4xx_hal_rtc_ex.c ****   __HAL_UNLOCK(hrtc);
 1635              		.loc 1 1048 3 is_stmt 1 view .LVU587
 1636              		.loc 1 1048 3 view .LVU588
 1637 00c0 0020     		movs	r0, #0
 1638 00c2 1877     		strb	r0, [r3, #28]
 1639              		.loc 1 1048 3 view .LVU589
1049:Drivers/STM32F4xx_HAL_Driver/Src/stm32f4xx_hal_rtc_ex.c **** 
1050:Drivers/STM32F4xx_HAL_Driver/Src/stm32f4xx_hal_rtc_ex.c ****   return HAL_OK;
 1640              		.loc 1 1050 3 view .LVU590
 1641              		.loc 1 1050 10 is_stmt 0 view .LVU591
 1642 00c4 0DE0     		b	.L91
 1643              	.LVL110:
 1644              	.L99:
 985:Drivers/STM32F4xx_HAL_Driver/Src/stm32f4xx_hal_rtc_ex.c **** 
 1645              		.loc 1 985 9 is_stmt 1 view .LVU592
 985:Drivers/STM32F4xx_HAL_Driver/Src/stm32f4xx_hal_rtc_ex.c **** 
 1646              		.loc 1 985 9 view .LVU593
 1647 00c6 FF22     		movs	r2, #255
 1648              	.LVL111:
 985:Drivers/STM32F4xx_HAL_Driver/Src/stm32f4xx_hal_rtc_ex.c **** 
 1649              		.loc 1 985 9 is_stmt 0 view .LVU594
 1650 00c8 7262     		str	r2, [r6, #36]
 985:Drivers/STM32F4xx_HAL_Driver/Src/stm32f4xx_hal_rtc_ex.c **** 
 1651              		.loc 1 985 9 is_stmt 1 view .LVU595
 987:Drivers/STM32F4xx_HAL_Driver/Src/stm32f4xx_hal_rtc_ex.c **** 
 1652              		.loc 1 987 9 view .LVU596
 987:Drivers/STM32F4xx_HAL_Driver/Src/stm32f4xx_hal_rtc_ex.c **** 
 1653              		.loc 1 987 21 is_stmt 0 view .LVU597
 1654 00ca 0320     		movs	r0, #3
 1655 00cc 5877     		strb	r0, [r3, #29]
 990:Drivers/STM32F4xx_HAL_Driver/Src/stm32f4xx_hal_rtc_ex.c **** 
 1656              		.loc 1 990 9 is_stmt 1 view .LVU598
 990:Drivers/STM32F4xx_HAL_Driver/Src/stm32f4xx_hal_rtc_ex.c **** 
 1657              		.loc 1 990 9 view .LVU599
 1658 00ce 0022     		movs	r2, #0
 1659 00d0 1A77     		strb	r2, [r3, #28]
 990:Drivers/STM32F4xx_HAL_Driver/Src/stm32f4xx_hal_rtc_ex.c **** 
 1660              		.loc 1 990 9 view .LVU600
 992:Drivers/STM32F4xx_HAL_Driver/Src/stm32f4xx_hal_rtc_ex.c ****       }
 1661              		.loc 1 992 9 view .LVU601
 992:Drivers/STM32F4xx_HAL_Driver/Src/stm32f4xx_hal_rtc_ex.c ****       }
 1662              		.loc 1 992 16 is_stmt 0 view .LVU602
 1663 00d2 06E0     		b	.L91
 1664              	.LVL112:
 1665              	.L100:
1012:Drivers/STM32F4xx_HAL_Driver/Src/stm32f4xx_hal_rtc_ex.c **** 
ARM GAS  /tmp/cc8XWiN3.s 			page 50


 1666              		.loc 1 1012 7 is_stmt 1 view .LVU603
1012:Drivers/STM32F4xx_HAL_Driver/Src/stm32f4xx_hal_rtc_ex.c **** 
 1667              		.loc 1 1012 7 view .LVU604
 1668 00d4 1A68     		ldr	r2, [r3]
 1669              	.LVL113:
1012:Drivers/STM32F4xx_HAL_Driver/Src/stm32f4xx_hal_rtc_ex.c **** 
 1670              		.loc 1 1012 7 is_stmt 0 view .LVU605
 1671 00d6 FF21     		movs	r1, #255
 1672              	.LVL114:
1012:Drivers/STM32F4xx_HAL_Driver/Src/stm32f4xx_hal_rtc_ex.c **** 
 1673              		.loc 1 1012 7 view .LVU606
 1674 00d8 5162     		str	r1, [r2, #36]
1012:Drivers/STM32F4xx_HAL_Driver/Src/stm32f4xx_hal_rtc_ex.c **** 
 1675              		.loc 1 1012 7 is_stmt 1 view .LVU607
1014:Drivers/STM32F4xx_HAL_Driver/Src/stm32f4xx_hal_rtc_ex.c **** 
 1676              		.loc 1 1014 7 view .LVU608
1014:Drivers/STM32F4xx_HAL_Driver/Src/stm32f4xx_hal_rtc_ex.c **** 
 1677              		.loc 1 1014 19 is_stmt 0 view .LVU609
 1678 00da 0320     		movs	r0, #3
 1679 00dc 5877     		strb	r0, [r3, #29]
1017:Drivers/STM32F4xx_HAL_Driver/Src/stm32f4xx_hal_rtc_ex.c **** 
 1680              		.loc 1 1017 7 is_stmt 1 view .LVU610
1017:Drivers/STM32F4xx_HAL_Driver/Src/stm32f4xx_hal_rtc_ex.c **** 
 1681              		.loc 1 1017 7 view .LVU611
 1682 00de 0022     		movs	r2, #0
 1683 00e0 1A77     		strb	r2, [r3, #28]
1017:Drivers/STM32F4xx_HAL_Driver/Src/stm32f4xx_hal_rtc_ex.c **** 
 1684              		.loc 1 1017 7 view .LVU612
1019:Drivers/STM32F4xx_HAL_Driver/Src/stm32f4xx_hal_rtc_ex.c ****     }
 1685              		.loc 1 1019 7 view .LVU613
 1686              	.L91:
1051:Drivers/STM32F4xx_HAL_Driver/Src/stm32f4xx_hal_rtc_ex.c **** }
 1687              		.loc 1 1051 1 is_stmt 0 view .LVU614
 1688 00e2 03B0     		add	sp, sp, #12
 1689              		.cfi_remember_state
 1690              		.cfi_def_cfa_offset 12
 1691              		@ sp needed
 1692 00e4 70BC     		pop	{r4, r5, r6}
 1693              		.cfi_restore 6
 1694              		.cfi_restore 5
 1695              		.cfi_restore 4
 1696              		.cfi_def_cfa_offset 0
 1697 00e6 7047     		bx	lr
 1698              	.LVL115:
 1699              	.L97:
 1700              		.cfi_restore_state
 969:Drivers/STM32F4xx_HAL_Driver/Src/stm32f4xx_hal_rtc_ex.c **** 
 1701              		.loc 1 969 3 discriminator 1 view .LVU615
 1702 00e8 0220     		movs	r0, #2
 1703 00ea FAE7     		b	.L91
 1704              	.L102:
 1705              		.align	2
 1706              	.L101:
 1707 00ec 00000000 		.word	SystemCoreClock
 1708 00f0 D34D6210 		.word	274877907
 1709 00f4 003C0140 		.word	1073822720
 1710              		.cfi_endproc
ARM GAS  /tmp/cc8XWiN3.s 			page 51


 1711              	.LFE143:
 1713              		.section	.text.HAL_RTCEx_DeactivateWakeUpTimer,"ax",%progbits
 1714              		.align	1
 1715              		.global	HAL_RTCEx_DeactivateWakeUpTimer
 1716              		.syntax unified
 1717              		.thumb
 1718              		.thumb_func
 1720              	HAL_RTCEx_DeactivateWakeUpTimer:
 1721              	.LVL116:
 1722              	.LFB144:
1052:Drivers/STM32F4xx_HAL_Driver/Src/stm32f4xx_hal_rtc_ex.c **** 
1053:Drivers/STM32F4xx_HAL_Driver/Src/stm32f4xx_hal_rtc_ex.c **** /**
1054:Drivers/STM32F4xx_HAL_Driver/Src/stm32f4xx_hal_rtc_ex.c ****   * @brief  Deactivates wakeup timer counter.
1055:Drivers/STM32F4xx_HAL_Driver/Src/stm32f4xx_hal_rtc_ex.c ****   * @param  hrtc pointer to a RTC_HandleTypeDef structure that contains
1056:Drivers/STM32F4xx_HAL_Driver/Src/stm32f4xx_hal_rtc_ex.c ****   *                the configuration information for RTC.
1057:Drivers/STM32F4xx_HAL_Driver/Src/stm32f4xx_hal_rtc_ex.c ****   * @retval HAL status
1058:Drivers/STM32F4xx_HAL_Driver/Src/stm32f4xx_hal_rtc_ex.c ****   */
1059:Drivers/STM32F4xx_HAL_Driver/Src/stm32f4xx_hal_rtc_ex.c **** HAL_StatusTypeDef HAL_RTCEx_DeactivateWakeUpTimer(RTC_HandleTypeDef *hrtc)
1060:Drivers/STM32F4xx_HAL_Driver/Src/stm32f4xx_hal_rtc_ex.c **** {
 1723              		.loc 1 1060 1 is_stmt 1 view -0
 1724              		.cfi_startproc
 1725              		@ args = 0, pretend = 0, frame = 0
 1726              		@ frame_needed = 0, uses_anonymous_args = 0
 1727              		.loc 1 1060 1 is_stmt 0 view .LVU617
 1728 0000 38B5     		push	{r3, r4, r5, lr}
 1729              		.cfi_def_cfa_offset 16
 1730              		.cfi_offset 3, -16
 1731              		.cfi_offset 4, -12
 1732              		.cfi_offset 5, -8
 1733              		.cfi_offset 14, -4
1061:Drivers/STM32F4xx_HAL_Driver/Src/stm32f4xx_hal_rtc_ex.c ****   uint32_t tickstart = 0U;
 1734              		.loc 1 1061 3 is_stmt 1 view .LVU618
 1735              	.LVL117:
1062:Drivers/STM32F4xx_HAL_Driver/Src/stm32f4xx_hal_rtc_ex.c **** 
1063:Drivers/STM32F4xx_HAL_Driver/Src/stm32f4xx_hal_rtc_ex.c ****   /* Process Locked */
1064:Drivers/STM32F4xx_HAL_Driver/Src/stm32f4xx_hal_rtc_ex.c ****   __HAL_LOCK(hrtc);
 1736              		.loc 1 1064 3 view .LVU619
 1737              		.loc 1 1064 3 view .LVU620
 1738 0002 037F     		ldrb	r3, [r0, #28]	@ zero_extendqisi2
 1739 0004 012B     		cmp	r3, #1
 1740 0006 31D0     		beq	.L107
 1741 0008 0446     		mov	r4, r0
 1742              		.loc 1 1064 3 discriminator 2 view .LVU621
 1743 000a 0123     		movs	r3, #1
 1744 000c 0377     		strb	r3, [r0, #28]
 1745              		.loc 1 1064 3 view .LVU622
1065:Drivers/STM32F4xx_HAL_Driver/Src/stm32f4xx_hal_rtc_ex.c **** 
1066:Drivers/STM32F4xx_HAL_Driver/Src/stm32f4xx_hal_rtc_ex.c ****   hrtc->State = HAL_RTC_STATE_BUSY;
 1746              		.loc 1 1066 3 view .LVU623
 1747              		.loc 1 1066 15 is_stmt 0 view .LVU624
 1748 000e 0223     		movs	r3, #2
 1749 0010 4377     		strb	r3, [r0, #29]
1067:Drivers/STM32F4xx_HAL_Driver/Src/stm32f4xx_hal_rtc_ex.c **** 
1068:Drivers/STM32F4xx_HAL_Driver/Src/stm32f4xx_hal_rtc_ex.c ****   /* Disable the write protection for RTC registers */
1069:Drivers/STM32F4xx_HAL_Driver/Src/stm32f4xx_hal_rtc_ex.c ****   __HAL_RTC_WRITEPROTECTION_DISABLE(hrtc);
 1750              		.loc 1 1069 3 is_stmt 1 view .LVU625
 1751              		.loc 1 1069 3 view .LVU626
ARM GAS  /tmp/cc8XWiN3.s 			page 52


 1752 0012 0368     		ldr	r3, [r0]
 1753 0014 CA22     		movs	r2, #202
 1754 0016 5A62     		str	r2, [r3, #36]
 1755              		.loc 1 1069 3 view .LVU627
 1756 0018 0368     		ldr	r3, [r0]
 1757 001a 5322     		movs	r2, #83
 1758 001c 5A62     		str	r2, [r3, #36]
 1759              		.loc 1 1069 3 view .LVU628
1070:Drivers/STM32F4xx_HAL_Driver/Src/stm32f4xx_hal_rtc_ex.c **** 
1071:Drivers/STM32F4xx_HAL_Driver/Src/stm32f4xx_hal_rtc_ex.c ****   /* Disable the Wakeup Timer */
1072:Drivers/STM32F4xx_HAL_Driver/Src/stm32f4xx_hal_rtc_ex.c ****   __HAL_RTC_WAKEUPTIMER_DISABLE(hrtc);
 1760              		.loc 1 1072 3 view .LVU629
 1761 001e 0268     		ldr	r2, [r0]
 1762 0020 9368     		ldr	r3, [r2, #8]
 1763 0022 23F48063 		bic	r3, r3, #1024
 1764 0026 9360     		str	r3, [r2, #8]
1073:Drivers/STM32F4xx_HAL_Driver/Src/stm32f4xx_hal_rtc_ex.c **** 
1074:Drivers/STM32F4xx_HAL_Driver/Src/stm32f4xx_hal_rtc_ex.c ****   /* In case of interrupt mode is used, the interrupt source must disabled */
1075:Drivers/STM32F4xx_HAL_Driver/Src/stm32f4xx_hal_rtc_ex.c ****   __HAL_RTC_WAKEUPTIMER_DISABLE_IT(hrtc, RTC_IT_WUT);
 1765              		.loc 1 1075 3 view .LVU630
 1766 0028 0268     		ldr	r2, [r0]
 1767 002a 9368     		ldr	r3, [r2, #8]
 1768 002c 23F48043 		bic	r3, r3, #16384
 1769 0030 9360     		str	r3, [r2, #8]
1076:Drivers/STM32F4xx_HAL_Driver/Src/stm32f4xx_hal_rtc_ex.c **** 
1077:Drivers/STM32F4xx_HAL_Driver/Src/stm32f4xx_hal_rtc_ex.c ****   /* Get tick */
1078:Drivers/STM32F4xx_HAL_Driver/Src/stm32f4xx_hal_rtc_ex.c ****   tickstart = HAL_GetTick();
 1770              		.loc 1 1078 3 view .LVU631
 1771              		.loc 1 1078 15 is_stmt 0 view .LVU632
 1772 0032 FFF7FEFF 		bl	HAL_GetTick
 1773              	.LVL118:
 1774              		.loc 1 1078 15 view .LVU633
 1775 0036 0546     		mov	r5, r0
 1776              	.LVL119:
1079:Drivers/STM32F4xx_HAL_Driver/Src/stm32f4xx_hal_rtc_ex.c **** 
1080:Drivers/STM32F4xx_HAL_Driver/Src/stm32f4xx_hal_rtc_ex.c ****   /* Wait till RTC WUTWF flag is set and if timeout is reached exit */
1081:Drivers/STM32F4xx_HAL_Driver/Src/stm32f4xx_hal_rtc_ex.c ****   while (__HAL_RTC_WAKEUPTIMER_GET_FLAG(hrtc, RTC_FLAG_WUTWF) == 0U)
 1777              		.loc 1 1081 3 is_stmt 1 view .LVU634
 1778              	.L105:
 1779              		.loc 1 1081 63 view .LVU635
 1780              		.loc 1 1081 10 is_stmt 0 view .LVU636
 1781 0038 2368     		ldr	r3, [r4]
 1782 003a DA68     		ldr	r2, [r3, #12]
 1783              		.loc 1 1081 63 view .LVU637
 1784 003c 12F0040F 		tst	r2, #4
 1785 0040 0DD1     		bne	.L109
1082:Drivers/STM32F4xx_HAL_Driver/Src/stm32f4xx_hal_rtc_ex.c ****   {
1083:Drivers/STM32F4xx_HAL_Driver/Src/stm32f4xx_hal_rtc_ex.c ****     if ((HAL_GetTick() - tickstart) > RTC_TIMEOUT_VALUE)
 1786              		.loc 1 1083 5 is_stmt 1 view .LVU638
 1787              		.loc 1 1083 10 is_stmt 0 view .LVU639
 1788 0042 FFF7FEFF 		bl	HAL_GetTick
 1789              	.LVL120:
 1790              		.loc 1 1083 24 discriminator 1 view .LVU640
 1791 0046 431B     		subs	r3, r0, r5
 1792              		.loc 1 1083 8 discriminator 1 view .LVU641
 1793 0048 B3F57A7F 		cmp	r3, #1000
 1794 004c F4D9     		bls	.L105
ARM GAS  /tmp/cc8XWiN3.s 			page 53


1084:Drivers/STM32F4xx_HAL_Driver/Src/stm32f4xx_hal_rtc_ex.c ****     {
1085:Drivers/STM32F4xx_HAL_Driver/Src/stm32f4xx_hal_rtc_ex.c ****       /* Enable the write protection for RTC registers */
1086:Drivers/STM32F4xx_HAL_Driver/Src/stm32f4xx_hal_rtc_ex.c ****       __HAL_RTC_WRITEPROTECTION_ENABLE(hrtc);
 1795              		.loc 1 1086 7 is_stmt 1 view .LVU642
 1796              		.loc 1 1086 7 view .LVU643
 1797 004e 2368     		ldr	r3, [r4]
 1798 0050 FF22     		movs	r2, #255
 1799 0052 5A62     		str	r2, [r3, #36]
 1800              		.loc 1 1086 7 view .LVU644
1087:Drivers/STM32F4xx_HAL_Driver/Src/stm32f4xx_hal_rtc_ex.c **** 
1088:Drivers/STM32F4xx_HAL_Driver/Src/stm32f4xx_hal_rtc_ex.c ****       hrtc->State = HAL_RTC_STATE_TIMEOUT;
 1801              		.loc 1 1088 7 view .LVU645
 1802              		.loc 1 1088 19 is_stmt 0 view .LVU646
 1803 0054 0320     		movs	r0, #3
 1804 0056 6077     		strb	r0, [r4, #29]
1089:Drivers/STM32F4xx_HAL_Driver/Src/stm32f4xx_hal_rtc_ex.c **** 
1090:Drivers/STM32F4xx_HAL_Driver/Src/stm32f4xx_hal_rtc_ex.c ****       /* Process Unlocked */
1091:Drivers/STM32F4xx_HAL_Driver/Src/stm32f4xx_hal_rtc_ex.c ****       __HAL_UNLOCK(hrtc);
 1805              		.loc 1 1091 7 is_stmt 1 view .LVU647
 1806              		.loc 1 1091 7 view .LVU648
 1807 0058 0023     		movs	r3, #0
 1808 005a 2377     		strb	r3, [r4, #28]
 1809              		.loc 1 1091 7 view .LVU649
1092:Drivers/STM32F4xx_HAL_Driver/Src/stm32f4xx_hal_rtc_ex.c **** 
1093:Drivers/STM32F4xx_HAL_Driver/Src/stm32f4xx_hal_rtc_ex.c ****       return HAL_TIMEOUT;
 1810              		.loc 1 1093 7 view .LVU650
 1811              		.loc 1 1093 14 is_stmt 0 view .LVU651
 1812 005c 05E0     		b	.L104
 1813              	.L109:
1094:Drivers/STM32F4xx_HAL_Driver/Src/stm32f4xx_hal_rtc_ex.c ****     }
1095:Drivers/STM32F4xx_HAL_Driver/Src/stm32f4xx_hal_rtc_ex.c ****   }
1096:Drivers/STM32F4xx_HAL_Driver/Src/stm32f4xx_hal_rtc_ex.c **** 
1097:Drivers/STM32F4xx_HAL_Driver/Src/stm32f4xx_hal_rtc_ex.c ****   /* Enable the write protection for RTC registers */
1098:Drivers/STM32F4xx_HAL_Driver/Src/stm32f4xx_hal_rtc_ex.c ****   __HAL_RTC_WRITEPROTECTION_ENABLE(hrtc);
 1814              		.loc 1 1098 3 is_stmt 1 view .LVU652
 1815              		.loc 1 1098 3 view .LVU653
 1816 005e FF22     		movs	r2, #255
 1817 0060 5A62     		str	r2, [r3, #36]
 1818              		.loc 1 1098 3 view .LVU654
1099:Drivers/STM32F4xx_HAL_Driver/Src/stm32f4xx_hal_rtc_ex.c **** 
1100:Drivers/STM32F4xx_HAL_Driver/Src/stm32f4xx_hal_rtc_ex.c ****   hrtc->State = HAL_RTC_STATE_READY;
 1819              		.loc 1 1100 3 view .LVU655
 1820              		.loc 1 1100 15 is_stmt 0 view .LVU656
 1821 0062 0123     		movs	r3, #1
 1822 0064 6377     		strb	r3, [r4, #29]
1101:Drivers/STM32F4xx_HAL_Driver/Src/stm32f4xx_hal_rtc_ex.c **** 
1102:Drivers/STM32F4xx_HAL_Driver/Src/stm32f4xx_hal_rtc_ex.c ****   /* Process Unlocked */
1103:Drivers/STM32F4xx_HAL_Driver/Src/stm32f4xx_hal_rtc_ex.c ****   __HAL_UNLOCK(hrtc);
 1823              		.loc 1 1103 3 is_stmt 1 view .LVU657
 1824              		.loc 1 1103 3 view .LVU658
 1825 0066 0020     		movs	r0, #0
 1826 0068 2077     		strb	r0, [r4, #28]
 1827              		.loc 1 1103 3 view .LVU659
1104:Drivers/STM32F4xx_HAL_Driver/Src/stm32f4xx_hal_rtc_ex.c **** 
1105:Drivers/STM32F4xx_HAL_Driver/Src/stm32f4xx_hal_rtc_ex.c ****   return HAL_OK;
 1828              		.loc 1 1105 3 view .LVU660
 1829              	.LVL121:
ARM GAS  /tmp/cc8XWiN3.s 			page 54


 1830              	.L104:
1106:Drivers/STM32F4xx_HAL_Driver/Src/stm32f4xx_hal_rtc_ex.c **** }
 1831              		.loc 1 1106 1 is_stmt 0 view .LVU661
 1832 006a 38BD     		pop	{r3, r4, r5, pc}
 1833              	.LVL122:
 1834              	.L107:
1064:Drivers/STM32F4xx_HAL_Driver/Src/stm32f4xx_hal_rtc_ex.c **** 
 1835              		.loc 1 1064 3 discriminator 1 view .LVU662
 1836 006c 0220     		movs	r0, #2
 1837              	.LVL123:
1064:Drivers/STM32F4xx_HAL_Driver/Src/stm32f4xx_hal_rtc_ex.c **** 
 1838              		.loc 1 1064 3 discriminator 1 view .LVU663
 1839 006e FCE7     		b	.L104
 1840              		.cfi_endproc
 1841              	.LFE144:
 1843              		.section	.text.HAL_RTCEx_GetWakeUpTimer,"ax",%progbits
 1844              		.align	1
 1845              		.global	HAL_RTCEx_GetWakeUpTimer
 1846              		.syntax unified
 1847              		.thumb
 1848              		.thumb_func
 1850              	HAL_RTCEx_GetWakeUpTimer:
 1851              	.LVL124:
 1852              	.LFB145:
1107:Drivers/STM32F4xx_HAL_Driver/Src/stm32f4xx_hal_rtc_ex.c **** 
1108:Drivers/STM32F4xx_HAL_Driver/Src/stm32f4xx_hal_rtc_ex.c **** /**
1109:Drivers/STM32F4xx_HAL_Driver/Src/stm32f4xx_hal_rtc_ex.c ****   * @brief  Gets wakeup timer counter.
1110:Drivers/STM32F4xx_HAL_Driver/Src/stm32f4xx_hal_rtc_ex.c ****   * @param  hrtc pointer to a RTC_HandleTypeDef structure that contains
1111:Drivers/STM32F4xx_HAL_Driver/Src/stm32f4xx_hal_rtc_ex.c ****   *                the configuration information for RTC.
1112:Drivers/STM32F4xx_HAL_Driver/Src/stm32f4xx_hal_rtc_ex.c ****   * @retval Counter value
1113:Drivers/STM32F4xx_HAL_Driver/Src/stm32f4xx_hal_rtc_ex.c ****   */
1114:Drivers/STM32F4xx_HAL_Driver/Src/stm32f4xx_hal_rtc_ex.c **** uint32_t HAL_RTCEx_GetWakeUpTimer(RTC_HandleTypeDef *hrtc)
1115:Drivers/STM32F4xx_HAL_Driver/Src/stm32f4xx_hal_rtc_ex.c **** {
 1853              		.loc 1 1115 1 is_stmt 1 view -0
 1854              		.cfi_startproc
 1855              		@ args = 0, pretend = 0, frame = 0
 1856              		@ frame_needed = 0, uses_anonymous_args = 0
 1857              		@ link register save eliminated.
1116:Drivers/STM32F4xx_HAL_Driver/Src/stm32f4xx_hal_rtc_ex.c ****   /* Get the counter value */
1117:Drivers/STM32F4xx_HAL_Driver/Src/stm32f4xx_hal_rtc_ex.c ****   return ((uint32_t)(hrtc->Instance->WUTR & RTC_WUTR_WUT));
 1858              		.loc 1 1117 3 view .LVU665
 1859              		.loc 1 1117 26 is_stmt 0 view .LVU666
 1860 0000 0368     		ldr	r3, [r0]
 1861              		.loc 1 1117 36 view .LVU667
 1862 0002 5869     		ldr	r0, [r3, #20]
 1863              	.LVL125:
1118:Drivers/STM32F4xx_HAL_Driver/Src/stm32f4xx_hal_rtc_ex.c **** }
 1864              		.loc 1 1118 1 view .LVU668
 1865 0004 80B2     		uxth	r0, r0
 1866 0006 7047     		bx	lr
 1867              		.cfi_endproc
 1868              	.LFE145:
 1870              		.section	.text.HAL_RTCEx_WakeUpTimerEventCallback,"ax",%progbits
 1871              		.align	1
 1872              		.weak	HAL_RTCEx_WakeUpTimerEventCallback
 1873              		.syntax unified
 1874              		.thumb
ARM GAS  /tmp/cc8XWiN3.s 			page 55


 1875              		.thumb_func
 1877              	HAL_RTCEx_WakeUpTimerEventCallback:
 1878              	.LVL126:
 1879              	.LFB147:
1119:Drivers/STM32F4xx_HAL_Driver/Src/stm32f4xx_hal_rtc_ex.c **** 
1120:Drivers/STM32F4xx_HAL_Driver/Src/stm32f4xx_hal_rtc_ex.c **** /**
1121:Drivers/STM32F4xx_HAL_Driver/Src/stm32f4xx_hal_rtc_ex.c ****   * @brief  Handles Wakeup Timer interrupt request.
1122:Drivers/STM32F4xx_HAL_Driver/Src/stm32f4xx_hal_rtc_ex.c ****   * @note   Unlike alarm interrupt line (shared by Alarms A and B) or tamper
1123:Drivers/STM32F4xx_HAL_Driver/Src/stm32f4xx_hal_rtc_ex.c ****   *         interrupt line (shared by timestamp and tampers) wakeup timer
1124:Drivers/STM32F4xx_HAL_Driver/Src/stm32f4xx_hal_rtc_ex.c ****   *         interrupt line is exclusive to the wakeup timer.
1125:Drivers/STM32F4xx_HAL_Driver/Src/stm32f4xx_hal_rtc_ex.c ****   *         There is no need in this case to check on the interrupt enable
1126:Drivers/STM32F4xx_HAL_Driver/Src/stm32f4xx_hal_rtc_ex.c ****   *         status via __HAL_RTC_WAKEUPTIMER_GET_IT_SOURCE().
1127:Drivers/STM32F4xx_HAL_Driver/Src/stm32f4xx_hal_rtc_ex.c ****   * @param  hrtc pointer to a RTC_HandleTypeDef structure that contains
1128:Drivers/STM32F4xx_HAL_Driver/Src/stm32f4xx_hal_rtc_ex.c ****   *                the configuration information for RTC.
1129:Drivers/STM32F4xx_HAL_Driver/Src/stm32f4xx_hal_rtc_ex.c ****   * @retval None
1130:Drivers/STM32F4xx_HAL_Driver/Src/stm32f4xx_hal_rtc_ex.c ****   */
1131:Drivers/STM32F4xx_HAL_Driver/Src/stm32f4xx_hal_rtc_ex.c **** void HAL_RTCEx_WakeUpTimerIRQHandler(RTC_HandleTypeDef *hrtc)
1132:Drivers/STM32F4xx_HAL_Driver/Src/stm32f4xx_hal_rtc_ex.c **** {
1133:Drivers/STM32F4xx_HAL_Driver/Src/stm32f4xx_hal_rtc_ex.c ****   /* Get the pending status of the Wakeup timer Interrupt */
1134:Drivers/STM32F4xx_HAL_Driver/Src/stm32f4xx_hal_rtc_ex.c ****   if (__HAL_RTC_WAKEUPTIMER_GET_FLAG(hrtc, RTC_FLAG_WUTF) != 0U)
1135:Drivers/STM32F4xx_HAL_Driver/Src/stm32f4xx_hal_rtc_ex.c ****   {
1136:Drivers/STM32F4xx_HAL_Driver/Src/stm32f4xx_hal_rtc_ex.c ****     /* Wakeup timer callback */
1137:Drivers/STM32F4xx_HAL_Driver/Src/stm32f4xx_hal_rtc_ex.c **** #if (USE_HAL_RTC_REGISTER_CALLBACKS == 1)
1138:Drivers/STM32F4xx_HAL_Driver/Src/stm32f4xx_hal_rtc_ex.c ****     hrtc->WakeUpTimerEventCallback(hrtc);
1139:Drivers/STM32F4xx_HAL_Driver/Src/stm32f4xx_hal_rtc_ex.c **** #else
1140:Drivers/STM32F4xx_HAL_Driver/Src/stm32f4xx_hal_rtc_ex.c ****     HAL_RTCEx_WakeUpTimerEventCallback(hrtc);
1141:Drivers/STM32F4xx_HAL_Driver/Src/stm32f4xx_hal_rtc_ex.c **** #endif /* USE_HAL_RTC_REGISTER_CALLBACKS */
1142:Drivers/STM32F4xx_HAL_Driver/Src/stm32f4xx_hal_rtc_ex.c **** 
1143:Drivers/STM32F4xx_HAL_Driver/Src/stm32f4xx_hal_rtc_ex.c ****     /* Clear the Wakeup timer interrupt pending bit */
1144:Drivers/STM32F4xx_HAL_Driver/Src/stm32f4xx_hal_rtc_ex.c ****     __HAL_RTC_WAKEUPTIMER_CLEAR_FLAG(hrtc, RTC_FLAG_WUTF);
1145:Drivers/STM32F4xx_HAL_Driver/Src/stm32f4xx_hal_rtc_ex.c ****   }
1146:Drivers/STM32F4xx_HAL_Driver/Src/stm32f4xx_hal_rtc_ex.c **** 
1147:Drivers/STM32F4xx_HAL_Driver/Src/stm32f4xx_hal_rtc_ex.c ****   /* Clear the EXTI's line Flag for RTC WakeUpTimer */
1148:Drivers/STM32F4xx_HAL_Driver/Src/stm32f4xx_hal_rtc_ex.c ****   __HAL_RTC_WAKEUPTIMER_EXTI_CLEAR_FLAG();
1149:Drivers/STM32F4xx_HAL_Driver/Src/stm32f4xx_hal_rtc_ex.c **** 
1150:Drivers/STM32F4xx_HAL_Driver/Src/stm32f4xx_hal_rtc_ex.c ****   /* Change RTC state */
1151:Drivers/STM32F4xx_HAL_Driver/Src/stm32f4xx_hal_rtc_ex.c ****   hrtc->State = HAL_RTC_STATE_READY;
1152:Drivers/STM32F4xx_HAL_Driver/Src/stm32f4xx_hal_rtc_ex.c **** }
1153:Drivers/STM32F4xx_HAL_Driver/Src/stm32f4xx_hal_rtc_ex.c **** 
1154:Drivers/STM32F4xx_HAL_Driver/Src/stm32f4xx_hal_rtc_ex.c **** /**
1155:Drivers/STM32F4xx_HAL_Driver/Src/stm32f4xx_hal_rtc_ex.c ****   * @brief  Wakeup Timer callback.
1156:Drivers/STM32F4xx_HAL_Driver/Src/stm32f4xx_hal_rtc_ex.c ****   * @param  hrtc pointer to a RTC_HandleTypeDef structure that contains
1157:Drivers/STM32F4xx_HAL_Driver/Src/stm32f4xx_hal_rtc_ex.c ****   *                the configuration information for RTC.
1158:Drivers/STM32F4xx_HAL_Driver/Src/stm32f4xx_hal_rtc_ex.c ****   * @retval None
1159:Drivers/STM32F4xx_HAL_Driver/Src/stm32f4xx_hal_rtc_ex.c ****   */
1160:Drivers/STM32F4xx_HAL_Driver/Src/stm32f4xx_hal_rtc_ex.c **** __weak void HAL_RTCEx_WakeUpTimerEventCallback(RTC_HandleTypeDef *hrtc)
1161:Drivers/STM32F4xx_HAL_Driver/Src/stm32f4xx_hal_rtc_ex.c **** {
 1880              		.loc 1 1161 1 is_stmt 1 view -0
 1881              		.cfi_startproc
 1882              		@ args = 0, pretend = 0, frame = 0
 1883              		@ frame_needed = 0, uses_anonymous_args = 0
 1884              		@ link register save eliminated.
1162:Drivers/STM32F4xx_HAL_Driver/Src/stm32f4xx_hal_rtc_ex.c ****   /* Prevent unused argument(s) compilation warning */
1163:Drivers/STM32F4xx_HAL_Driver/Src/stm32f4xx_hal_rtc_ex.c ****   UNUSED(hrtc);
 1885              		.loc 1 1163 3 view .LVU670
1164:Drivers/STM32F4xx_HAL_Driver/Src/stm32f4xx_hal_rtc_ex.c **** 
1165:Drivers/STM32F4xx_HAL_Driver/Src/stm32f4xx_hal_rtc_ex.c ****   /* NOTE: This function should not be modified, when the callback is needed,
ARM GAS  /tmp/cc8XWiN3.s 			page 56


1166:Drivers/STM32F4xx_HAL_Driver/Src/stm32f4xx_hal_rtc_ex.c ****            the HAL_RTCEx_WakeUpTimerEventCallback could be implemented in the user file
1167:Drivers/STM32F4xx_HAL_Driver/Src/stm32f4xx_hal_rtc_ex.c ****    */
1168:Drivers/STM32F4xx_HAL_Driver/Src/stm32f4xx_hal_rtc_ex.c **** }
 1886              		.loc 1 1168 1 is_stmt 0 view .LVU671
 1887 0000 7047     		bx	lr
 1888              		.cfi_endproc
 1889              	.LFE147:
 1891              		.section	.text.HAL_RTCEx_WakeUpTimerIRQHandler,"ax",%progbits
 1892              		.align	1
 1893              		.global	HAL_RTCEx_WakeUpTimerIRQHandler
 1894              		.syntax unified
 1895              		.thumb
 1896              		.thumb_func
 1898              	HAL_RTCEx_WakeUpTimerIRQHandler:
 1899              	.LVL127:
 1900              	.LFB146:
1132:Drivers/STM32F4xx_HAL_Driver/Src/stm32f4xx_hal_rtc_ex.c ****   /* Get the pending status of the Wakeup timer Interrupt */
 1901              		.loc 1 1132 1 is_stmt 1 view -0
 1902              		.cfi_startproc
 1903              		@ args = 0, pretend = 0, frame = 0
 1904              		@ frame_needed = 0, uses_anonymous_args = 0
1132:Drivers/STM32F4xx_HAL_Driver/Src/stm32f4xx_hal_rtc_ex.c ****   /* Get the pending status of the Wakeup timer Interrupt */
 1905              		.loc 1 1132 1 is_stmt 0 view .LVU673
 1906 0000 10B5     		push	{r4, lr}
 1907              		.cfi_def_cfa_offset 8
 1908              		.cfi_offset 4, -8
 1909              		.cfi_offset 14, -4
 1910 0002 0446     		mov	r4, r0
1134:Drivers/STM32F4xx_HAL_Driver/Src/stm32f4xx_hal_rtc_ex.c ****   {
 1911              		.loc 1 1134 3 is_stmt 1 view .LVU674
1134:Drivers/STM32F4xx_HAL_Driver/Src/stm32f4xx_hal_rtc_ex.c ****   {
 1912              		.loc 1 1134 7 is_stmt 0 view .LVU675
 1913 0004 0368     		ldr	r3, [r0]
 1914 0006 DB68     		ldr	r3, [r3, #12]
1134:Drivers/STM32F4xx_HAL_Driver/Src/stm32f4xx_hal_rtc_ex.c ****   {
 1915              		.loc 1 1134 6 view .LVU676
 1916 0008 13F4806F 		tst	r3, #1024
 1917 000c 06D1     		bne	.L115
 1918              	.LVL128:
 1919              	.L113:
1148:Drivers/STM32F4xx_HAL_Driver/Src/stm32f4xx_hal_rtc_ex.c **** 
 1920              		.loc 1 1148 3 is_stmt 1 view .LVU677
 1921 000e 084B     		ldr	r3, .L116
 1922 0010 4FF48002 		mov	r2, #4194304
 1923 0014 5A61     		str	r2, [r3, #20]
1151:Drivers/STM32F4xx_HAL_Driver/Src/stm32f4xx_hal_rtc_ex.c **** }
 1924              		.loc 1 1151 3 view .LVU678
1151:Drivers/STM32F4xx_HAL_Driver/Src/stm32f4xx_hal_rtc_ex.c **** }
 1925              		.loc 1 1151 15 is_stmt 0 view .LVU679
 1926 0016 0123     		movs	r3, #1
 1927 0018 6377     		strb	r3, [r4, #29]
1152:Drivers/STM32F4xx_HAL_Driver/Src/stm32f4xx_hal_rtc_ex.c **** 
 1928              		.loc 1 1152 1 view .LVU680
 1929 001a 10BD     		pop	{r4, pc}
 1930              	.LVL129:
 1931              	.L115:
1140:Drivers/STM32F4xx_HAL_Driver/Src/stm32f4xx_hal_rtc_ex.c **** #endif /* USE_HAL_RTC_REGISTER_CALLBACKS */
ARM GAS  /tmp/cc8XWiN3.s 			page 57


 1932              		.loc 1 1140 5 is_stmt 1 view .LVU681
 1933 001c FFF7FEFF 		bl	HAL_RTCEx_WakeUpTimerEventCallback
 1934              	.LVL130:
1144:Drivers/STM32F4xx_HAL_Driver/Src/stm32f4xx_hal_rtc_ex.c ****   }
 1935              		.loc 1 1144 5 view .LVU682
 1936 0020 2268     		ldr	r2, [r4]
 1937 0022 D368     		ldr	r3, [r2, #12]
 1938 0024 DBB2     		uxtb	r3, r3
 1939 0026 63F49063 		orn	r3, r3, #1152
 1940 002a D360     		str	r3, [r2, #12]
 1941 002c EFE7     		b	.L113
 1942              	.L117:
 1943 002e 00BF     		.align	2
 1944              	.L116:
 1945 0030 003C0140 		.word	1073822720
 1946              		.cfi_endproc
 1947              	.LFE146:
 1949              		.section	.text.HAL_RTCEx_PollForWakeUpTimerEvent,"ax",%progbits
 1950              		.align	1
 1951              		.global	HAL_RTCEx_PollForWakeUpTimerEvent
 1952              		.syntax unified
 1953              		.thumb
 1954              		.thumb_func
 1956              	HAL_RTCEx_PollForWakeUpTimerEvent:
 1957              	.LVL131:
 1958              	.LFB148:
1169:Drivers/STM32F4xx_HAL_Driver/Src/stm32f4xx_hal_rtc_ex.c **** 
1170:Drivers/STM32F4xx_HAL_Driver/Src/stm32f4xx_hal_rtc_ex.c **** /**
1171:Drivers/STM32F4xx_HAL_Driver/Src/stm32f4xx_hal_rtc_ex.c ****   * @brief  Handles Wakeup Timer Polling.
1172:Drivers/STM32F4xx_HAL_Driver/Src/stm32f4xx_hal_rtc_ex.c ****   * @param  hrtc pointer to a RTC_HandleTypeDef structure that contains
1173:Drivers/STM32F4xx_HAL_Driver/Src/stm32f4xx_hal_rtc_ex.c ****   *                the configuration information for RTC.
1174:Drivers/STM32F4xx_HAL_Driver/Src/stm32f4xx_hal_rtc_ex.c ****   * @param  Timeout Timeout duration
1175:Drivers/STM32F4xx_HAL_Driver/Src/stm32f4xx_hal_rtc_ex.c ****   * @retval HAL status
1176:Drivers/STM32F4xx_HAL_Driver/Src/stm32f4xx_hal_rtc_ex.c ****   */
1177:Drivers/STM32F4xx_HAL_Driver/Src/stm32f4xx_hal_rtc_ex.c **** HAL_StatusTypeDef HAL_RTCEx_PollForWakeUpTimerEvent(RTC_HandleTypeDef *hrtc, uint32_t Timeout)
1178:Drivers/STM32F4xx_HAL_Driver/Src/stm32f4xx_hal_rtc_ex.c **** {
 1959              		.loc 1 1178 1 view -0
 1960              		.cfi_startproc
 1961              		@ args = 0, pretend = 0, frame = 0
 1962              		@ frame_needed = 0, uses_anonymous_args = 0
 1963              		.loc 1 1178 1 is_stmt 0 view .LVU684
 1964 0000 70B5     		push	{r4, r5, r6, lr}
 1965              		.cfi_def_cfa_offset 16
 1966              		.cfi_offset 4, -16
 1967              		.cfi_offset 5, -12
 1968              		.cfi_offset 6, -8
 1969              		.cfi_offset 14, -4
 1970 0002 0446     		mov	r4, r0
 1971 0004 0D46     		mov	r5, r1
1179:Drivers/STM32F4xx_HAL_Driver/Src/stm32f4xx_hal_rtc_ex.c ****   uint32_t tickstart = 0U;
 1972              		.loc 1 1179 3 is_stmt 1 view .LVU685
 1973              	.LVL132:
1180:Drivers/STM32F4xx_HAL_Driver/Src/stm32f4xx_hal_rtc_ex.c **** 
1181:Drivers/STM32F4xx_HAL_Driver/Src/stm32f4xx_hal_rtc_ex.c ****   /* Get tick */
1182:Drivers/STM32F4xx_HAL_Driver/Src/stm32f4xx_hal_rtc_ex.c ****   tickstart = HAL_GetTick();
 1974              		.loc 1 1182 3 view .LVU686
 1975              		.loc 1 1182 15 is_stmt 0 view .LVU687
ARM GAS  /tmp/cc8XWiN3.s 			page 58


 1976 0006 FFF7FEFF 		bl	HAL_GetTick
 1977              	.LVL133:
 1978              		.loc 1 1182 15 view .LVU688
 1979 000a 0646     		mov	r6, r0
 1980              	.LVL134:
1183:Drivers/STM32F4xx_HAL_Driver/Src/stm32f4xx_hal_rtc_ex.c **** 
1184:Drivers/STM32F4xx_HAL_Driver/Src/stm32f4xx_hal_rtc_ex.c ****   while (__HAL_RTC_WAKEUPTIMER_GET_FLAG(hrtc, RTC_FLAG_WUTF) == 0U)
 1981              		.loc 1 1184 3 is_stmt 1 view .LVU689
 1982              	.L120:
 1983              		.loc 1 1184 62 view .LVU690
 1984              		.loc 1 1184 10 is_stmt 0 view .LVU691
 1985 000c 2368     		ldr	r3, [r4]
 1986 000e DA68     		ldr	r2, [r3, #12]
 1987              		.loc 1 1184 62 view .LVU692
 1988 0010 12F4806F 		tst	r2, #1024
 1989 0014 0BD1     		bne	.L125
1185:Drivers/STM32F4xx_HAL_Driver/Src/stm32f4xx_hal_rtc_ex.c ****   {
1186:Drivers/STM32F4xx_HAL_Driver/Src/stm32f4xx_hal_rtc_ex.c ****     if (Timeout != HAL_MAX_DELAY)
 1990              		.loc 1 1186 5 is_stmt 1 view .LVU693
 1991              		.loc 1 1186 8 is_stmt 0 view .LVU694
 1992 0016 B5F1FF3F 		cmp	r5, #-1
 1993 001a F7D0     		beq	.L120
1187:Drivers/STM32F4xx_HAL_Driver/Src/stm32f4xx_hal_rtc_ex.c ****     {
1188:Drivers/STM32F4xx_HAL_Driver/Src/stm32f4xx_hal_rtc_ex.c ****       if ((Timeout == 0U) || ((HAL_GetTick() - tickstart) > Timeout))
 1994              		.loc 1 1188 7 is_stmt 1 view .LVU695
 1995              		.loc 1 1188 10 is_stmt 0 view .LVU696
 1996 001c 25B1     		cbz	r5, .L121
 1997              		.loc 1 1188 32 discriminator 1 view .LVU697
 1998 001e FFF7FEFF 		bl	HAL_GetTick
 1999              	.LVL135:
 2000              		.loc 1 1188 46 discriminator 1 view .LVU698
 2001 0022 801B     		subs	r0, r0, r6
 2002              		.loc 1 1188 27 discriminator 1 view .LVU699
 2003 0024 A842     		cmp	r0, r5
 2004 0026 F1D9     		bls	.L120
 2005              	.L121:
1189:Drivers/STM32F4xx_HAL_Driver/Src/stm32f4xx_hal_rtc_ex.c ****       {
1190:Drivers/STM32F4xx_HAL_Driver/Src/stm32f4xx_hal_rtc_ex.c ****         hrtc->State = HAL_RTC_STATE_TIMEOUT;
 2006              		.loc 1 1190 9 is_stmt 1 view .LVU700
 2007              		.loc 1 1190 21 is_stmt 0 view .LVU701
 2008 0028 0320     		movs	r0, #3
 2009 002a 6077     		strb	r0, [r4, #29]
1191:Drivers/STM32F4xx_HAL_Driver/Src/stm32f4xx_hal_rtc_ex.c ****         return HAL_TIMEOUT;
 2010              		.loc 1 1191 9 is_stmt 1 view .LVU702
 2011              		.loc 1 1191 16 is_stmt 0 view .LVU703
 2012 002c 07E0     		b	.L122
 2013              	.L125:
1192:Drivers/STM32F4xx_HAL_Driver/Src/stm32f4xx_hal_rtc_ex.c ****       }
1193:Drivers/STM32F4xx_HAL_Driver/Src/stm32f4xx_hal_rtc_ex.c ****     }
1194:Drivers/STM32F4xx_HAL_Driver/Src/stm32f4xx_hal_rtc_ex.c ****   }
1195:Drivers/STM32F4xx_HAL_Driver/Src/stm32f4xx_hal_rtc_ex.c **** 
1196:Drivers/STM32F4xx_HAL_Driver/Src/stm32f4xx_hal_rtc_ex.c ****   /* Clear the Wakeup timer Flag */
1197:Drivers/STM32F4xx_HAL_Driver/Src/stm32f4xx_hal_rtc_ex.c ****   __HAL_RTC_WAKEUPTIMER_CLEAR_FLAG(hrtc, RTC_FLAG_WUTF);
 2014              		.loc 1 1197 3 is_stmt 1 view .LVU704
 2015 002e DA68     		ldr	r2, [r3, #12]
 2016 0030 D2B2     		uxtb	r2, r2
 2017 0032 62F49062 		orn	r2, r2, #1152
ARM GAS  /tmp/cc8XWiN3.s 			page 59


 2018 0036 DA60     		str	r2, [r3, #12]
1198:Drivers/STM32F4xx_HAL_Driver/Src/stm32f4xx_hal_rtc_ex.c **** 
1199:Drivers/STM32F4xx_HAL_Driver/Src/stm32f4xx_hal_rtc_ex.c ****   /* Change RTC state */
1200:Drivers/STM32F4xx_HAL_Driver/Src/stm32f4xx_hal_rtc_ex.c ****   hrtc->State = HAL_RTC_STATE_READY;
 2019              		.loc 1 1200 3 view .LVU705
 2020              		.loc 1 1200 15 is_stmt 0 view .LVU706
 2021 0038 0123     		movs	r3, #1
 2022 003a 6377     		strb	r3, [r4, #29]
1201:Drivers/STM32F4xx_HAL_Driver/Src/stm32f4xx_hal_rtc_ex.c **** 
1202:Drivers/STM32F4xx_HAL_Driver/Src/stm32f4xx_hal_rtc_ex.c ****   return HAL_OK;
 2023              		.loc 1 1202 3 is_stmt 1 view .LVU707
 2024              		.loc 1 1202 10 is_stmt 0 view .LVU708
 2025 003c 0020     		movs	r0, #0
 2026              	.L122:
1203:Drivers/STM32F4xx_HAL_Driver/Src/stm32f4xx_hal_rtc_ex.c **** }
 2027              		.loc 1 1203 1 view .LVU709
 2028 003e 70BD     		pop	{r4, r5, r6, pc}
 2029              		.loc 1 1203 1 view .LVU710
 2030              		.cfi_endproc
 2031              	.LFE148:
 2033              		.section	.text.HAL_RTCEx_BKUPWrite,"ax",%progbits
 2034              		.align	1
 2035              		.global	HAL_RTCEx_BKUPWrite
 2036              		.syntax unified
 2037              		.thumb
 2038              		.thumb_func
 2040              	HAL_RTCEx_BKUPWrite:
 2041              	.LVL136:
 2042              	.LFB149:
1204:Drivers/STM32F4xx_HAL_Driver/Src/stm32f4xx_hal_rtc_ex.c **** 
1205:Drivers/STM32F4xx_HAL_Driver/Src/stm32f4xx_hal_rtc_ex.c **** /**
1206:Drivers/STM32F4xx_HAL_Driver/Src/stm32f4xx_hal_rtc_ex.c ****   * @}
1207:Drivers/STM32F4xx_HAL_Driver/Src/stm32f4xx_hal_rtc_ex.c ****   */
1208:Drivers/STM32F4xx_HAL_Driver/Src/stm32f4xx_hal_rtc_ex.c **** 
1209:Drivers/STM32F4xx_HAL_Driver/Src/stm32f4xx_hal_rtc_ex.c **** /** @defgroup RTCEx_Exported_Functions_Group3 Extended Peripheral Control functions
1210:Drivers/STM32F4xx_HAL_Driver/Src/stm32f4xx_hal_rtc_ex.c ****   * @brief    Extended Peripheral Control functions
1211:Drivers/STM32F4xx_HAL_Driver/Src/stm32f4xx_hal_rtc_ex.c ****   *
1212:Drivers/STM32F4xx_HAL_Driver/Src/stm32f4xx_hal_rtc_ex.c **** @verbatim
1213:Drivers/STM32F4xx_HAL_Driver/Src/stm32f4xx_hal_rtc_ex.c ****  ===============================================================================
1214:Drivers/STM32F4xx_HAL_Driver/Src/stm32f4xx_hal_rtc_ex.c ****               ##### Extended Peripheral Control functions #####
1215:Drivers/STM32F4xx_HAL_Driver/Src/stm32f4xx_hal_rtc_ex.c ****  ===============================================================================
1216:Drivers/STM32F4xx_HAL_Driver/Src/stm32f4xx_hal_rtc_ex.c ****     [..]
1217:Drivers/STM32F4xx_HAL_Driver/Src/stm32f4xx_hal_rtc_ex.c ****     This subsection provides functions allowing to
1218:Drivers/STM32F4xx_HAL_Driver/Src/stm32f4xx_hal_rtc_ex.c ****       (+) Write a data in a specified RTC Backup data register
1219:Drivers/STM32F4xx_HAL_Driver/Src/stm32f4xx_hal_rtc_ex.c ****       (+) Read a data in a specified RTC Backup data register
1220:Drivers/STM32F4xx_HAL_Driver/Src/stm32f4xx_hal_rtc_ex.c ****       (+) Set the Coarse calibration parameters.
1221:Drivers/STM32F4xx_HAL_Driver/Src/stm32f4xx_hal_rtc_ex.c ****       (+) Deactivate the Coarse calibration parameters
1222:Drivers/STM32F4xx_HAL_Driver/Src/stm32f4xx_hal_rtc_ex.c ****       (+) Set the Smooth calibration parameters.
1223:Drivers/STM32F4xx_HAL_Driver/Src/stm32f4xx_hal_rtc_ex.c ****       (+) Configure the Synchronization Shift Control Settings.
1224:Drivers/STM32F4xx_HAL_Driver/Src/stm32f4xx_hal_rtc_ex.c ****       (+) Configure the Calibration Pinout (RTC_CALIB) Selection (1Hz or 512Hz).
1225:Drivers/STM32F4xx_HAL_Driver/Src/stm32f4xx_hal_rtc_ex.c ****       (+) Deactivate the Calibration Pinout (RTC_CALIB) Selection (1Hz or 512Hz).
1226:Drivers/STM32F4xx_HAL_Driver/Src/stm32f4xx_hal_rtc_ex.c ****       (+) Enable the RTC reference clock detection.
1227:Drivers/STM32F4xx_HAL_Driver/Src/stm32f4xx_hal_rtc_ex.c ****       (+) Disable the RTC reference clock detection.
1228:Drivers/STM32F4xx_HAL_Driver/Src/stm32f4xx_hal_rtc_ex.c ****       (+) Enable the Bypass Shadow feature.
1229:Drivers/STM32F4xx_HAL_Driver/Src/stm32f4xx_hal_rtc_ex.c ****       (+) Disable the Bypass Shadow feature.
1230:Drivers/STM32F4xx_HAL_Driver/Src/stm32f4xx_hal_rtc_ex.c **** 
1231:Drivers/STM32F4xx_HAL_Driver/Src/stm32f4xx_hal_rtc_ex.c **** @endverbatim
ARM GAS  /tmp/cc8XWiN3.s 			page 60


1232:Drivers/STM32F4xx_HAL_Driver/Src/stm32f4xx_hal_rtc_ex.c ****   * @{
1233:Drivers/STM32F4xx_HAL_Driver/Src/stm32f4xx_hal_rtc_ex.c ****   */
1234:Drivers/STM32F4xx_HAL_Driver/Src/stm32f4xx_hal_rtc_ex.c **** 
1235:Drivers/STM32F4xx_HAL_Driver/Src/stm32f4xx_hal_rtc_ex.c **** /**
1236:Drivers/STM32F4xx_HAL_Driver/Src/stm32f4xx_hal_rtc_ex.c ****   * @brief  Writes a data in a specified RTC Backup data register.
1237:Drivers/STM32F4xx_HAL_Driver/Src/stm32f4xx_hal_rtc_ex.c ****   * @param  hrtc pointer to a RTC_HandleTypeDef structure that contains
1238:Drivers/STM32F4xx_HAL_Driver/Src/stm32f4xx_hal_rtc_ex.c ****   *                the configuration information for RTC.
1239:Drivers/STM32F4xx_HAL_Driver/Src/stm32f4xx_hal_rtc_ex.c ****   * @param  BackupRegister RTC Backup data Register number.
1240:Drivers/STM32F4xx_HAL_Driver/Src/stm32f4xx_hal_rtc_ex.c ****   *          This parameter can be: RTC_BKP_DRx (where x can be from 0 to 19)
1241:Drivers/STM32F4xx_HAL_Driver/Src/stm32f4xx_hal_rtc_ex.c ****   *                                 to specify the register.
1242:Drivers/STM32F4xx_HAL_Driver/Src/stm32f4xx_hal_rtc_ex.c ****   * @param  Data Data to be written in the specified RTC Backup data register.
1243:Drivers/STM32F4xx_HAL_Driver/Src/stm32f4xx_hal_rtc_ex.c ****   * @retval None
1244:Drivers/STM32F4xx_HAL_Driver/Src/stm32f4xx_hal_rtc_ex.c ****   */
1245:Drivers/STM32F4xx_HAL_Driver/Src/stm32f4xx_hal_rtc_ex.c **** void HAL_RTCEx_BKUPWrite(RTC_HandleTypeDef *hrtc, uint32_t BackupRegister, uint32_t Data)
1246:Drivers/STM32F4xx_HAL_Driver/Src/stm32f4xx_hal_rtc_ex.c **** {
 2043              		.loc 1 1246 1 is_stmt 1 view -0
 2044              		.cfi_startproc
 2045              		@ args = 0, pretend = 0, frame = 0
 2046              		@ frame_needed = 0, uses_anonymous_args = 0
 2047              		@ link register save eliminated.
1247:Drivers/STM32F4xx_HAL_Driver/Src/stm32f4xx_hal_rtc_ex.c ****   uint32_t tmp = 0U;
 2048              		.loc 1 1247 3 view .LVU712
1248:Drivers/STM32F4xx_HAL_Driver/Src/stm32f4xx_hal_rtc_ex.c **** 
1249:Drivers/STM32F4xx_HAL_Driver/Src/stm32f4xx_hal_rtc_ex.c ****   /* Check the parameters */
1250:Drivers/STM32F4xx_HAL_Driver/Src/stm32f4xx_hal_rtc_ex.c ****   assert_param(IS_RTC_BKP(BackupRegister));
 2049              		.loc 1 1250 3 view .LVU713
1251:Drivers/STM32F4xx_HAL_Driver/Src/stm32f4xx_hal_rtc_ex.c **** 
1252:Drivers/STM32F4xx_HAL_Driver/Src/stm32f4xx_hal_rtc_ex.c ****   tmp = (uint32_t) & (hrtc->Instance->BKP0R);
 2050              		.loc 1 1252 3 view .LVU714
 2051              		.loc 1 1252 27 is_stmt 0 view .LVU715
 2052 0000 0368     		ldr	r3, [r0]
 2053              		.loc 1 1252 20 view .LVU716
 2054 0002 5033     		adds	r3, r3, #80
 2055              	.LVL137:
1253:Drivers/STM32F4xx_HAL_Driver/Src/stm32f4xx_hal_rtc_ex.c ****   tmp += (BackupRegister * 4U);
 2056              		.loc 1 1253 3 is_stmt 1 view .LVU717
1254:Drivers/STM32F4xx_HAL_Driver/Src/stm32f4xx_hal_rtc_ex.c **** 
1255:Drivers/STM32F4xx_HAL_Driver/Src/stm32f4xx_hal_rtc_ex.c ****   /* Write the specified register */
1256:Drivers/STM32F4xx_HAL_Driver/Src/stm32f4xx_hal_rtc_ex.c ****   *(__IO uint32_t *)tmp = (uint32_t)Data;
 2057              		.loc 1 1256 3 view .LVU718
 2058              		.loc 1 1256 25 is_stmt 0 view .LVU719
 2059 0004 43F82120 		str	r2, [r3, r1, lsl #2]
1257:Drivers/STM32F4xx_HAL_Driver/Src/stm32f4xx_hal_rtc_ex.c **** }
 2060              		.loc 1 1257 1 view .LVU720
 2061 0008 7047     		bx	lr
 2062              		.cfi_endproc
 2063              	.LFE149:
 2065              		.section	.text.HAL_RTCEx_BKUPRead,"ax",%progbits
 2066              		.align	1
 2067              		.global	HAL_RTCEx_BKUPRead
 2068              		.syntax unified
 2069              		.thumb
 2070              		.thumb_func
 2072              	HAL_RTCEx_BKUPRead:
 2073              	.LVL138:
 2074              	.LFB150:
1258:Drivers/STM32F4xx_HAL_Driver/Src/stm32f4xx_hal_rtc_ex.c **** 
ARM GAS  /tmp/cc8XWiN3.s 			page 61


1259:Drivers/STM32F4xx_HAL_Driver/Src/stm32f4xx_hal_rtc_ex.c **** /**
1260:Drivers/STM32F4xx_HAL_Driver/Src/stm32f4xx_hal_rtc_ex.c ****   * @brief  Reads data from the specified RTC Backup data Register.
1261:Drivers/STM32F4xx_HAL_Driver/Src/stm32f4xx_hal_rtc_ex.c ****   * @param  hrtc pointer to a RTC_HandleTypeDef structure that contains
1262:Drivers/STM32F4xx_HAL_Driver/Src/stm32f4xx_hal_rtc_ex.c ****   *                the configuration information for RTC.
1263:Drivers/STM32F4xx_HAL_Driver/Src/stm32f4xx_hal_rtc_ex.c ****   * @param  BackupRegister RTC Backup data Register number.
1264:Drivers/STM32F4xx_HAL_Driver/Src/stm32f4xx_hal_rtc_ex.c ****   *          This parameter can be: RTC_BKP_DRx (where x can be from 0 to 19)
1265:Drivers/STM32F4xx_HAL_Driver/Src/stm32f4xx_hal_rtc_ex.c ****   *                                 to specify the register.
1266:Drivers/STM32F4xx_HAL_Driver/Src/stm32f4xx_hal_rtc_ex.c ****   * @retval Read value
1267:Drivers/STM32F4xx_HAL_Driver/Src/stm32f4xx_hal_rtc_ex.c ****   */
1268:Drivers/STM32F4xx_HAL_Driver/Src/stm32f4xx_hal_rtc_ex.c **** uint32_t HAL_RTCEx_BKUPRead(RTC_HandleTypeDef *hrtc, uint32_t BackupRegister)
1269:Drivers/STM32F4xx_HAL_Driver/Src/stm32f4xx_hal_rtc_ex.c **** {
 2075              		.loc 1 1269 1 is_stmt 1 view -0
 2076              		.cfi_startproc
 2077              		@ args = 0, pretend = 0, frame = 0
 2078              		@ frame_needed = 0, uses_anonymous_args = 0
 2079              		@ link register save eliminated.
1270:Drivers/STM32F4xx_HAL_Driver/Src/stm32f4xx_hal_rtc_ex.c ****   uint32_t tmp = 0U;
 2080              		.loc 1 1270 3 view .LVU722
1271:Drivers/STM32F4xx_HAL_Driver/Src/stm32f4xx_hal_rtc_ex.c **** 
1272:Drivers/STM32F4xx_HAL_Driver/Src/stm32f4xx_hal_rtc_ex.c ****   /* Check the parameters */
1273:Drivers/STM32F4xx_HAL_Driver/Src/stm32f4xx_hal_rtc_ex.c ****   assert_param(IS_RTC_BKP(BackupRegister));
 2081              		.loc 1 1273 3 view .LVU723
1274:Drivers/STM32F4xx_HAL_Driver/Src/stm32f4xx_hal_rtc_ex.c **** 
1275:Drivers/STM32F4xx_HAL_Driver/Src/stm32f4xx_hal_rtc_ex.c ****   tmp = (uint32_t) & (hrtc->Instance->BKP0R);
 2082              		.loc 1 1275 3 view .LVU724
 2083              		.loc 1 1275 27 is_stmt 0 view .LVU725
 2084 0000 0368     		ldr	r3, [r0]
 2085              		.loc 1 1275 20 view .LVU726
 2086 0002 5033     		adds	r3, r3, #80
 2087              	.LVL139:
1276:Drivers/STM32F4xx_HAL_Driver/Src/stm32f4xx_hal_rtc_ex.c ****   tmp += (BackupRegister * 4U);
 2088              		.loc 1 1276 3 is_stmt 1 view .LVU727
1277:Drivers/STM32F4xx_HAL_Driver/Src/stm32f4xx_hal_rtc_ex.c **** 
1278:Drivers/STM32F4xx_HAL_Driver/Src/stm32f4xx_hal_rtc_ex.c ****   /* Read the specified register */
1279:Drivers/STM32F4xx_HAL_Driver/Src/stm32f4xx_hal_rtc_ex.c ****   return (*(__IO uint32_t *)tmp);
 2089              		.loc 1 1279 3 view .LVU728
 2090              		.loc 1 1279 11 is_stmt 0 view .LVU729
 2091 0004 53F82100 		ldr	r0, [r3, r1, lsl #2]
 2092              	.LVL140:
1280:Drivers/STM32F4xx_HAL_Driver/Src/stm32f4xx_hal_rtc_ex.c **** }
 2093              		.loc 1 1280 1 view .LVU730
 2094 0008 7047     		bx	lr
 2095              		.cfi_endproc
 2096              	.LFE150:
 2098              		.section	.text.HAL_RTCEx_SetCoarseCalib,"ax",%progbits
 2099              		.align	1
 2100              		.global	HAL_RTCEx_SetCoarseCalib
 2101              		.syntax unified
 2102              		.thumb
 2103              		.thumb_func
 2105              	HAL_RTCEx_SetCoarseCalib:
 2106              	.LVL141:
 2107              	.LFB151:
1281:Drivers/STM32F4xx_HAL_Driver/Src/stm32f4xx_hal_rtc_ex.c **** 
1282:Drivers/STM32F4xx_HAL_Driver/Src/stm32f4xx_hal_rtc_ex.c **** /**
1283:Drivers/STM32F4xx_HAL_Driver/Src/stm32f4xx_hal_rtc_ex.c ****   * @brief  Sets the Coarse calibration parameters.
1284:Drivers/STM32F4xx_HAL_Driver/Src/stm32f4xx_hal_rtc_ex.c ****   * @param  hrtc pointer to a RTC_HandleTypeDef structure that contains
ARM GAS  /tmp/cc8XWiN3.s 			page 62


1285:Drivers/STM32F4xx_HAL_Driver/Src/stm32f4xx_hal_rtc_ex.c ****   *                the configuration information for RTC.
1286:Drivers/STM32F4xx_HAL_Driver/Src/stm32f4xx_hal_rtc_ex.c ****   * @param  CalibSign Specifies the sign of the coarse calibration value.
1287:Drivers/STM32F4xx_HAL_Driver/Src/stm32f4xx_hal_rtc_ex.c ****   *          This parameter can be  one of the following values:
1288:Drivers/STM32F4xx_HAL_Driver/Src/stm32f4xx_hal_rtc_ex.c ****   *             @arg RTC_CALIBSIGN_POSITIVE: The value sign is positive
1289:Drivers/STM32F4xx_HAL_Driver/Src/stm32f4xx_hal_rtc_ex.c ****   *             @arg RTC_CALIBSIGN_NEGATIVE: The value sign is negative
1290:Drivers/STM32F4xx_HAL_Driver/Src/stm32f4xx_hal_rtc_ex.c ****   * @param  Value value of coarse calibration expressed in ppm (coded on 5 bits).
1291:Drivers/STM32F4xx_HAL_Driver/Src/stm32f4xx_hal_rtc_ex.c ****   *
1292:Drivers/STM32F4xx_HAL_Driver/Src/stm32f4xx_hal_rtc_ex.c ****   * @note   This Calibration value should be between 0 and 63 when using negative
1293:Drivers/STM32F4xx_HAL_Driver/Src/stm32f4xx_hal_rtc_ex.c ****   *         sign with a 2-ppm step.
1294:Drivers/STM32F4xx_HAL_Driver/Src/stm32f4xx_hal_rtc_ex.c ****   *
1295:Drivers/STM32F4xx_HAL_Driver/Src/stm32f4xx_hal_rtc_ex.c ****   * @note   This Calibration value should be between 0 and 126 when using positive
1296:Drivers/STM32F4xx_HAL_Driver/Src/stm32f4xx_hal_rtc_ex.c ****   *         sign with a 4-ppm step.
1297:Drivers/STM32F4xx_HAL_Driver/Src/stm32f4xx_hal_rtc_ex.c ****   * @retval HAL status
1298:Drivers/STM32F4xx_HAL_Driver/Src/stm32f4xx_hal_rtc_ex.c ****   */
1299:Drivers/STM32F4xx_HAL_Driver/Src/stm32f4xx_hal_rtc_ex.c **** HAL_StatusTypeDef HAL_RTCEx_SetCoarseCalib(RTC_HandleTypeDef *hrtc, uint32_t CalibSign, uint32_t Va
1300:Drivers/STM32F4xx_HAL_Driver/Src/stm32f4xx_hal_rtc_ex.c **** {
 2108              		.loc 1 1300 1 is_stmt 1 view -0
 2109              		.cfi_startproc
 2110              		@ args = 0, pretend = 0, frame = 0
 2111              		@ frame_needed = 0, uses_anonymous_args = 0
1301:Drivers/STM32F4xx_HAL_Driver/Src/stm32f4xx_hal_rtc_ex.c ****   HAL_StatusTypeDef status;
 2112              		.loc 1 1301 3 view .LVU732
1302:Drivers/STM32F4xx_HAL_Driver/Src/stm32f4xx_hal_rtc_ex.c **** 
1303:Drivers/STM32F4xx_HAL_Driver/Src/stm32f4xx_hal_rtc_ex.c ****   /* Check the parameters */
1304:Drivers/STM32F4xx_HAL_Driver/Src/stm32f4xx_hal_rtc_ex.c ****   assert_param(IS_RTC_CALIB_SIGN(CalibSign));
 2113              		.loc 1 1304 3 view .LVU733
1305:Drivers/STM32F4xx_HAL_Driver/Src/stm32f4xx_hal_rtc_ex.c ****   assert_param(IS_RTC_CALIB_VALUE(Value));
 2114              		.loc 1 1305 3 view .LVU734
1306:Drivers/STM32F4xx_HAL_Driver/Src/stm32f4xx_hal_rtc_ex.c **** 
1307:Drivers/STM32F4xx_HAL_Driver/Src/stm32f4xx_hal_rtc_ex.c ****   /* Process Locked */
1308:Drivers/STM32F4xx_HAL_Driver/Src/stm32f4xx_hal_rtc_ex.c ****   __HAL_LOCK(hrtc);
 2115              		.loc 1 1308 3 view .LVU735
 2116              		.loc 1 1308 3 view .LVU736
 2117 0000 037F     		ldrb	r3, [r0, #28]	@ zero_extendqisi2
 2118 0002 012B     		cmp	r3, #1
 2119 0004 26D0     		beq	.L131
1300:Drivers/STM32F4xx_HAL_Driver/Src/stm32f4xx_hal_rtc_ex.c ****   HAL_StatusTypeDef status;
 2120              		.loc 1 1300 1 is_stmt 0 view .LVU737
 2121 0006 70B5     		push	{r4, r5, r6, lr}
 2122              		.cfi_def_cfa_offset 16
 2123              		.cfi_offset 4, -16
 2124              		.cfi_offset 5, -12
 2125              		.cfi_offset 6, -8
 2126              		.cfi_offset 14, -4
 2127 0008 0446     		mov	r4, r0
 2128 000a 0E46     		mov	r6, r1
 2129 000c 1546     		mov	r5, r2
 2130              		.loc 1 1308 3 is_stmt 1 discriminator 2 view .LVU738
 2131 000e 0123     		movs	r3, #1
 2132 0010 0377     		strb	r3, [r0, #28]
 2133              		.loc 1 1308 3 view .LVU739
1309:Drivers/STM32F4xx_HAL_Driver/Src/stm32f4xx_hal_rtc_ex.c **** 
1310:Drivers/STM32F4xx_HAL_Driver/Src/stm32f4xx_hal_rtc_ex.c ****   hrtc->State = HAL_RTC_STATE_BUSY;
 2134              		.loc 1 1310 3 view .LVU740
 2135              		.loc 1 1310 15 is_stmt 0 view .LVU741
 2136 0012 0223     		movs	r3, #2
 2137 0014 4377     		strb	r3, [r0, #29]
ARM GAS  /tmp/cc8XWiN3.s 			page 63


1311:Drivers/STM32F4xx_HAL_Driver/Src/stm32f4xx_hal_rtc_ex.c **** 
1312:Drivers/STM32F4xx_HAL_Driver/Src/stm32f4xx_hal_rtc_ex.c ****   /* Disable the write protection for RTC registers */
1313:Drivers/STM32F4xx_HAL_Driver/Src/stm32f4xx_hal_rtc_ex.c ****   __HAL_RTC_WRITEPROTECTION_DISABLE(hrtc);
 2138              		.loc 1 1313 3 is_stmt 1 view .LVU742
 2139              		.loc 1 1313 3 view .LVU743
 2140 0016 0368     		ldr	r3, [r0]
 2141 0018 CA22     		movs	r2, #202
 2142              	.LVL142:
 2143              		.loc 1 1313 3 is_stmt 0 view .LVU744
 2144 001a 5A62     		str	r2, [r3, #36]
 2145              		.loc 1 1313 3 is_stmt 1 view .LVU745
 2146 001c 0368     		ldr	r3, [r0]
 2147 001e 5322     		movs	r2, #83
 2148 0020 5A62     		str	r2, [r3, #36]
 2149              		.loc 1 1313 3 view .LVU746
1314:Drivers/STM32F4xx_HAL_Driver/Src/stm32f4xx_hal_rtc_ex.c **** 
1315:Drivers/STM32F4xx_HAL_Driver/Src/stm32f4xx_hal_rtc_ex.c ****   /* Enter Initialization mode */
1316:Drivers/STM32F4xx_HAL_Driver/Src/stm32f4xx_hal_rtc_ex.c ****   status = RTC_EnterInitMode(hrtc);
 2150              		.loc 1 1316 3 view .LVU747
 2151              		.loc 1 1316 12 is_stmt 0 view .LVU748
 2152 0022 FFF7FEFF 		bl	RTC_EnterInitMode
 2153              	.LVL143:
1317:Drivers/STM32F4xx_HAL_Driver/Src/stm32f4xx_hal_rtc_ex.c **** 
1318:Drivers/STM32F4xx_HAL_Driver/Src/stm32f4xx_hal_rtc_ex.c ****   if (status == HAL_OK)
 2154              		.loc 1 1318 3 is_stmt 1 view .LVU749
 2155              		.loc 1 1318 6 is_stmt 0 view .LVU750
 2156 0026 28B1     		cbz	r0, .L136
 2157              	.LVL144:
 2158              	.L130:
1319:Drivers/STM32F4xx_HAL_Driver/Src/stm32f4xx_hal_rtc_ex.c ****   {
1320:Drivers/STM32F4xx_HAL_Driver/Src/stm32f4xx_hal_rtc_ex.c ****     /* Enable the Coarse Calibration */
1321:Drivers/STM32F4xx_HAL_Driver/Src/stm32f4xx_hal_rtc_ex.c ****     __HAL_RTC_COARSE_CALIB_ENABLE(hrtc);
1322:Drivers/STM32F4xx_HAL_Driver/Src/stm32f4xx_hal_rtc_ex.c **** 
1323:Drivers/STM32F4xx_HAL_Driver/Src/stm32f4xx_hal_rtc_ex.c ****     /* Set the coarse calibration value */
1324:Drivers/STM32F4xx_HAL_Driver/Src/stm32f4xx_hal_rtc_ex.c ****     hrtc->Instance->CALIBR = (uint32_t)(CalibSign | Value);
1325:Drivers/STM32F4xx_HAL_Driver/Src/stm32f4xx_hal_rtc_ex.c **** 
1326:Drivers/STM32F4xx_HAL_Driver/Src/stm32f4xx_hal_rtc_ex.c ****     /* Exit Initialization mode */
1327:Drivers/STM32F4xx_HAL_Driver/Src/stm32f4xx_hal_rtc_ex.c ****     status = RTC_ExitInitMode(hrtc);
1328:Drivers/STM32F4xx_HAL_Driver/Src/stm32f4xx_hal_rtc_ex.c ****   }
1329:Drivers/STM32F4xx_HAL_Driver/Src/stm32f4xx_hal_rtc_ex.c **** 
1330:Drivers/STM32F4xx_HAL_Driver/Src/stm32f4xx_hal_rtc_ex.c ****   if (status == HAL_OK)
1331:Drivers/STM32F4xx_HAL_Driver/Src/stm32f4xx_hal_rtc_ex.c ****   {
1332:Drivers/STM32F4xx_HAL_Driver/Src/stm32f4xx_hal_rtc_ex.c ****     hrtc->State = HAL_RTC_STATE_READY;
1333:Drivers/STM32F4xx_HAL_Driver/Src/stm32f4xx_hal_rtc_ex.c ****   }
1334:Drivers/STM32F4xx_HAL_Driver/Src/stm32f4xx_hal_rtc_ex.c **** 
1335:Drivers/STM32F4xx_HAL_Driver/Src/stm32f4xx_hal_rtc_ex.c ****   /* Enable the write protection for RTC registers */
1336:Drivers/STM32F4xx_HAL_Driver/Src/stm32f4xx_hal_rtc_ex.c ****   __HAL_RTC_WRITEPROTECTION_ENABLE(hrtc);
 2159              		.loc 1 1336 3 is_stmt 1 view .LVU751
 2160              		.loc 1 1336 3 view .LVU752
 2161 0028 2368     		ldr	r3, [r4]
 2162 002a FF22     		movs	r2, #255
 2163 002c 5A62     		str	r2, [r3, #36]
 2164              		.loc 1 1336 3 view .LVU753
1337:Drivers/STM32F4xx_HAL_Driver/Src/stm32f4xx_hal_rtc_ex.c **** 
1338:Drivers/STM32F4xx_HAL_Driver/Src/stm32f4xx_hal_rtc_ex.c ****   /* Process Unlocked */
1339:Drivers/STM32F4xx_HAL_Driver/Src/stm32f4xx_hal_rtc_ex.c ****   __HAL_UNLOCK(hrtc);
 2165              		.loc 1 1339 3 view .LVU754
ARM GAS  /tmp/cc8XWiN3.s 			page 64


 2166              		.loc 1 1339 3 view .LVU755
 2167 002e 0023     		movs	r3, #0
 2168 0030 2377     		strb	r3, [r4, #28]
 2169              		.loc 1 1339 3 view .LVU756
1340:Drivers/STM32F4xx_HAL_Driver/Src/stm32f4xx_hal_rtc_ex.c **** 
1341:Drivers/STM32F4xx_HAL_Driver/Src/stm32f4xx_hal_rtc_ex.c ****   return status;
 2170              		.loc 1 1341 3 view .LVU757
1342:Drivers/STM32F4xx_HAL_Driver/Src/stm32f4xx_hal_rtc_ex.c **** }
 2171              		.loc 1 1342 1 is_stmt 0 view .LVU758
 2172 0032 70BD     		pop	{r4, r5, r6, pc}
 2173              	.LVL145:
 2174              	.L136:
1321:Drivers/STM32F4xx_HAL_Driver/Src/stm32f4xx_hal_rtc_ex.c **** 
 2175              		.loc 1 1321 5 is_stmt 1 view .LVU759
 2176 0034 2268     		ldr	r2, [r4]
 2177 0036 9368     		ldr	r3, [r2, #8]
 2178 0038 43F08003 		orr	r3, r3, #128
 2179 003c 9360     		str	r3, [r2, #8]
1324:Drivers/STM32F4xx_HAL_Driver/Src/stm32f4xx_hal_rtc_ex.c **** 
 2180              		.loc 1 1324 5 view .LVU760
1324:Drivers/STM32F4xx_HAL_Driver/Src/stm32f4xx_hal_rtc_ex.c **** 
 2181              		.loc 1 1324 9 is_stmt 0 view .LVU761
 2182 003e 2368     		ldr	r3, [r4]
1324:Drivers/STM32F4xx_HAL_Driver/Src/stm32f4xx_hal_rtc_ex.c **** 
 2183              		.loc 1 1324 51 view .LVU762
 2184 0040 3543     		orrs	r5, r5, r6
 2185              	.LVL146:
1324:Drivers/STM32F4xx_HAL_Driver/Src/stm32f4xx_hal_rtc_ex.c **** 
 2186              		.loc 1 1324 28 view .LVU763
 2187 0042 9D61     		str	r5, [r3, #24]
1327:Drivers/STM32F4xx_HAL_Driver/Src/stm32f4xx_hal_rtc_ex.c ****   }
 2188              		.loc 1 1327 5 is_stmt 1 view .LVU764
1327:Drivers/STM32F4xx_HAL_Driver/Src/stm32f4xx_hal_rtc_ex.c ****   }
 2189              		.loc 1 1327 14 is_stmt 0 view .LVU765
 2190 0044 2046     		mov	r0, r4
 2191              	.LVL147:
1327:Drivers/STM32F4xx_HAL_Driver/Src/stm32f4xx_hal_rtc_ex.c ****   }
 2192              		.loc 1 1327 14 view .LVU766
 2193 0046 FFF7FEFF 		bl	RTC_ExitInitMode
 2194              	.LVL148:
1330:Drivers/STM32F4xx_HAL_Driver/Src/stm32f4xx_hal_rtc_ex.c ****   {
 2195              		.loc 1 1330 3 is_stmt 1 view .LVU767
1330:Drivers/STM32F4xx_HAL_Driver/Src/stm32f4xx_hal_rtc_ex.c ****   {
 2196              		.loc 1 1330 6 is_stmt 0 view .LVU768
 2197 004a 0028     		cmp	r0, #0
 2198 004c ECD1     		bne	.L130
1332:Drivers/STM32F4xx_HAL_Driver/Src/stm32f4xx_hal_rtc_ex.c ****   }
 2199              		.loc 1 1332 5 is_stmt 1 view .LVU769
1332:Drivers/STM32F4xx_HAL_Driver/Src/stm32f4xx_hal_rtc_ex.c ****   }
 2200              		.loc 1 1332 17 is_stmt 0 view .LVU770
 2201 004e 0123     		movs	r3, #1
 2202 0050 6377     		strb	r3, [r4, #29]
 2203 0052 E9E7     		b	.L130
 2204              	.LVL149:
 2205              	.L131:
 2206              		.cfi_def_cfa_offset 0
 2207              		.cfi_restore 4
ARM GAS  /tmp/cc8XWiN3.s 			page 65


 2208              		.cfi_restore 5
 2209              		.cfi_restore 6
 2210              		.cfi_restore 14
1308:Drivers/STM32F4xx_HAL_Driver/Src/stm32f4xx_hal_rtc_ex.c **** 
 2211              		.loc 1 1308 3 discriminator 1 view .LVU771
 2212 0054 0220     		movs	r0, #2
 2213              	.LVL150:
 2214              		.loc 1 1342 1 view .LVU772
 2215 0056 7047     		bx	lr
 2216              		.cfi_endproc
 2217              	.LFE151:
 2219              		.section	.text.HAL_RTCEx_DeactivateCoarseCalib,"ax",%progbits
 2220              		.align	1
 2221              		.global	HAL_RTCEx_DeactivateCoarseCalib
 2222              		.syntax unified
 2223              		.thumb
 2224              		.thumb_func
 2226              	HAL_RTCEx_DeactivateCoarseCalib:
 2227              	.LVL151:
 2228              	.LFB152:
1343:Drivers/STM32F4xx_HAL_Driver/Src/stm32f4xx_hal_rtc_ex.c **** 
1344:Drivers/STM32F4xx_HAL_Driver/Src/stm32f4xx_hal_rtc_ex.c **** /**
1345:Drivers/STM32F4xx_HAL_Driver/Src/stm32f4xx_hal_rtc_ex.c ****   * @brief  Deactivates the Coarse calibration parameters.
1346:Drivers/STM32F4xx_HAL_Driver/Src/stm32f4xx_hal_rtc_ex.c ****   * @param  hrtc pointer to a RTC_HandleTypeDef structure that contains
1347:Drivers/STM32F4xx_HAL_Driver/Src/stm32f4xx_hal_rtc_ex.c ****   *                the configuration information for RTC.
1348:Drivers/STM32F4xx_HAL_Driver/Src/stm32f4xx_hal_rtc_ex.c ****   * @retval HAL status
1349:Drivers/STM32F4xx_HAL_Driver/Src/stm32f4xx_hal_rtc_ex.c ****   */
1350:Drivers/STM32F4xx_HAL_Driver/Src/stm32f4xx_hal_rtc_ex.c **** HAL_StatusTypeDef HAL_RTCEx_DeactivateCoarseCalib(RTC_HandleTypeDef *hrtc)
1351:Drivers/STM32F4xx_HAL_Driver/Src/stm32f4xx_hal_rtc_ex.c **** {
 2229              		.loc 1 1351 1 is_stmt 1 view -0
 2230              		.cfi_startproc
 2231              		@ args = 0, pretend = 0, frame = 0
 2232              		@ frame_needed = 0, uses_anonymous_args = 0
1352:Drivers/STM32F4xx_HAL_Driver/Src/stm32f4xx_hal_rtc_ex.c ****   HAL_StatusTypeDef status;
 2233              		.loc 1 1352 3 view .LVU774
1353:Drivers/STM32F4xx_HAL_Driver/Src/stm32f4xx_hal_rtc_ex.c **** 
1354:Drivers/STM32F4xx_HAL_Driver/Src/stm32f4xx_hal_rtc_ex.c ****   /* Process Locked */
1355:Drivers/STM32F4xx_HAL_Driver/Src/stm32f4xx_hal_rtc_ex.c ****   __HAL_LOCK(hrtc);
 2234              		.loc 1 1355 3 view .LVU775
 2235              		.loc 1 1355 3 view .LVU776
 2236 0000 037F     		ldrb	r3, [r0, #28]	@ zero_extendqisi2
 2237 0002 012B     		cmp	r3, #1
 2238 0004 21D0     		beq	.L140
1351:Drivers/STM32F4xx_HAL_Driver/Src/stm32f4xx_hal_rtc_ex.c ****   HAL_StatusTypeDef status;
 2239              		.loc 1 1351 1 is_stmt 0 view .LVU777
 2240 0006 10B5     		push	{r4, lr}
 2241              		.cfi_def_cfa_offset 8
 2242              		.cfi_offset 4, -8
 2243              		.cfi_offset 14, -4
 2244 0008 0446     		mov	r4, r0
 2245              		.loc 1 1355 3 is_stmt 1 discriminator 2 view .LVU778
 2246 000a 0123     		movs	r3, #1
 2247 000c 0377     		strb	r3, [r0, #28]
 2248              		.loc 1 1355 3 view .LVU779
1356:Drivers/STM32F4xx_HAL_Driver/Src/stm32f4xx_hal_rtc_ex.c **** 
1357:Drivers/STM32F4xx_HAL_Driver/Src/stm32f4xx_hal_rtc_ex.c ****   hrtc->State = HAL_RTC_STATE_BUSY;
 2249              		.loc 1 1357 3 view .LVU780
ARM GAS  /tmp/cc8XWiN3.s 			page 66


 2250              		.loc 1 1357 15 is_stmt 0 view .LVU781
 2251 000e 0223     		movs	r3, #2
 2252 0010 4377     		strb	r3, [r0, #29]
1358:Drivers/STM32F4xx_HAL_Driver/Src/stm32f4xx_hal_rtc_ex.c **** 
1359:Drivers/STM32F4xx_HAL_Driver/Src/stm32f4xx_hal_rtc_ex.c ****   /* Disable the write protection for RTC registers */
1360:Drivers/STM32F4xx_HAL_Driver/Src/stm32f4xx_hal_rtc_ex.c ****   __HAL_RTC_WRITEPROTECTION_DISABLE(hrtc);
 2253              		.loc 1 1360 3 is_stmt 1 view .LVU782
 2254              		.loc 1 1360 3 view .LVU783
 2255 0012 0368     		ldr	r3, [r0]
 2256 0014 CA22     		movs	r2, #202
 2257 0016 5A62     		str	r2, [r3, #36]
 2258              		.loc 1 1360 3 view .LVU784
 2259 0018 0368     		ldr	r3, [r0]
 2260 001a 5322     		movs	r2, #83
 2261 001c 5A62     		str	r2, [r3, #36]
 2262              		.loc 1 1360 3 view .LVU785
1361:Drivers/STM32F4xx_HAL_Driver/Src/stm32f4xx_hal_rtc_ex.c **** 
1362:Drivers/STM32F4xx_HAL_Driver/Src/stm32f4xx_hal_rtc_ex.c ****   /* Enter Initialization mode */
1363:Drivers/STM32F4xx_HAL_Driver/Src/stm32f4xx_hal_rtc_ex.c ****   status = RTC_EnterInitMode(hrtc);
 2263              		.loc 1 1363 3 view .LVU786
 2264              		.loc 1 1363 12 is_stmt 0 view .LVU787
 2265 001e FFF7FEFF 		bl	RTC_EnterInitMode
 2266              	.LVL152:
1364:Drivers/STM32F4xx_HAL_Driver/Src/stm32f4xx_hal_rtc_ex.c **** 
1365:Drivers/STM32F4xx_HAL_Driver/Src/stm32f4xx_hal_rtc_ex.c ****   if (status == HAL_OK)
 2267              		.loc 1 1365 3 is_stmt 1 view .LVU788
 2268              		.loc 1 1365 6 is_stmt 0 view .LVU789
 2269 0022 28B1     		cbz	r0, .L145
 2270              	.L139:
 2271              	.LVL153:
1366:Drivers/STM32F4xx_HAL_Driver/Src/stm32f4xx_hal_rtc_ex.c ****   {
1367:Drivers/STM32F4xx_HAL_Driver/Src/stm32f4xx_hal_rtc_ex.c ****     /* Disable the Coarse Calibration */
1368:Drivers/STM32F4xx_HAL_Driver/Src/stm32f4xx_hal_rtc_ex.c ****     __HAL_RTC_COARSE_CALIB_DISABLE(hrtc);
1369:Drivers/STM32F4xx_HAL_Driver/Src/stm32f4xx_hal_rtc_ex.c **** 
1370:Drivers/STM32F4xx_HAL_Driver/Src/stm32f4xx_hal_rtc_ex.c ****     /* Exit Initialization mode */
1371:Drivers/STM32F4xx_HAL_Driver/Src/stm32f4xx_hal_rtc_ex.c ****     status = RTC_ExitInitMode(hrtc);
1372:Drivers/STM32F4xx_HAL_Driver/Src/stm32f4xx_hal_rtc_ex.c ****   }
1373:Drivers/STM32F4xx_HAL_Driver/Src/stm32f4xx_hal_rtc_ex.c **** 
1374:Drivers/STM32F4xx_HAL_Driver/Src/stm32f4xx_hal_rtc_ex.c ****   if (status == HAL_OK)
1375:Drivers/STM32F4xx_HAL_Driver/Src/stm32f4xx_hal_rtc_ex.c ****   {
1376:Drivers/STM32F4xx_HAL_Driver/Src/stm32f4xx_hal_rtc_ex.c ****     hrtc->State = HAL_RTC_STATE_READY;
1377:Drivers/STM32F4xx_HAL_Driver/Src/stm32f4xx_hal_rtc_ex.c ****   }
1378:Drivers/STM32F4xx_HAL_Driver/Src/stm32f4xx_hal_rtc_ex.c **** 
1379:Drivers/STM32F4xx_HAL_Driver/Src/stm32f4xx_hal_rtc_ex.c ****   /* Enable the write protection for RTC registers */
1380:Drivers/STM32F4xx_HAL_Driver/Src/stm32f4xx_hal_rtc_ex.c ****   __HAL_RTC_WRITEPROTECTION_ENABLE(hrtc);
 2272              		.loc 1 1380 3 is_stmt 1 view .LVU790
 2273              		.loc 1 1380 3 view .LVU791
 2274 0024 2368     		ldr	r3, [r4]
 2275 0026 FF22     		movs	r2, #255
 2276 0028 5A62     		str	r2, [r3, #36]
 2277              		.loc 1 1380 3 view .LVU792
1381:Drivers/STM32F4xx_HAL_Driver/Src/stm32f4xx_hal_rtc_ex.c **** 
1382:Drivers/STM32F4xx_HAL_Driver/Src/stm32f4xx_hal_rtc_ex.c ****   /* Process Unlocked */
1383:Drivers/STM32F4xx_HAL_Driver/Src/stm32f4xx_hal_rtc_ex.c ****   __HAL_UNLOCK(hrtc);
 2278              		.loc 1 1383 3 view .LVU793
 2279              		.loc 1 1383 3 view .LVU794
 2280 002a 0023     		movs	r3, #0
ARM GAS  /tmp/cc8XWiN3.s 			page 67


 2281 002c 2377     		strb	r3, [r4, #28]
 2282              		.loc 1 1383 3 view .LVU795
1384:Drivers/STM32F4xx_HAL_Driver/Src/stm32f4xx_hal_rtc_ex.c **** 
1385:Drivers/STM32F4xx_HAL_Driver/Src/stm32f4xx_hal_rtc_ex.c ****   return status;
 2283              		.loc 1 1385 3 view .LVU796
1386:Drivers/STM32F4xx_HAL_Driver/Src/stm32f4xx_hal_rtc_ex.c **** }
 2284              		.loc 1 1386 1 is_stmt 0 view .LVU797
 2285 002e 10BD     		pop	{r4, pc}
 2286              	.LVL154:
 2287              	.L145:
1368:Drivers/STM32F4xx_HAL_Driver/Src/stm32f4xx_hal_rtc_ex.c **** 
 2288              		.loc 1 1368 5 is_stmt 1 view .LVU798
 2289 0030 2268     		ldr	r2, [r4]
 2290 0032 9368     		ldr	r3, [r2, #8]
 2291 0034 23F08003 		bic	r3, r3, #128
 2292 0038 9360     		str	r3, [r2, #8]
1371:Drivers/STM32F4xx_HAL_Driver/Src/stm32f4xx_hal_rtc_ex.c ****   }
 2293              		.loc 1 1371 5 view .LVU799
1371:Drivers/STM32F4xx_HAL_Driver/Src/stm32f4xx_hal_rtc_ex.c ****   }
 2294              		.loc 1 1371 14 is_stmt 0 view .LVU800
 2295 003a 2046     		mov	r0, r4
 2296              	.LVL155:
1371:Drivers/STM32F4xx_HAL_Driver/Src/stm32f4xx_hal_rtc_ex.c ****   }
 2297              		.loc 1 1371 14 view .LVU801
 2298 003c FFF7FEFF 		bl	RTC_ExitInitMode
 2299              	.LVL156:
1374:Drivers/STM32F4xx_HAL_Driver/Src/stm32f4xx_hal_rtc_ex.c ****   {
 2300              		.loc 1 1374 3 is_stmt 1 view .LVU802
1374:Drivers/STM32F4xx_HAL_Driver/Src/stm32f4xx_hal_rtc_ex.c ****   {
 2301              		.loc 1 1374 6 is_stmt 0 view .LVU803
 2302 0040 0028     		cmp	r0, #0
 2303 0042 EFD1     		bne	.L139
1376:Drivers/STM32F4xx_HAL_Driver/Src/stm32f4xx_hal_rtc_ex.c ****   }
 2304              		.loc 1 1376 5 is_stmt 1 view .LVU804
1376:Drivers/STM32F4xx_HAL_Driver/Src/stm32f4xx_hal_rtc_ex.c ****   }
 2305              		.loc 1 1376 17 is_stmt 0 view .LVU805
 2306 0044 0123     		movs	r3, #1
 2307 0046 6377     		strb	r3, [r4, #29]
 2308 0048 ECE7     		b	.L139
 2309              	.LVL157:
 2310              	.L140:
 2311              		.cfi_def_cfa_offset 0
 2312              		.cfi_restore 4
 2313              		.cfi_restore 14
1355:Drivers/STM32F4xx_HAL_Driver/Src/stm32f4xx_hal_rtc_ex.c **** 
 2314              		.loc 1 1355 3 discriminator 1 view .LVU806
 2315 004a 0220     		movs	r0, #2
 2316              	.LVL158:
 2317              		.loc 1 1386 1 view .LVU807
 2318 004c 7047     		bx	lr
 2319              		.cfi_endproc
 2320              	.LFE152:
 2322              		.section	.text.HAL_RTCEx_SetSmoothCalib,"ax",%progbits
 2323              		.align	1
 2324              		.global	HAL_RTCEx_SetSmoothCalib
 2325              		.syntax unified
 2326              		.thumb
ARM GAS  /tmp/cc8XWiN3.s 			page 68


 2327              		.thumb_func
 2329              	HAL_RTCEx_SetSmoothCalib:
 2330              	.LVL159:
 2331              	.LFB153:
1387:Drivers/STM32F4xx_HAL_Driver/Src/stm32f4xx_hal_rtc_ex.c **** 
1388:Drivers/STM32F4xx_HAL_Driver/Src/stm32f4xx_hal_rtc_ex.c **** /**
1389:Drivers/STM32F4xx_HAL_Driver/Src/stm32f4xx_hal_rtc_ex.c ****   * @brief  Sets the Smooth calibration parameters.
1390:Drivers/STM32F4xx_HAL_Driver/Src/stm32f4xx_hal_rtc_ex.c ****   * @param  hrtc pointer to a RTC_HandleTypeDef structure that contains
1391:Drivers/STM32F4xx_HAL_Driver/Src/stm32f4xx_hal_rtc_ex.c ****   *                the configuration information for RTC.
1392:Drivers/STM32F4xx_HAL_Driver/Src/stm32f4xx_hal_rtc_ex.c ****   * @param  SmoothCalibPeriod Select the Smooth Calibration Period.
1393:Drivers/STM32F4xx_HAL_Driver/Src/stm32f4xx_hal_rtc_ex.c ****   *          This parameter can be can be one of the following values:
1394:Drivers/STM32F4xx_HAL_Driver/Src/stm32f4xx_hal_rtc_ex.c ****   *             @arg RTC_SMOOTHCALIB_PERIOD_32SEC: The smooth calibration period is 32s.
1395:Drivers/STM32F4xx_HAL_Driver/Src/stm32f4xx_hal_rtc_ex.c ****   *             @arg RTC_SMOOTHCALIB_PERIOD_16SEC: The smooth calibration period is 16s.
1396:Drivers/STM32F4xx_HAL_Driver/Src/stm32f4xx_hal_rtc_ex.c ****   *             @arg RTC_SMOOTHCALIB_PERIOD_8SEC: The smooth calibration period is 8s.
1397:Drivers/STM32F4xx_HAL_Driver/Src/stm32f4xx_hal_rtc_ex.c ****   * @param  SmoothCalibPlusPulses Select to Set or reset the CALP bit.
1398:Drivers/STM32F4xx_HAL_Driver/Src/stm32f4xx_hal_rtc_ex.c ****   *          This parameter can be one of the following values:
1399:Drivers/STM32F4xx_HAL_Driver/Src/stm32f4xx_hal_rtc_ex.c ****   *             @arg RTC_SMOOTHCALIB_PLUSPULSES_SET: Add one RTCCLK pulse every 2*11 pulses.
1400:Drivers/STM32F4xx_HAL_Driver/Src/stm32f4xx_hal_rtc_ex.c ****   *             @arg RTC_SMOOTHCALIB_PLUSPULSES_RESET: No RTCCLK pulses are added.
1401:Drivers/STM32F4xx_HAL_Driver/Src/stm32f4xx_hal_rtc_ex.c ****   * @param  SmoothCalibMinusPulsesValue Select the value of CALM[8:0] bits.
1402:Drivers/STM32F4xx_HAL_Driver/Src/stm32f4xx_hal_rtc_ex.c ****   *          This parameter can be one any value from 0 to 0x000001FF.
1403:Drivers/STM32F4xx_HAL_Driver/Src/stm32f4xx_hal_rtc_ex.c ****   * @note   To deactivate the smooth calibration, the field SmoothCalibPlusPulses
1404:Drivers/STM32F4xx_HAL_Driver/Src/stm32f4xx_hal_rtc_ex.c ****   *         must be equal to SMOOTHCALIB_PLUSPULSES_RESET and the field
1405:Drivers/STM32F4xx_HAL_Driver/Src/stm32f4xx_hal_rtc_ex.c ****   *         SmoothCalibMinusPulsesValue must be equal to 0.
1406:Drivers/STM32F4xx_HAL_Driver/Src/stm32f4xx_hal_rtc_ex.c ****   * @retval HAL status
1407:Drivers/STM32F4xx_HAL_Driver/Src/stm32f4xx_hal_rtc_ex.c ****   */
1408:Drivers/STM32F4xx_HAL_Driver/Src/stm32f4xx_hal_rtc_ex.c **** HAL_StatusTypeDef HAL_RTCEx_SetSmoothCalib(RTC_HandleTypeDef *hrtc, uint32_t SmoothCalibPeriod, uin
1409:Drivers/STM32F4xx_HAL_Driver/Src/stm32f4xx_hal_rtc_ex.c **** {
 2332              		.loc 1 1409 1 is_stmt 1 view -0
 2333              		.cfi_startproc
 2334              		@ args = 0, pretend = 0, frame = 0
 2335              		@ frame_needed = 0, uses_anonymous_args = 0
 2336              		.loc 1 1409 1 is_stmt 0 view .LVU809
 2337 0000 2DE9F041 		push	{r4, r5, r6, r7, r8, lr}
 2338              		.cfi_def_cfa_offset 24
 2339              		.cfi_offset 4, -24
 2340              		.cfi_offset 5, -20
 2341              		.cfi_offset 6, -16
 2342              		.cfi_offset 7, -12
 2343              		.cfi_offset 8, -8
 2344              		.cfi_offset 14, -4
 2345 0004 1E46     		mov	r6, r3
1410:Drivers/STM32F4xx_HAL_Driver/Src/stm32f4xx_hal_rtc_ex.c ****   uint32_t tickstart = 0U;
 2346              		.loc 1 1410 3 is_stmt 1 view .LVU810
 2347              	.LVL160:
1411:Drivers/STM32F4xx_HAL_Driver/Src/stm32f4xx_hal_rtc_ex.c **** 
1412:Drivers/STM32F4xx_HAL_Driver/Src/stm32f4xx_hal_rtc_ex.c ****   /* Check the parameters */
1413:Drivers/STM32F4xx_HAL_Driver/Src/stm32f4xx_hal_rtc_ex.c ****   assert_param(IS_RTC_SMOOTH_CALIB_PERIOD(SmoothCalibPeriod));
 2348              		.loc 1 1413 3 view .LVU811
1414:Drivers/STM32F4xx_HAL_Driver/Src/stm32f4xx_hal_rtc_ex.c ****   assert_param(IS_RTC_SMOOTH_CALIB_PLUS(SmoothCalibPlusPulses));
 2349              		.loc 1 1414 3 view .LVU812
1415:Drivers/STM32F4xx_HAL_Driver/Src/stm32f4xx_hal_rtc_ex.c ****   assert_param(IS_RTC_SMOOTH_CALIB_MINUS(SmoothCalibMinusPulsesValue));
 2350              		.loc 1 1415 3 view .LVU813
1416:Drivers/STM32F4xx_HAL_Driver/Src/stm32f4xx_hal_rtc_ex.c **** 
1417:Drivers/STM32F4xx_HAL_Driver/Src/stm32f4xx_hal_rtc_ex.c ****   /* Process Locked */
1418:Drivers/STM32F4xx_HAL_Driver/Src/stm32f4xx_hal_rtc_ex.c ****   __HAL_LOCK(hrtc);
 2351              		.loc 1 1418 3 view .LVU814
 2352              		.loc 1 1418 3 view .LVU815
ARM GAS  /tmp/cc8XWiN3.s 			page 69


 2353 0006 037F     		ldrb	r3, [r0, #28]	@ zero_extendqisi2
 2354              	.LVL161:
 2355              		.loc 1 1418 3 is_stmt 0 view .LVU816
 2356 0008 012B     		cmp	r3, #1
 2357 000a 35D0     		beq	.L151
 2358 000c 0446     		mov	r4, r0
 2359 000e 0D46     		mov	r5, r1
 2360 0010 1746     		mov	r7, r2
 2361              		.loc 1 1418 3 is_stmt 1 discriminator 2 view .LVU817
 2362 0012 0123     		movs	r3, #1
 2363 0014 0377     		strb	r3, [r0, #28]
 2364              		.loc 1 1418 3 view .LVU818
1419:Drivers/STM32F4xx_HAL_Driver/Src/stm32f4xx_hal_rtc_ex.c **** 
1420:Drivers/STM32F4xx_HAL_Driver/Src/stm32f4xx_hal_rtc_ex.c ****   hrtc->State = HAL_RTC_STATE_BUSY;
 2365              		.loc 1 1420 3 view .LVU819
 2366              		.loc 1 1420 15 is_stmt 0 view .LVU820
 2367 0016 0223     		movs	r3, #2
 2368 0018 4377     		strb	r3, [r0, #29]
1421:Drivers/STM32F4xx_HAL_Driver/Src/stm32f4xx_hal_rtc_ex.c **** 
1422:Drivers/STM32F4xx_HAL_Driver/Src/stm32f4xx_hal_rtc_ex.c ****   /* Disable the write protection for RTC registers */
1423:Drivers/STM32F4xx_HAL_Driver/Src/stm32f4xx_hal_rtc_ex.c ****   __HAL_RTC_WRITEPROTECTION_DISABLE(hrtc);
 2369              		.loc 1 1423 3 is_stmt 1 view .LVU821
 2370              		.loc 1 1423 3 view .LVU822
 2371 001a 0368     		ldr	r3, [r0]
 2372 001c CA22     		movs	r2, #202
 2373              	.LVL162:
 2374              		.loc 1 1423 3 is_stmt 0 view .LVU823
 2375 001e 5A62     		str	r2, [r3, #36]
 2376              		.loc 1 1423 3 is_stmt 1 view .LVU824
 2377 0020 0368     		ldr	r3, [r0]
 2378 0022 5322     		movs	r2, #83
 2379 0024 5A62     		str	r2, [r3, #36]
 2380              		.loc 1 1423 3 view .LVU825
1424:Drivers/STM32F4xx_HAL_Driver/Src/stm32f4xx_hal_rtc_ex.c **** 
1425:Drivers/STM32F4xx_HAL_Driver/Src/stm32f4xx_hal_rtc_ex.c ****   /* check if a calibration is pending*/
1426:Drivers/STM32F4xx_HAL_Driver/Src/stm32f4xx_hal_rtc_ex.c ****   if ((hrtc->Instance->ISR & RTC_ISR_RECALPF) != 0U)
 2381              		.loc 1 1426 3 view .LVU826
 2382              		.loc 1 1426 12 is_stmt 0 view .LVU827
 2383 0026 0368     		ldr	r3, [r0]
 2384              		.loc 1 1426 22 view .LVU828
 2385 0028 DB68     		ldr	r3, [r3, #12]
 2386              		.loc 1 1426 6 view .LVU829
 2387 002a 13F4803F 		tst	r3, #65536
 2388 002e 0CD1     		bne	.L153
 2389              	.LVL163:
 2390              	.L148:
1427:Drivers/STM32F4xx_HAL_Driver/Src/stm32f4xx_hal_rtc_ex.c ****   {
1428:Drivers/STM32F4xx_HAL_Driver/Src/stm32f4xx_hal_rtc_ex.c ****     /* Get tick */
1429:Drivers/STM32F4xx_HAL_Driver/Src/stm32f4xx_hal_rtc_ex.c ****     tickstart = HAL_GetTick();
1430:Drivers/STM32F4xx_HAL_Driver/Src/stm32f4xx_hal_rtc_ex.c **** 
1431:Drivers/STM32F4xx_HAL_Driver/Src/stm32f4xx_hal_rtc_ex.c ****     /* check if a calibration is pending*/
1432:Drivers/STM32F4xx_HAL_Driver/Src/stm32f4xx_hal_rtc_ex.c ****     while ((hrtc->Instance->ISR & RTC_ISR_RECALPF) != 0U)
1433:Drivers/STM32F4xx_HAL_Driver/Src/stm32f4xx_hal_rtc_ex.c ****     {
1434:Drivers/STM32F4xx_HAL_Driver/Src/stm32f4xx_hal_rtc_ex.c ****       if ((HAL_GetTick() - tickstart) > RTC_TIMEOUT_VALUE)
1435:Drivers/STM32F4xx_HAL_Driver/Src/stm32f4xx_hal_rtc_ex.c ****       {
1436:Drivers/STM32F4xx_HAL_Driver/Src/stm32f4xx_hal_rtc_ex.c ****         /* Enable the write protection for RTC registers */
1437:Drivers/STM32F4xx_HAL_Driver/Src/stm32f4xx_hal_rtc_ex.c ****         __HAL_RTC_WRITEPROTECTION_ENABLE(hrtc);
ARM GAS  /tmp/cc8XWiN3.s 			page 70


1438:Drivers/STM32F4xx_HAL_Driver/Src/stm32f4xx_hal_rtc_ex.c **** 
1439:Drivers/STM32F4xx_HAL_Driver/Src/stm32f4xx_hal_rtc_ex.c ****         /* Change RTC state */
1440:Drivers/STM32F4xx_HAL_Driver/Src/stm32f4xx_hal_rtc_ex.c ****         hrtc->State = HAL_RTC_STATE_TIMEOUT;
1441:Drivers/STM32F4xx_HAL_Driver/Src/stm32f4xx_hal_rtc_ex.c **** 
1442:Drivers/STM32F4xx_HAL_Driver/Src/stm32f4xx_hal_rtc_ex.c ****         /* Process Unlocked */
1443:Drivers/STM32F4xx_HAL_Driver/Src/stm32f4xx_hal_rtc_ex.c ****         __HAL_UNLOCK(hrtc);
1444:Drivers/STM32F4xx_HAL_Driver/Src/stm32f4xx_hal_rtc_ex.c **** 
1445:Drivers/STM32F4xx_HAL_Driver/Src/stm32f4xx_hal_rtc_ex.c ****         return HAL_TIMEOUT;
1446:Drivers/STM32F4xx_HAL_Driver/Src/stm32f4xx_hal_rtc_ex.c ****       }
1447:Drivers/STM32F4xx_HAL_Driver/Src/stm32f4xx_hal_rtc_ex.c ****     }
1448:Drivers/STM32F4xx_HAL_Driver/Src/stm32f4xx_hal_rtc_ex.c ****   }
1449:Drivers/STM32F4xx_HAL_Driver/Src/stm32f4xx_hal_rtc_ex.c **** 
1450:Drivers/STM32F4xx_HAL_Driver/Src/stm32f4xx_hal_rtc_ex.c ****   /* Configure the Smooth calibration settings */
1451:Drivers/STM32F4xx_HAL_Driver/Src/stm32f4xx_hal_rtc_ex.c ****   hrtc->Instance->CALR = (uint32_t)((uint32_t)SmoothCalibPeriod     | \
 2391              		.loc 1 1451 3 is_stmt 1 view .LVU830
 2392              		.loc 1 1451 69 is_stmt 0 view .LVU831
 2393 0030 3D43     		orrs	r5, r5, r7
 2394              	.LVL164:
 2395              		.loc 1 1451 7 view .LVU832
 2396 0032 2368     		ldr	r3, [r4]
 2397              		.loc 1 1451 26 view .LVU833
 2398 0034 3543     		orrs	r5, r5, r6
 2399              		.loc 1 1451 24 view .LVU834
 2400 0036 DD63     		str	r5, [r3, #60]
1452:Drivers/STM32F4xx_HAL_Driver/Src/stm32f4xx_hal_rtc_ex.c ****                                     (uint32_t)SmoothCalibPlusPulses | \
1453:Drivers/STM32F4xx_HAL_Driver/Src/stm32f4xx_hal_rtc_ex.c ****                                     (uint32_t)SmoothCalibMinusPulsesValue);
1454:Drivers/STM32F4xx_HAL_Driver/Src/stm32f4xx_hal_rtc_ex.c **** 
1455:Drivers/STM32F4xx_HAL_Driver/Src/stm32f4xx_hal_rtc_ex.c ****   /* Enable the write protection for RTC registers */
1456:Drivers/STM32F4xx_HAL_Driver/Src/stm32f4xx_hal_rtc_ex.c ****   __HAL_RTC_WRITEPROTECTION_ENABLE(hrtc);
 2401              		.loc 1 1456 3 is_stmt 1 view .LVU835
 2402              		.loc 1 1456 3 view .LVU836
 2403 0038 2368     		ldr	r3, [r4]
 2404 003a FF22     		movs	r2, #255
 2405 003c 5A62     		str	r2, [r3, #36]
 2406              		.loc 1 1456 3 view .LVU837
1457:Drivers/STM32F4xx_HAL_Driver/Src/stm32f4xx_hal_rtc_ex.c **** 
1458:Drivers/STM32F4xx_HAL_Driver/Src/stm32f4xx_hal_rtc_ex.c ****   /* Change RTC state */
1459:Drivers/STM32F4xx_HAL_Driver/Src/stm32f4xx_hal_rtc_ex.c ****   hrtc->State = HAL_RTC_STATE_READY;
 2407              		.loc 1 1459 3 view .LVU838
 2408              		.loc 1 1459 15 is_stmt 0 view .LVU839
 2409 003e 0123     		movs	r3, #1
 2410 0040 6377     		strb	r3, [r4, #29]
1460:Drivers/STM32F4xx_HAL_Driver/Src/stm32f4xx_hal_rtc_ex.c **** 
1461:Drivers/STM32F4xx_HAL_Driver/Src/stm32f4xx_hal_rtc_ex.c ****   /* Process Unlocked */
1462:Drivers/STM32F4xx_HAL_Driver/Src/stm32f4xx_hal_rtc_ex.c ****   __HAL_UNLOCK(hrtc);
 2411              		.loc 1 1462 3 is_stmt 1 view .LVU840
 2412              		.loc 1 1462 3 view .LVU841
 2413 0042 0020     		movs	r0, #0
 2414 0044 2077     		strb	r0, [r4, #28]
 2415              		.loc 1 1462 3 view .LVU842
1463:Drivers/STM32F4xx_HAL_Driver/Src/stm32f4xx_hal_rtc_ex.c **** 
1464:Drivers/STM32F4xx_HAL_Driver/Src/stm32f4xx_hal_rtc_ex.c ****   return HAL_OK;
 2416              		.loc 1 1464 3 view .LVU843
 2417              	.LVL165:
 2418              	.L147:
1465:Drivers/STM32F4xx_HAL_Driver/Src/stm32f4xx_hal_rtc_ex.c **** }
 2419              		.loc 1 1465 1 is_stmt 0 view .LVU844
ARM GAS  /tmp/cc8XWiN3.s 			page 71


 2420 0046 BDE8F081 		pop	{r4, r5, r6, r7, r8, pc}
 2421              	.LVL166:
 2422              	.L153:
1429:Drivers/STM32F4xx_HAL_Driver/Src/stm32f4xx_hal_rtc_ex.c **** 
 2423              		.loc 1 1429 5 is_stmt 1 view .LVU845
1429:Drivers/STM32F4xx_HAL_Driver/Src/stm32f4xx_hal_rtc_ex.c **** 
 2424              		.loc 1 1429 17 is_stmt 0 view .LVU846
 2425 004a FFF7FEFF 		bl	HAL_GetTick
 2426              	.LVL167:
1429:Drivers/STM32F4xx_HAL_Driver/Src/stm32f4xx_hal_rtc_ex.c **** 
 2427              		.loc 1 1429 17 view .LVU847
 2428 004e 8046     		mov	r8, r0
 2429              	.LVL168:
1432:Drivers/STM32F4xx_HAL_Driver/Src/stm32f4xx_hal_rtc_ex.c ****     {
 2430              		.loc 1 1432 5 is_stmt 1 view .LVU848
 2431              	.L149:
1432:Drivers/STM32F4xx_HAL_Driver/Src/stm32f4xx_hal_rtc_ex.c ****     {
 2432              		.loc 1 1432 52 view .LVU849
1432:Drivers/STM32F4xx_HAL_Driver/Src/stm32f4xx_hal_rtc_ex.c ****     {
 2433              		.loc 1 1432 17 is_stmt 0 view .LVU850
 2434 0050 2368     		ldr	r3, [r4]
1432:Drivers/STM32F4xx_HAL_Driver/Src/stm32f4xx_hal_rtc_ex.c ****     {
 2435              		.loc 1 1432 27 view .LVU851
 2436 0052 D968     		ldr	r1, [r3, #12]
1432:Drivers/STM32F4xx_HAL_Driver/Src/stm32f4xx_hal_rtc_ex.c ****     {
 2437              		.loc 1 1432 52 view .LVU852
 2438 0054 11F4803F 		tst	r1, #65536
 2439 0058 EAD0     		beq	.L148
1434:Drivers/STM32F4xx_HAL_Driver/Src/stm32f4xx_hal_rtc_ex.c ****       {
 2440              		.loc 1 1434 7 is_stmt 1 view .LVU853
1434:Drivers/STM32F4xx_HAL_Driver/Src/stm32f4xx_hal_rtc_ex.c ****       {
 2441              		.loc 1 1434 12 is_stmt 0 view .LVU854
 2442 005a FFF7FEFF 		bl	HAL_GetTick
 2443              	.LVL169:
1434:Drivers/STM32F4xx_HAL_Driver/Src/stm32f4xx_hal_rtc_ex.c ****       {
 2444              		.loc 1 1434 26 discriminator 1 view .LVU855
 2445 005e A0EB0800 		sub	r0, r0, r8
1434:Drivers/STM32F4xx_HAL_Driver/Src/stm32f4xx_hal_rtc_ex.c ****       {
 2446              		.loc 1 1434 10 discriminator 1 view .LVU856
 2447 0062 B0F57A7F 		cmp	r0, #1000
 2448 0066 F3D9     		bls	.L149
1437:Drivers/STM32F4xx_HAL_Driver/Src/stm32f4xx_hal_rtc_ex.c **** 
 2449              		.loc 1 1437 9 is_stmt 1 view .LVU857
1437:Drivers/STM32F4xx_HAL_Driver/Src/stm32f4xx_hal_rtc_ex.c **** 
 2450              		.loc 1 1437 9 view .LVU858
 2451 0068 2368     		ldr	r3, [r4]
 2452 006a FF22     		movs	r2, #255
 2453 006c 5A62     		str	r2, [r3, #36]
1437:Drivers/STM32F4xx_HAL_Driver/Src/stm32f4xx_hal_rtc_ex.c **** 
 2454              		.loc 1 1437 9 view .LVU859
1440:Drivers/STM32F4xx_HAL_Driver/Src/stm32f4xx_hal_rtc_ex.c **** 
 2455              		.loc 1 1440 9 view .LVU860
1440:Drivers/STM32F4xx_HAL_Driver/Src/stm32f4xx_hal_rtc_ex.c **** 
 2456              		.loc 1 1440 21 is_stmt 0 view .LVU861
 2457 006e 0320     		movs	r0, #3
 2458 0070 6077     		strb	r0, [r4, #29]
1443:Drivers/STM32F4xx_HAL_Driver/Src/stm32f4xx_hal_rtc_ex.c **** 
ARM GAS  /tmp/cc8XWiN3.s 			page 72


 2459              		.loc 1 1443 9 is_stmt 1 view .LVU862
1443:Drivers/STM32F4xx_HAL_Driver/Src/stm32f4xx_hal_rtc_ex.c **** 
 2460              		.loc 1 1443 9 view .LVU863
 2461 0072 0023     		movs	r3, #0
 2462 0074 2377     		strb	r3, [r4, #28]
1443:Drivers/STM32F4xx_HAL_Driver/Src/stm32f4xx_hal_rtc_ex.c **** 
 2463              		.loc 1 1443 9 view .LVU864
1445:Drivers/STM32F4xx_HAL_Driver/Src/stm32f4xx_hal_rtc_ex.c ****       }
 2464              		.loc 1 1445 9 view .LVU865
1445:Drivers/STM32F4xx_HAL_Driver/Src/stm32f4xx_hal_rtc_ex.c ****       }
 2465              		.loc 1 1445 16 is_stmt 0 view .LVU866
 2466 0076 E6E7     		b	.L147
 2467              	.LVL170:
 2468              	.L151:
1418:Drivers/STM32F4xx_HAL_Driver/Src/stm32f4xx_hal_rtc_ex.c **** 
 2469              		.loc 1 1418 3 discriminator 1 view .LVU867
 2470 0078 0220     		movs	r0, #2
 2471              	.LVL171:
1418:Drivers/STM32F4xx_HAL_Driver/Src/stm32f4xx_hal_rtc_ex.c **** 
 2472              		.loc 1 1418 3 discriminator 1 view .LVU868
 2473 007a E4E7     		b	.L147
 2474              		.cfi_endproc
 2475              	.LFE153:
 2477              		.section	.text.HAL_RTCEx_SetSynchroShift,"ax",%progbits
 2478              		.align	1
 2479              		.global	HAL_RTCEx_SetSynchroShift
 2480              		.syntax unified
 2481              		.thumb
 2482              		.thumb_func
 2484              	HAL_RTCEx_SetSynchroShift:
 2485              	.LVL172:
 2486              	.LFB154:
1466:Drivers/STM32F4xx_HAL_Driver/Src/stm32f4xx_hal_rtc_ex.c **** 
1467:Drivers/STM32F4xx_HAL_Driver/Src/stm32f4xx_hal_rtc_ex.c **** /**
1468:Drivers/STM32F4xx_HAL_Driver/Src/stm32f4xx_hal_rtc_ex.c ****   * @brief  Configures the Synchronization Shift Control Settings.
1469:Drivers/STM32F4xx_HAL_Driver/Src/stm32f4xx_hal_rtc_ex.c ****   * @note   When REFCKON is set, firmware must not write to Shift control register.
1470:Drivers/STM32F4xx_HAL_Driver/Src/stm32f4xx_hal_rtc_ex.c ****   * @param  hrtc pointer to a RTC_HandleTypeDef structure that contains
1471:Drivers/STM32F4xx_HAL_Driver/Src/stm32f4xx_hal_rtc_ex.c ****   *                the configuration information for RTC.
1472:Drivers/STM32F4xx_HAL_Driver/Src/stm32f4xx_hal_rtc_ex.c ****   * @param  ShiftAdd1S Select to add or not 1 second to the time calendar.
1473:Drivers/STM32F4xx_HAL_Driver/Src/stm32f4xx_hal_rtc_ex.c ****   *          This parameter can be one of the following values:
1474:Drivers/STM32F4xx_HAL_Driver/Src/stm32f4xx_hal_rtc_ex.c ****   *             @arg RTC_SHIFTADD1S_SET: Add one second to the clock calendar.
1475:Drivers/STM32F4xx_HAL_Driver/Src/stm32f4xx_hal_rtc_ex.c ****   *             @arg RTC_SHIFTADD1S_RESET: No effect.
1476:Drivers/STM32F4xx_HAL_Driver/Src/stm32f4xx_hal_rtc_ex.c ****   * @param  ShiftSubFS Select the number of Second Fractions to substitute.
1477:Drivers/STM32F4xx_HAL_Driver/Src/stm32f4xx_hal_rtc_ex.c ****   *          This parameter can be one any value from 0 to 0x7FFF.
1478:Drivers/STM32F4xx_HAL_Driver/Src/stm32f4xx_hal_rtc_ex.c ****   * @retval HAL status
1479:Drivers/STM32F4xx_HAL_Driver/Src/stm32f4xx_hal_rtc_ex.c ****   */
1480:Drivers/STM32F4xx_HAL_Driver/Src/stm32f4xx_hal_rtc_ex.c **** HAL_StatusTypeDef HAL_RTCEx_SetSynchroShift(RTC_HandleTypeDef *hrtc, uint32_t ShiftAdd1S, uint32_t 
1481:Drivers/STM32F4xx_HAL_Driver/Src/stm32f4xx_hal_rtc_ex.c **** {
 2487              		.loc 1 1481 1 is_stmt 1 view -0
 2488              		.cfi_startproc
 2489              		@ args = 0, pretend = 0, frame = 0
 2490              		@ frame_needed = 0, uses_anonymous_args = 0
1482:Drivers/STM32F4xx_HAL_Driver/Src/stm32f4xx_hal_rtc_ex.c ****   uint32_t tickstart = 0U;
 2491              		.loc 1 1482 3 view .LVU870
1483:Drivers/STM32F4xx_HAL_Driver/Src/stm32f4xx_hal_rtc_ex.c **** 
1484:Drivers/STM32F4xx_HAL_Driver/Src/stm32f4xx_hal_rtc_ex.c ****   /* Check the parameters */
1485:Drivers/STM32F4xx_HAL_Driver/Src/stm32f4xx_hal_rtc_ex.c ****   assert_param(IS_RTC_SHIFT_ADD1S(ShiftAdd1S));
ARM GAS  /tmp/cc8XWiN3.s 			page 73


 2492              		.loc 1 1485 3 view .LVU871
1486:Drivers/STM32F4xx_HAL_Driver/Src/stm32f4xx_hal_rtc_ex.c ****   assert_param(IS_RTC_SHIFT_SUBFS(ShiftSubFS));
 2493              		.loc 1 1486 3 view .LVU872
1487:Drivers/STM32F4xx_HAL_Driver/Src/stm32f4xx_hal_rtc_ex.c **** 
1488:Drivers/STM32F4xx_HAL_Driver/Src/stm32f4xx_hal_rtc_ex.c ****   /* Process Locked */
1489:Drivers/STM32F4xx_HAL_Driver/Src/stm32f4xx_hal_rtc_ex.c ****   __HAL_LOCK(hrtc);
 2494              		.loc 1 1489 3 view .LVU873
 2495              		.loc 1 1489 3 view .LVU874
 2496 0000 037F     		ldrb	r3, [r0, #28]	@ zero_extendqisi2
 2497 0002 012B     		cmp	r3, #1
 2498 0004 4FD0     		beq	.L160
1481:Drivers/STM32F4xx_HAL_Driver/Src/stm32f4xx_hal_rtc_ex.c ****   uint32_t tickstart = 0U;
 2499              		.loc 1 1481 1 is_stmt 0 view .LVU875
 2500 0006 2DE9F041 		push	{r4, r5, r6, r7, r8, lr}
 2501              		.cfi_def_cfa_offset 24
 2502              		.cfi_offset 4, -24
 2503              		.cfi_offset 5, -20
 2504              		.cfi_offset 6, -16
 2505              		.cfi_offset 7, -12
 2506              		.cfi_offset 8, -8
 2507              		.cfi_offset 14, -4
 2508 000a 0446     		mov	r4, r0
 2509 000c 8846     		mov	r8, r1
 2510 000e 1746     		mov	r7, r2
 2511              		.loc 1 1489 3 is_stmt 1 discriminator 2 view .LVU876
 2512 0010 0123     		movs	r3, #1
 2513 0012 0377     		strb	r3, [r0, #28]
 2514              		.loc 1 1489 3 view .LVU877
1490:Drivers/STM32F4xx_HAL_Driver/Src/stm32f4xx_hal_rtc_ex.c **** 
1491:Drivers/STM32F4xx_HAL_Driver/Src/stm32f4xx_hal_rtc_ex.c ****   hrtc->State = HAL_RTC_STATE_BUSY;
 2515              		.loc 1 1491 3 view .LVU878
 2516              		.loc 1 1491 15 is_stmt 0 view .LVU879
 2517 0014 0223     		movs	r3, #2
 2518 0016 4377     		strb	r3, [r0, #29]
1492:Drivers/STM32F4xx_HAL_Driver/Src/stm32f4xx_hal_rtc_ex.c **** 
1493:Drivers/STM32F4xx_HAL_Driver/Src/stm32f4xx_hal_rtc_ex.c ****   /* Disable the write protection for RTC registers */
1494:Drivers/STM32F4xx_HAL_Driver/Src/stm32f4xx_hal_rtc_ex.c ****   __HAL_RTC_WRITEPROTECTION_DISABLE(hrtc);
 2519              		.loc 1 1494 3 is_stmt 1 view .LVU880
 2520              		.loc 1 1494 3 view .LVU881
 2521 0018 0368     		ldr	r3, [r0]
 2522 001a CA22     		movs	r2, #202
 2523              	.LVL173:
 2524              		.loc 1 1494 3 is_stmt 0 view .LVU882
 2525 001c 5A62     		str	r2, [r3, #36]
 2526              		.loc 1 1494 3 is_stmt 1 view .LVU883
 2527 001e 0368     		ldr	r3, [r0]
 2528 0020 5322     		movs	r2, #83
 2529 0022 5A62     		str	r2, [r3, #36]
 2530              		.loc 1 1494 3 view .LVU884
1495:Drivers/STM32F4xx_HAL_Driver/Src/stm32f4xx_hal_rtc_ex.c **** 
1496:Drivers/STM32F4xx_HAL_Driver/Src/stm32f4xx_hal_rtc_ex.c ****   /* Get tick */
1497:Drivers/STM32F4xx_HAL_Driver/Src/stm32f4xx_hal_rtc_ex.c ****   tickstart = HAL_GetTick();
 2531              		.loc 1 1497 3 view .LVU885
 2532              		.loc 1 1497 15 is_stmt 0 view .LVU886
 2533 0024 FFF7FEFF 		bl	HAL_GetTick
 2534              	.LVL174:
 2535              		.loc 1 1497 15 view .LVU887
ARM GAS  /tmp/cc8XWiN3.s 			page 74


 2536 0028 0646     		mov	r6, r0
 2537              	.LVL175:
1498:Drivers/STM32F4xx_HAL_Driver/Src/stm32f4xx_hal_rtc_ex.c **** 
1499:Drivers/STM32F4xx_HAL_Driver/Src/stm32f4xx_hal_rtc_ex.c ****   /* Wait until the shift is completed */
1500:Drivers/STM32F4xx_HAL_Driver/Src/stm32f4xx_hal_rtc_ex.c ****   while ((hrtc->Instance->ISR & RTC_ISR_SHPF) != 0U)
 2538              		.loc 1 1500 3 is_stmt 1 view .LVU888
 2539              	.L156:
 2540              		.loc 1 1500 47 view .LVU889
 2541              		.loc 1 1500 15 is_stmt 0 view .LVU890
 2542 002a 2368     		ldr	r3, [r4]
 2543              		.loc 1 1500 25 view .LVU891
 2544 002c DD68     		ldr	r5, [r3, #12]
 2545              		.loc 1 1500 47 view .LVU892
 2546 002e 15F0080F 		tst	r5, #8
 2547 0032 0ED0     		beq	.L165
1501:Drivers/STM32F4xx_HAL_Driver/Src/stm32f4xx_hal_rtc_ex.c ****   {
1502:Drivers/STM32F4xx_HAL_Driver/Src/stm32f4xx_hal_rtc_ex.c ****     if ((HAL_GetTick() - tickstart) > RTC_TIMEOUT_VALUE)
 2548              		.loc 1 1502 5 is_stmt 1 view .LVU893
 2549              		.loc 1 1502 10 is_stmt 0 view .LVU894
 2550 0034 FFF7FEFF 		bl	HAL_GetTick
 2551              	.LVL176:
 2552              		.loc 1 1502 24 discriminator 1 view .LVU895
 2553 0038 831B     		subs	r3, r0, r6
 2554              		.loc 1 1502 8 discriminator 1 view .LVU896
 2555 003a B3F57A7F 		cmp	r3, #1000
 2556 003e F4D9     		bls	.L156
1503:Drivers/STM32F4xx_HAL_Driver/Src/stm32f4xx_hal_rtc_ex.c ****     {
1504:Drivers/STM32F4xx_HAL_Driver/Src/stm32f4xx_hal_rtc_ex.c ****       /* Enable the write protection for RTC registers */
1505:Drivers/STM32F4xx_HAL_Driver/Src/stm32f4xx_hal_rtc_ex.c ****       __HAL_RTC_WRITEPROTECTION_ENABLE(hrtc);
 2557              		.loc 1 1505 7 is_stmt 1 view .LVU897
 2558              		.loc 1 1505 7 view .LVU898
 2559 0040 2368     		ldr	r3, [r4]
 2560 0042 FF22     		movs	r2, #255
 2561 0044 5A62     		str	r2, [r3, #36]
 2562              		.loc 1 1505 7 view .LVU899
1506:Drivers/STM32F4xx_HAL_Driver/Src/stm32f4xx_hal_rtc_ex.c **** 
1507:Drivers/STM32F4xx_HAL_Driver/Src/stm32f4xx_hal_rtc_ex.c ****       hrtc->State = HAL_RTC_STATE_TIMEOUT;
 2563              		.loc 1 1507 7 view .LVU900
 2564              		.loc 1 1507 19 is_stmt 0 view .LVU901
 2565 0046 0320     		movs	r0, #3
 2566 0048 6077     		strb	r0, [r4, #29]
1508:Drivers/STM32F4xx_HAL_Driver/Src/stm32f4xx_hal_rtc_ex.c **** 
1509:Drivers/STM32F4xx_HAL_Driver/Src/stm32f4xx_hal_rtc_ex.c ****       /* Process Unlocked */
1510:Drivers/STM32F4xx_HAL_Driver/Src/stm32f4xx_hal_rtc_ex.c ****       __HAL_UNLOCK(hrtc);
 2567              		.loc 1 1510 7 is_stmt 1 view .LVU902
 2568              		.loc 1 1510 7 view .LVU903
 2569 004a 0023     		movs	r3, #0
 2570 004c 2377     		strb	r3, [r4, #28]
 2571              		.loc 1 1510 7 view .LVU904
1511:Drivers/STM32F4xx_HAL_Driver/Src/stm32f4xx_hal_rtc_ex.c **** 
1512:Drivers/STM32F4xx_HAL_Driver/Src/stm32f4xx_hal_rtc_ex.c ****       return HAL_TIMEOUT;
 2572              		.loc 1 1512 7 view .LVU905
 2573              	.LVL177:
 2574              	.L155:
1513:Drivers/STM32F4xx_HAL_Driver/Src/stm32f4xx_hal_rtc_ex.c ****     }
1514:Drivers/STM32F4xx_HAL_Driver/Src/stm32f4xx_hal_rtc_ex.c ****   }
1515:Drivers/STM32F4xx_HAL_Driver/Src/stm32f4xx_hal_rtc_ex.c **** 
ARM GAS  /tmp/cc8XWiN3.s 			page 75


1516:Drivers/STM32F4xx_HAL_Driver/Src/stm32f4xx_hal_rtc_ex.c ****   /* Check if the reference clock detection is disabled */
1517:Drivers/STM32F4xx_HAL_Driver/Src/stm32f4xx_hal_rtc_ex.c ****   if ((hrtc->Instance->CR & RTC_CR_REFCKON) == 0U)
1518:Drivers/STM32F4xx_HAL_Driver/Src/stm32f4xx_hal_rtc_ex.c ****   {
1519:Drivers/STM32F4xx_HAL_Driver/Src/stm32f4xx_hal_rtc_ex.c ****     /* Configure the Shift settings */
1520:Drivers/STM32F4xx_HAL_Driver/Src/stm32f4xx_hal_rtc_ex.c ****     hrtc->Instance->SHIFTR = (uint32_t)(uint32_t)(ShiftSubFS) | (uint32_t)(ShiftAdd1S);
1521:Drivers/STM32F4xx_HAL_Driver/Src/stm32f4xx_hal_rtc_ex.c **** 
1522:Drivers/STM32F4xx_HAL_Driver/Src/stm32f4xx_hal_rtc_ex.c ****     /* If  RTC_CR_BYPSHAD bit = 0, wait for synchro else this check is not needed */
1523:Drivers/STM32F4xx_HAL_Driver/Src/stm32f4xx_hal_rtc_ex.c ****     if ((hrtc->Instance->CR & RTC_CR_BYPSHAD) == 0U)
1524:Drivers/STM32F4xx_HAL_Driver/Src/stm32f4xx_hal_rtc_ex.c ****     {
1525:Drivers/STM32F4xx_HAL_Driver/Src/stm32f4xx_hal_rtc_ex.c ****       if (HAL_RTC_WaitForSynchro(hrtc) != HAL_OK)
1526:Drivers/STM32F4xx_HAL_Driver/Src/stm32f4xx_hal_rtc_ex.c ****       {
1527:Drivers/STM32F4xx_HAL_Driver/Src/stm32f4xx_hal_rtc_ex.c ****         /* Enable the write protection for RTC registers */
1528:Drivers/STM32F4xx_HAL_Driver/Src/stm32f4xx_hal_rtc_ex.c ****         __HAL_RTC_WRITEPROTECTION_ENABLE(hrtc);
1529:Drivers/STM32F4xx_HAL_Driver/Src/stm32f4xx_hal_rtc_ex.c **** 
1530:Drivers/STM32F4xx_HAL_Driver/Src/stm32f4xx_hal_rtc_ex.c ****         hrtc->State = HAL_RTC_STATE_ERROR;
1531:Drivers/STM32F4xx_HAL_Driver/Src/stm32f4xx_hal_rtc_ex.c **** 
1532:Drivers/STM32F4xx_HAL_Driver/Src/stm32f4xx_hal_rtc_ex.c ****         /* Process Unlocked */
1533:Drivers/STM32F4xx_HAL_Driver/Src/stm32f4xx_hal_rtc_ex.c ****         __HAL_UNLOCK(hrtc);
1534:Drivers/STM32F4xx_HAL_Driver/Src/stm32f4xx_hal_rtc_ex.c **** 
1535:Drivers/STM32F4xx_HAL_Driver/Src/stm32f4xx_hal_rtc_ex.c ****         return HAL_ERROR;
1536:Drivers/STM32F4xx_HAL_Driver/Src/stm32f4xx_hal_rtc_ex.c ****       }
1537:Drivers/STM32F4xx_HAL_Driver/Src/stm32f4xx_hal_rtc_ex.c ****     }
1538:Drivers/STM32F4xx_HAL_Driver/Src/stm32f4xx_hal_rtc_ex.c ****   }
1539:Drivers/STM32F4xx_HAL_Driver/Src/stm32f4xx_hal_rtc_ex.c ****   else
1540:Drivers/STM32F4xx_HAL_Driver/Src/stm32f4xx_hal_rtc_ex.c ****   {
1541:Drivers/STM32F4xx_HAL_Driver/Src/stm32f4xx_hal_rtc_ex.c ****     /* Enable the write protection for RTC registers */
1542:Drivers/STM32F4xx_HAL_Driver/Src/stm32f4xx_hal_rtc_ex.c ****     __HAL_RTC_WRITEPROTECTION_ENABLE(hrtc);
1543:Drivers/STM32F4xx_HAL_Driver/Src/stm32f4xx_hal_rtc_ex.c **** 
1544:Drivers/STM32F4xx_HAL_Driver/Src/stm32f4xx_hal_rtc_ex.c ****     /* Change RTC state */
1545:Drivers/STM32F4xx_HAL_Driver/Src/stm32f4xx_hal_rtc_ex.c ****     hrtc->State = HAL_RTC_STATE_ERROR;
1546:Drivers/STM32F4xx_HAL_Driver/Src/stm32f4xx_hal_rtc_ex.c **** 
1547:Drivers/STM32F4xx_HAL_Driver/Src/stm32f4xx_hal_rtc_ex.c ****     /* Process Unlocked */
1548:Drivers/STM32F4xx_HAL_Driver/Src/stm32f4xx_hal_rtc_ex.c ****     __HAL_UNLOCK(hrtc);
1549:Drivers/STM32F4xx_HAL_Driver/Src/stm32f4xx_hal_rtc_ex.c **** 
1550:Drivers/STM32F4xx_HAL_Driver/Src/stm32f4xx_hal_rtc_ex.c ****     return HAL_ERROR;
1551:Drivers/STM32F4xx_HAL_Driver/Src/stm32f4xx_hal_rtc_ex.c ****   }
1552:Drivers/STM32F4xx_HAL_Driver/Src/stm32f4xx_hal_rtc_ex.c **** 
1553:Drivers/STM32F4xx_HAL_Driver/Src/stm32f4xx_hal_rtc_ex.c ****   /* Enable the write protection for RTC registers */
1554:Drivers/STM32F4xx_HAL_Driver/Src/stm32f4xx_hal_rtc_ex.c ****   __HAL_RTC_WRITEPROTECTION_ENABLE(hrtc);
1555:Drivers/STM32F4xx_HAL_Driver/Src/stm32f4xx_hal_rtc_ex.c **** 
1556:Drivers/STM32F4xx_HAL_Driver/Src/stm32f4xx_hal_rtc_ex.c ****   /* Change RTC state */
1557:Drivers/STM32F4xx_HAL_Driver/Src/stm32f4xx_hal_rtc_ex.c ****   hrtc->State = HAL_RTC_STATE_READY;
1558:Drivers/STM32F4xx_HAL_Driver/Src/stm32f4xx_hal_rtc_ex.c **** 
1559:Drivers/STM32F4xx_HAL_Driver/Src/stm32f4xx_hal_rtc_ex.c ****   /* Process Unlocked */
1560:Drivers/STM32F4xx_HAL_Driver/Src/stm32f4xx_hal_rtc_ex.c ****   __HAL_UNLOCK(hrtc);
1561:Drivers/STM32F4xx_HAL_Driver/Src/stm32f4xx_hal_rtc_ex.c **** 
1562:Drivers/STM32F4xx_HAL_Driver/Src/stm32f4xx_hal_rtc_ex.c ****   return HAL_OK;
1563:Drivers/STM32F4xx_HAL_Driver/Src/stm32f4xx_hal_rtc_ex.c **** }
 2575              		.loc 1 1563 1 is_stmt 0 view .LVU906
 2576 004e BDE8F081 		pop	{r4, r5, r6, r7, r8, pc}
 2577              	.LVL178:
 2578              	.L165:
1517:Drivers/STM32F4xx_HAL_Driver/Src/stm32f4xx_hal_rtc_ex.c ****   {
 2579              		.loc 1 1517 3 is_stmt 1 view .LVU907
1517:Drivers/STM32F4xx_HAL_Driver/Src/stm32f4xx_hal_rtc_ex.c ****   {
 2580              		.loc 1 1517 22 is_stmt 0 view .LVU908
 2581 0052 9A68     		ldr	r2, [r3, #8]
ARM GAS  /tmp/cc8XWiN3.s 			page 76


1517:Drivers/STM32F4xx_HAL_Driver/Src/stm32f4xx_hal_rtc_ex.c ****   {
 2582              		.loc 1 1517 6 view .LVU909
 2583 0054 12F0100F 		tst	r2, #16
 2584 0058 1DD1     		bne	.L158
1520:Drivers/STM32F4xx_HAL_Driver/Src/stm32f4xx_hal_rtc_ex.c **** 
 2585              		.loc 1 1520 5 is_stmt 1 view .LVU910
1520:Drivers/STM32F4xx_HAL_Driver/Src/stm32f4xx_hal_rtc_ex.c **** 
 2586              		.loc 1 1520 63 is_stmt 0 view .LVU911
 2587 005a 47EA0807 		orr	r7, r7, r8
 2588              	.LVL179:
1520:Drivers/STM32F4xx_HAL_Driver/Src/stm32f4xx_hal_rtc_ex.c **** 
 2589              		.loc 1 1520 28 view .LVU912
 2590 005e DF62     		str	r7, [r3, #44]
1523:Drivers/STM32F4xx_HAL_Driver/Src/stm32f4xx_hal_rtc_ex.c ****     {
 2591              		.loc 1 1523 5 is_stmt 1 view .LVU913
1523:Drivers/STM32F4xx_HAL_Driver/Src/stm32f4xx_hal_rtc_ex.c ****     {
 2592              		.loc 1 1523 14 is_stmt 0 view .LVU914
 2593 0060 2368     		ldr	r3, [r4]
1523:Drivers/STM32F4xx_HAL_Driver/Src/stm32f4xx_hal_rtc_ex.c ****     {
 2594              		.loc 1 1523 24 view .LVU915
 2595 0062 9B68     		ldr	r3, [r3, #8]
1523:Drivers/STM32F4xx_HAL_Driver/Src/stm32f4xx_hal_rtc_ex.c ****     {
 2596              		.loc 1 1523 8 view .LVU916
 2597 0064 13F0200F 		tst	r3, #32
 2598 0068 07D0     		beq	.L166
 2599              	.L159:
1554:Drivers/STM32F4xx_HAL_Driver/Src/stm32f4xx_hal_rtc_ex.c **** 
 2600              		.loc 1 1554 3 is_stmt 1 view .LVU917
1554:Drivers/STM32F4xx_HAL_Driver/Src/stm32f4xx_hal_rtc_ex.c **** 
 2601              		.loc 1 1554 3 view .LVU918
 2602 006a 2368     		ldr	r3, [r4]
 2603 006c FF22     		movs	r2, #255
 2604 006e 5A62     		str	r2, [r3, #36]
1554:Drivers/STM32F4xx_HAL_Driver/Src/stm32f4xx_hal_rtc_ex.c **** 
 2605              		.loc 1 1554 3 view .LVU919
1557:Drivers/STM32F4xx_HAL_Driver/Src/stm32f4xx_hal_rtc_ex.c **** 
 2606              		.loc 1 1557 3 view .LVU920
1557:Drivers/STM32F4xx_HAL_Driver/Src/stm32f4xx_hal_rtc_ex.c **** 
 2607              		.loc 1 1557 15 is_stmt 0 view .LVU921
 2608 0070 0123     		movs	r3, #1
 2609 0072 6377     		strb	r3, [r4, #29]
1560:Drivers/STM32F4xx_HAL_Driver/Src/stm32f4xx_hal_rtc_ex.c **** 
 2610              		.loc 1 1560 3 is_stmt 1 view .LVU922
1560:Drivers/STM32F4xx_HAL_Driver/Src/stm32f4xx_hal_rtc_ex.c **** 
 2611              		.loc 1 1560 3 view .LVU923
 2612 0074 0020     		movs	r0, #0
 2613 0076 2077     		strb	r0, [r4, #28]
1560:Drivers/STM32F4xx_HAL_Driver/Src/stm32f4xx_hal_rtc_ex.c **** 
 2614              		.loc 1 1560 3 view .LVU924
1562:Drivers/STM32F4xx_HAL_Driver/Src/stm32f4xx_hal_rtc_ex.c **** }
 2615              		.loc 1 1562 3 view .LVU925
1562:Drivers/STM32F4xx_HAL_Driver/Src/stm32f4xx_hal_rtc_ex.c **** }
 2616              		.loc 1 1562 10 is_stmt 0 view .LVU926
 2617 0078 E9E7     		b	.L155
 2618              	.L166:
1525:Drivers/STM32F4xx_HAL_Driver/Src/stm32f4xx_hal_rtc_ex.c ****       {
 2619              		.loc 1 1525 7 is_stmt 1 view .LVU927
ARM GAS  /tmp/cc8XWiN3.s 			page 77


1525:Drivers/STM32F4xx_HAL_Driver/Src/stm32f4xx_hal_rtc_ex.c ****       {
 2620              		.loc 1 1525 11 is_stmt 0 view .LVU928
 2621 007a 2046     		mov	r0, r4
 2622 007c FFF7FEFF 		bl	HAL_RTC_WaitForSynchro
 2623              	.LVL180:
1525:Drivers/STM32F4xx_HAL_Driver/Src/stm32f4xx_hal_rtc_ex.c ****       {
 2624              		.loc 1 1525 10 discriminator 1 view .LVU929
 2625 0080 0028     		cmp	r0, #0
 2626 0082 F2D0     		beq	.L159
1528:Drivers/STM32F4xx_HAL_Driver/Src/stm32f4xx_hal_rtc_ex.c **** 
 2627              		.loc 1 1528 9 is_stmt 1 view .LVU930
1528:Drivers/STM32F4xx_HAL_Driver/Src/stm32f4xx_hal_rtc_ex.c **** 
 2628              		.loc 1 1528 9 view .LVU931
 2629 0084 2368     		ldr	r3, [r4]
 2630 0086 FF22     		movs	r2, #255
 2631 0088 5A62     		str	r2, [r3, #36]
1528:Drivers/STM32F4xx_HAL_Driver/Src/stm32f4xx_hal_rtc_ex.c **** 
 2632              		.loc 1 1528 9 view .LVU932
1530:Drivers/STM32F4xx_HAL_Driver/Src/stm32f4xx_hal_rtc_ex.c **** 
 2633              		.loc 1 1530 9 view .LVU933
1530:Drivers/STM32F4xx_HAL_Driver/Src/stm32f4xx_hal_rtc_ex.c **** 
 2634              		.loc 1 1530 21 is_stmt 0 view .LVU934
 2635 008a 0423     		movs	r3, #4
 2636 008c 6377     		strb	r3, [r4, #29]
1533:Drivers/STM32F4xx_HAL_Driver/Src/stm32f4xx_hal_rtc_ex.c **** 
 2637              		.loc 1 1533 9 is_stmt 1 view .LVU935
1533:Drivers/STM32F4xx_HAL_Driver/Src/stm32f4xx_hal_rtc_ex.c **** 
 2638              		.loc 1 1533 9 view .LVU936
 2639 008e 0023     		movs	r3, #0
 2640 0090 2377     		strb	r3, [r4, #28]
1533:Drivers/STM32F4xx_HAL_Driver/Src/stm32f4xx_hal_rtc_ex.c **** 
 2641              		.loc 1 1533 9 view .LVU937
1535:Drivers/STM32F4xx_HAL_Driver/Src/stm32f4xx_hal_rtc_ex.c ****       }
 2642              		.loc 1 1535 9 view .LVU938
1535:Drivers/STM32F4xx_HAL_Driver/Src/stm32f4xx_hal_rtc_ex.c ****       }
 2643              		.loc 1 1535 16 is_stmt 0 view .LVU939
 2644 0092 0120     		movs	r0, #1
 2645 0094 DBE7     		b	.L155
 2646              	.LVL181:
 2647              	.L158:
1542:Drivers/STM32F4xx_HAL_Driver/Src/stm32f4xx_hal_rtc_ex.c **** 
 2648              		.loc 1 1542 5 is_stmt 1 view .LVU940
1542:Drivers/STM32F4xx_HAL_Driver/Src/stm32f4xx_hal_rtc_ex.c **** 
 2649              		.loc 1 1542 5 view .LVU941
 2650 0096 FF22     		movs	r2, #255
 2651 0098 5A62     		str	r2, [r3, #36]
1542:Drivers/STM32F4xx_HAL_Driver/Src/stm32f4xx_hal_rtc_ex.c **** 
 2652              		.loc 1 1542 5 view .LVU942
1545:Drivers/STM32F4xx_HAL_Driver/Src/stm32f4xx_hal_rtc_ex.c **** 
 2653              		.loc 1 1545 5 view .LVU943
1545:Drivers/STM32F4xx_HAL_Driver/Src/stm32f4xx_hal_rtc_ex.c **** 
 2654              		.loc 1 1545 17 is_stmt 0 view .LVU944
 2655 009a 0423     		movs	r3, #4
 2656 009c 6377     		strb	r3, [r4, #29]
1548:Drivers/STM32F4xx_HAL_Driver/Src/stm32f4xx_hal_rtc_ex.c **** 
 2657              		.loc 1 1548 5 is_stmt 1 view .LVU945
1548:Drivers/STM32F4xx_HAL_Driver/Src/stm32f4xx_hal_rtc_ex.c **** 
ARM GAS  /tmp/cc8XWiN3.s 			page 78


 2658              		.loc 1 1548 5 view .LVU946
 2659 009e 0023     		movs	r3, #0
 2660 00a0 2377     		strb	r3, [r4, #28]
1548:Drivers/STM32F4xx_HAL_Driver/Src/stm32f4xx_hal_rtc_ex.c **** 
 2661              		.loc 1 1548 5 view .LVU947
1550:Drivers/STM32F4xx_HAL_Driver/Src/stm32f4xx_hal_rtc_ex.c ****   }
 2662              		.loc 1 1550 5 view .LVU948
1550:Drivers/STM32F4xx_HAL_Driver/Src/stm32f4xx_hal_rtc_ex.c ****   }
 2663              		.loc 1 1550 12 is_stmt 0 view .LVU949
 2664 00a2 0120     		movs	r0, #1
 2665 00a4 D3E7     		b	.L155
 2666              	.LVL182:
 2667              	.L160:
 2668              		.cfi_def_cfa_offset 0
 2669              		.cfi_restore 4
 2670              		.cfi_restore 5
 2671              		.cfi_restore 6
 2672              		.cfi_restore 7
 2673              		.cfi_restore 8
 2674              		.cfi_restore 14
1489:Drivers/STM32F4xx_HAL_Driver/Src/stm32f4xx_hal_rtc_ex.c **** 
 2675              		.loc 1 1489 3 discriminator 1 view .LVU950
 2676 00a6 0220     		movs	r0, #2
 2677              	.LVL183:
 2678              		.loc 1 1563 1 view .LVU951
 2679 00a8 7047     		bx	lr
 2680              		.cfi_endproc
 2681              	.LFE154:
 2683              		.section	.text.HAL_RTCEx_SetCalibrationOutPut,"ax",%progbits
 2684              		.align	1
 2685              		.global	HAL_RTCEx_SetCalibrationOutPut
 2686              		.syntax unified
 2687              		.thumb
 2688              		.thumb_func
 2690              	HAL_RTCEx_SetCalibrationOutPut:
 2691              	.LVL184:
 2692              	.LFB155:
1564:Drivers/STM32F4xx_HAL_Driver/Src/stm32f4xx_hal_rtc_ex.c **** 
1565:Drivers/STM32F4xx_HAL_Driver/Src/stm32f4xx_hal_rtc_ex.c **** /**
1566:Drivers/STM32F4xx_HAL_Driver/Src/stm32f4xx_hal_rtc_ex.c ****   * @brief  Configures the Calibration Pinout (RTC_CALIB) Selection (1Hz or 512Hz).
1567:Drivers/STM32F4xx_HAL_Driver/Src/stm32f4xx_hal_rtc_ex.c ****   * @param  hrtc pointer to a RTC_HandleTypeDef structure that contains
1568:Drivers/STM32F4xx_HAL_Driver/Src/stm32f4xx_hal_rtc_ex.c ****   *                the configuration information for RTC.
1569:Drivers/STM32F4xx_HAL_Driver/Src/stm32f4xx_hal_rtc_ex.c ****   * @param  CalibOutput Select the Calibration output Selection.
1570:Drivers/STM32F4xx_HAL_Driver/Src/stm32f4xx_hal_rtc_ex.c ****   *          This parameter can be one of the following values:
1571:Drivers/STM32F4xx_HAL_Driver/Src/stm32f4xx_hal_rtc_ex.c ****   *             @arg RTC_CALIBOUTPUT_512HZ: A signal has a regular waveform at 512Hz.
1572:Drivers/STM32F4xx_HAL_Driver/Src/stm32f4xx_hal_rtc_ex.c ****   *             @arg RTC_CALIBOUTPUT_1HZ: A signal has a regular waveform at 1Hz.
1573:Drivers/STM32F4xx_HAL_Driver/Src/stm32f4xx_hal_rtc_ex.c ****   * @retval HAL status
1574:Drivers/STM32F4xx_HAL_Driver/Src/stm32f4xx_hal_rtc_ex.c ****   */
1575:Drivers/STM32F4xx_HAL_Driver/Src/stm32f4xx_hal_rtc_ex.c **** HAL_StatusTypeDef HAL_RTCEx_SetCalibrationOutPut(RTC_HandleTypeDef *hrtc, uint32_t CalibOutput)
1576:Drivers/STM32F4xx_HAL_Driver/Src/stm32f4xx_hal_rtc_ex.c **** {
 2693              		.loc 1 1576 1 is_stmt 1 view -0
 2694              		.cfi_startproc
 2695              		@ args = 0, pretend = 0, frame = 0
 2696              		@ frame_needed = 0, uses_anonymous_args = 0
 2697              		@ link register save eliminated.
1577:Drivers/STM32F4xx_HAL_Driver/Src/stm32f4xx_hal_rtc_ex.c ****   /* Check the parameters */
1578:Drivers/STM32F4xx_HAL_Driver/Src/stm32f4xx_hal_rtc_ex.c ****   assert_param(IS_RTC_CALIB_OUTPUT(CalibOutput));
ARM GAS  /tmp/cc8XWiN3.s 			page 79


 2698              		.loc 1 1578 3 view .LVU953
1579:Drivers/STM32F4xx_HAL_Driver/Src/stm32f4xx_hal_rtc_ex.c **** 
1580:Drivers/STM32F4xx_HAL_Driver/Src/stm32f4xx_hal_rtc_ex.c ****   /* Process Locked */
1581:Drivers/STM32F4xx_HAL_Driver/Src/stm32f4xx_hal_rtc_ex.c ****   __HAL_LOCK(hrtc);
 2699              		.loc 1 1581 3 view .LVU954
 2700              		.loc 1 1581 3 view .LVU955
 2701 0000 027F     		ldrb	r2, [r0, #28]	@ zero_extendqisi2
 2702 0002 012A     		cmp	r2, #1
 2703 0004 22D0     		beq	.L169
1576:Drivers/STM32F4xx_HAL_Driver/Src/stm32f4xx_hal_rtc_ex.c ****   /* Check the parameters */
 2704              		.loc 1 1576 1 is_stmt 0 view .LVU956
 2705 0006 10B4     		push	{r4}
 2706              		.cfi_def_cfa_offset 4
 2707              		.cfi_offset 4, -4
 2708 0008 0346     		mov	r3, r0
 2709              		.loc 1 1581 3 is_stmt 1 discriminator 2 view .LVU957
 2710 000a 0120     		movs	r0, #1
 2711              	.LVL185:
 2712              		.loc 1 1581 3 is_stmt 0 discriminator 2 view .LVU958
 2713 000c 1877     		strb	r0, [r3, #28]
 2714              		.loc 1 1581 3 is_stmt 1 view .LVU959
1582:Drivers/STM32F4xx_HAL_Driver/Src/stm32f4xx_hal_rtc_ex.c **** 
1583:Drivers/STM32F4xx_HAL_Driver/Src/stm32f4xx_hal_rtc_ex.c ****   hrtc->State = HAL_RTC_STATE_BUSY;
 2715              		.loc 1 1583 3 view .LVU960
 2716              		.loc 1 1583 15 is_stmt 0 view .LVU961
 2717 000e 0222     		movs	r2, #2
 2718 0010 5A77     		strb	r2, [r3, #29]
1584:Drivers/STM32F4xx_HAL_Driver/Src/stm32f4xx_hal_rtc_ex.c **** 
1585:Drivers/STM32F4xx_HAL_Driver/Src/stm32f4xx_hal_rtc_ex.c ****   /* Disable the write protection for RTC registers */
1586:Drivers/STM32F4xx_HAL_Driver/Src/stm32f4xx_hal_rtc_ex.c ****   __HAL_RTC_WRITEPROTECTION_DISABLE(hrtc);
 2719              		.loc 1 1586 3 is_stmt 1 view .LVU962
 2720              		.loc 1 1586 3 view .LVU963
 2721 0012 1A68     		ldr	r2, [r3]
 2722 0014 CA24     		movs	r4, #202
 2723 0016 5462     		str	r4, [r2, #36]
 2724              		.loc 1 1586 3 view .LVU964
 2725 0018 1A68     		ldr	r2, [r3]
 2726 001a 5324     		movs	r4, #83
 2727 001c 5462     		str	r4, [r2, #36]
 2728              		.loc 1 1586 3 view .LVU965
1587:Drivers/STM32F4xx_HAL_Driver/Src/stm32f4xx_hal_rtc_ex.c **** 
1588:Drivers/STM32F4xx_HAL_Driver/Src/stm32f4xx_hal_rtc_ex.c ****   /* Clear flags before config */
1589:Drivers/STM32F4xx_HAL_Driver/Src/stm32f4xx_hal_rtc_ex.c ****   hrtc->Instance->CR &= (uint32_t)~RTC_CR_COSEL;
 2729              		.loc 1 1589 3 view .LVU966
 2730              		.loc 1 1589 7 is_stmt 0 view .LVU967
 2731 001e 1C68     		ldr	r4, [r3]
 2732              		.loc 1 1589 17 view .LVU968
 2733 0020 A268     		ldr	r2, [r4, #8]
 2734              		.loc 1 1589 22 view .LVU969
 2735 0022 22F40022 		bic	r2, r2, #524288
 2736 0026 A260     		str	r2, [r4, #8]
1590:Drivers/STM32F4xx_HAL_Driver/Src/stm32f4xx_hal_rtc_ex.c **** 
1591:Drivers/STM32F4xx_HAL_Driver/Src/stm32f4xx_hal_rtc_ex.c ****   /* Configure the RTC_CR register */
1592:Drivers/STM32F4xx_HAL_Driver/Src/stm32f4xx_hal_rtc_ex.c ****   hrtc->Instance->CR |= (uint32_t)CalibOutput;
 2737              		.loc 1 1592 3 is_stmt 1 view .LVU970
 2738              		.loc 1 1592 7 is_stmt 0 view .LVU971
 2739 0028 1C68     		ldr	r4, [r3]
ARM GAS  /tmp/cc8XWiN3.s 			page 80


 2740              		.loc 1 1592 17 view .LVU972
 2741 002a A268     		ldr	r2, [r4, #8]
 2742              		.loc 1 1592 22 view .LVU973
 2743 002c 0A43     		orrs	r2, r2, r1
 2744 002e A260     		str	r2, [r4, #8]
1593:Drivers/STM32F4xx_HAL_Driver/Src/stm32f4xx_hal_rtc_ex.c **** 
1594:Drivers/STM32F4xx_HAL_Driver/Src/stm32f4xx_hal_rtc_ex.c ****   __HAL_RTC_CALIBRATION_OUTPUT_ENABLE(hrtc);
 2745              		.loc 1 1594 3 is_stmt 1 view .LVU974
 2746 0030 1968     		ldr	r1, [r3]
 2747              	.LVL186:
 2748              		.loc 1 1594 3 is_stmt 0 view .LVU975
 2749 0032 8A68     		ldr	r2, [r1, #8]
 2750 0034 42F40002 		orr	r2, r2, #8388608
 2751 0038 8A60     		str	r2, [r1, #8]
1595:Drivers/STM32F4xx_HAL_Driver/Src/stm32f4xx_hal_rtc_ex.c **** 
1596:Drivers/STM32F4xx_HAL_Driver/Src/stm32f4xx_hal_rtc_ex.c ****   /* Enable the write protection for RTC registers */
1597:Drivers/STM32F4xx_HAL_Driver/Src/stm32f4xx_hal_rtc_ex.c ****   __HAL_RTC_WRITEPROTECTION_ENABLE(hrtc);
 2752              		.loc 1 1597 3 is_stmt 1 view .LVU976
 2753              		.loc 1 1597 3 view .LVU977
 2754 003a 1A68     		ldr	r2, [r3]
 2755 003c FF21     		movs	r1, #255
 2756 003e 5162     		str	r1, [r2, #36]
 2757              		.loc 1 1597 3 view .LVU978
1598:Drivers/STM32F4xx_HAL_Driver/Src/stm32f4xx_hal_rtc_ex.c **** 
1599:Drivers/STM32F4xx_HAL_Driver/Src/stm32f4xx_hal_rtc_ex.c ****   /* Change RTC state */
1600:Drivers/STM32F4xx_HAL_Driver/Src/stm32f4xx_hal_rtc_ex.c ****   hrtc->State = HAL_RTC_STATE_READY;
 2758              		.loc 1 1600 3 view .LVU979
 2759              		.loc 1 1600 15 is_stmt 0 view .LVU980
 2760 0040 5877     		strb	r0, [r3, #29]
1601:Drivers/STM32F4xx_HAL_Driver/Src/stm32f4xx_hal_rtc_ex.c **** 
1602:Drivers/STM32F4xx_HAL_Driver/Src/stm32f4xx_hal_rtc_ex.c ****   /* Process Unlocked */
1603:Drivers/STM32F4xx_HAL_Driver/Src/stm32f4xx_hal_rtc_ex.c ****   __HAL_UNLOCK(hrtc);
 2761              		.loc 1 1603 3 is_stmt 1 view .LVU981
 2762              		.loc 1 1603 3 view .LVU982
 2763 0042 0020     		movs	r0, #0
 2764 0044 1877     		strb	r0, [r3, #28]
 2765              		.loc 1 1603 3 view .LVU983
1604:Drivers/STM32F4xx_HAL_Driver/Src/stm32f4xx_hal_rtc_ex.c **** 
1605:Drivers/STM32F4xx_HAL_Driver/Src/stm32f4xx_hal_rtc_ex.c ****   return HAL_OK;
 2766              		.loc 1 1605 3 view .LVU984
1606:Drivers/STM32F4xx_HAL_Driver/Src/stm32f4xx_hal_rtc_ex.c **** }
 2767              		.loc 1 1606 1 is_stmt 0 view .LVU985
 2768 0046 5DF8044B 		ldr	r4, [sp], #4
 2769              		.cfi_restore 4
 2770              		.cfi_def_cfa_offset 0
 2771 004a 7047     		bx	lr
 2772              	.LVL187:
 2773              	.L169:
1581:Drivers/STM32F4xx_HAL_Driver/Src/stm32f4xx_hal_rtc_ex.c **** 
 2774              		.loc 1 1581 3 discriminator 1 view .LVU986
 2775 004c 0220     		movs	r0, #2
 2776              	.LVL188:
 2777              		.loc 1 1606 1 view .LVU987
 2778 004e 7047     		bx	lr
 2779              		.cfi_endproc
 2780              	.LFE155:
 2782              		.section	.text.HAL_RTCEx_DeactivateCalibrationOutPut,"ax",%progbits
ARM GAS  /tmp/cc8XWiN3.s 			page 81


 2783              		.align	1
 2784              		.global	HAL_RTCEx_DeactivateCalibrationOutPut
 2785              		.syntax unified
 2786              		.thumb
 2787              		.thumb_func
 2789              	HAL_RTCEx_DeactivateCalibrationOutPut:
 2790              	.LVL189:
 2791              	.LFB156:
1607:Drivers/STM32F4xx_HAL_Driver/Src/stm32f4xx_hal_rtc_ex.c **** 
1608:Drivers/STM32F4xx_HAL_Driver/Src/stm32f4xx_hal_rtc_ex.c **** /**
1609:Drivers/STM32F4xx_HAL_Driver/Src/stm32f4xx_hal_rtc_ex.c ****   * @brief  Deactivates the Calibration Pinout (RTC_CALIB) Selection (1Hz or 512Hz).
1610:Drivers/STM32F4xx_HAL_Driver/Src/stm32f4xx_hal_rtc_ex.c ****   * @param  hrtc pointer to a RTC_HandleTypeDef structure that contains
1611:Drivers/STM32F4xx_HAL_Driver/Src/stm32f4xx_hal_rtc_ex.c ****   *                the configuration information for RTC.
1612:Drivers/STM32F4xx_HAL_Driver/Src/stm32f4xx_hal_rtc_ex.c ****   * @retval HAL status
1613:Drivers/STM32F4xx_HAL_Driver/Src/stm32f4xx_hal_rtc_ex.c ****   */
1614:Drivers/STM32F4xx_HAL_Driver/Src/stm32f4xx_hal_rtc_ex.c **** HAL_StatusTypeDef HAL_RTCEx_DeactivateCalibrationOutPut(RTC_HandleTypeDef *hrtc)
1615:Drivers/STM32F4xx_HAL_Driver/Src/stm32f4xx_hal_rtc_ex.c **** {
 2792              		.loc 1 1615 1 is_stmt 1 view -0
 2793              		.cfi_startproc
 2794              		@ args = 0, pretend = 0, frame = 0
 2795              		@ frame_needed = 0, uses_anonymous_args = 0
 2796              		@ link register save eliminated.
1616:Drivers/STM32F4xx_HAL_Driver/Src/stm32f4xx_hal_rtc_ex.c ****   /* Process Locked */
1617:Drivers/STM32F4xx_HAL_Driver/Src/stm32f4xx_hal_rtc_ex.c ****   __HAL_LOCK(hrtc);
 2797              		.loc 1 1617 3 view .LVU989
 2798              		.loc 1 1617 3 view .LVU990
 2799 0000 037F     		ldrb	r3, [r0, #28]	@ zero_extendqisi2
 2800 0002 012B     		cmp	r3, #1
 2801 0004 16D0     		beq	.L176
 2802              		.loc 1 1617 3 discriminator 2 view .LVU991
 2803 0006 0122     		movs	r2, #1
 2804 0008 0277     		strb	r2, [r0, #28]
 2805              		.loc 1 1617 3 view .LVU992
1618:Drivers/STM32F4xx_HAL_Driver/Src/stm32f4xx_hal_rtc_ex.c **** 
1619:Drivers/STM32F4xx_HAL_Driver/Src/stm32f4xx_hal_rtc_ex.c ****   hrtc->State = HAL_RTC_STATE_BUSY;
 2806              		.loc 1 1619 3 view .LVU993
 2807              		.loc 1 1619 15 is_stmt 0 view .LVU994
 2808 000a 0223     		movs	r3, #2
 2809 000c 4377     		strb	r3, [r0, #29]
1620:Drivers/STM32F4xx_HAL_Driver/Src/stm32f4xx_hal_rtc_ex.c **** 
1621:Drivers/STM32F4xx_HAL_Driver/Src/stm32f4xx_hal_rtc_ex.c ****   /* Disable the write protection for RTC registers */
1622:Drivers/STM32F4xx_HAL_Driver/Src/stm32f4xx_hal_rtc_ex.c ****   __HAL_RTC_WRITEPROTECTION_DISABLE(hrtc);
 2810              		.loc 1 1622 3 is_stmt 1 view .LVU995
 2811              		.loc 1 1622 3 view .LVU996
 2812 000e 0368     		ldr	r3, [r0]
 2813 0010 CA21     		movs	r1, #202
 2814 0012 5962     		str	r1, [r3, #36]
 2815              		.loc 1 1622 3 view .LVU997
 2816 0014 0368     		ldr	r3, [r0]
 2817 0016 5321     		movs	r1, #83
 2818 0018 5962     		str	r1, [r3, #36]
 2819              		.loc 1 1622 3 view .LVU998
1623:Drivers/STM32F4xx_HAL_Driver/Src/stm32f4xx_hal_rtc_ex.c **** 
1624:Drivers/STM32F4xx_HAL_Driver/Src/stm32f4xx_hal_rtc_ex.c ****   __HAL_RTC_CALIBRATION_OUTPUT_DISABLE(hrtc);
 2820              		.loc 1 1624 3 view .LVU999
 2821 001a 0168     		ldr	r1, [r0]
 2822 001c 8B68     		ldr	r3, [r1, #8]
ARM GAS  /tmp/cc8XWiN3.s 			page 82


 2823 001e 23F40003 		bic	r3, r3, #8388608
 2824 0022 8B60     		str	r3, [r1, #8]
1625:Drivers/STM32F4xx_HAL_Driver/Src/stm32f4xx_hal_rtc_ex.c **** 
1626:Drivers/STM32F4xx_HAL_Driver/Src/stm32f4xx_hal_rtc_ex.c ****   /* Enable the write protection for RTC registers */
1627:Drivers/STM32F4xx_HAL_Driver/Src/stm32f4xx_hal_rtc_ex.c ****   __HAL_RTC_WRITEPROTECTION_ENABLE(hrtc);
 2825              		.loc 1 1627 3 view .LVU1000
 2826              		.loc 1 1627 3 view .LVU1001
 2827 0024 0368     		ldr	r3, [r0]
 2828 0026 FF21     		movs	r1, #255
 2829 0028 5962     		str	r1, [r3, #36]
 2830              		.loc 1 1627 3 view .LVU1002
1628:Drivers/STM32F4xx_HAL_Driver/Src/stm32f4xx_hal_rtc_ex.c **** 
1629:Drivers/STM32F4xx_HAL_Driver/Src/stm32f4xx_hal_rtc_ex.c ****   /* Change RTC state */
1630:Drivers/STM32F4xx_HAL_Driver/Src/stm32f4xx_hal_rtc_ex.c ****   hrtc->State = HAL_RTC_STATE_READY;
 2831              		.loc 1 1630 3 view .LVU1003
 2832              		.loc 1 1630 15 is_stmt 0 view .LVU1004
 2833 002a 4277     		strb	r2, [r0, #29]
1631:Drivers/STM32F4xx_HAL_Driver/Src/stm32f4xx_hal_rtc_ex.c **** 
1632:Drivers/STM32F4xx_HAL_Driver/Src/stm32f4xx_hal_rtc_ex.c ****   /* Process Unlocked */
1633:Drivers/STM32F4xx_HAL_Driver/Src/stm32f4xx_hal_rtc_ex.c ****   __HAL_UNLOCK(hrtc);
 2834              		.loc 1 1633 3 is_stmt 1 view .LVU1005
 2835              		.loc 1 1633 3 view .LVU1006
 2836 002c 0023     		movs	r3, #0
 2837 002e 0377     		strb	r3, [r0, #28]
 2838              		.loc 1 1633 3 view .LVU1007
1634:Drivers/STM32F4xx_HAL_Driver/Src/stm32f4xx_hal_rtc_ex.c **** 
1635:Drivers/STM32F4xx_HAL_Driver/Src/stm32f4xx_hal_rtc_ex.c ****   return HAL_OK;
 2839              		.loc 1 1635 3 view .LVU1008
 2840              		.loc 1 1635 10 is_stmt 0 view .LVU1009
 2841 0030 1846     		mov	r0, r3
 2842              	.LVL190:
 2843              		.loc 1 1635 10 view .LVU1010
 2844 0032 7047     		bx	lr
 2845              	.LVL191:
 2846              	.L176:
1617:Drivers/STM32F4xx_HAL_Driver/Src/stm32f4xx_hal_rtc_ex.c **** 
 2847              		.loc 1 1617 3 discriminator 1 view .LVU1011
 2848 0034 0220     		movs	r0, #2
 2849              	.LVL192:
1636:Drivers/STM32F4xx_HAL_Driver/Src/stm32f4xx_hal_rtc_ex.c **** }
 2850              		.loc 1 1636 1 view .LVU1012
 2851 0036 7047     		bx	lr
 2852              		.cfi_endproc
 2853              	.LFE156:
 2855              		.section	.text.HAL_RTCEx_SetRefClock,"ax",%progbits
 2856              		.align	1
 2857              		.global	HAL_RTCEx_SetRefClock
 2858              		.syntax unified
 2859              		.thumb
 2860              		.thumb_func
 2862              	HAL_RTCEx_SetRefClock:
 2863              	.LVL193:
 2864              	.LFB157:
1637:Drivers/STM32F4xx_HAL_Driver/Src/stm32f4xx_hal_rtc_ex.c **** 
1638:Drivers/STM32F4xx_HAL_Driver/Src/stm32f4xx_hal_rtc_ex.c **** /**
1639:Drivers/STM32F4xx_HAL_Driver/Src/stm32f4xx_hal_rtc_ex.c ****   * @brief  Enables the RTC reference clock detection.
1640:Drivers/STM32F4xx_HAL_Driver/Src/stm32f4xx_hal_rtc_ex.c ****   * @param  hrtc pointer to a RTC_HandleTypeDef structure that contains
ARM GAS  /tmp/cc8XWiN3.s 			page 83


1641:Drivers/STM32F4xx_HAL_Driver/Src/stm32f4xx_hal_rtc_ex.c ****   *                the configuration information for RTC.
1642:Drivers/STM32F4xx_HAL_Driver/Src/stm32f4xx_hal_rtc_ex.c ****   * @retval HAL status
1643:Drivers/STM32F4xx_HAL_Driver/Src/stm32f4xx_hal_rtc_ex.c ****   */
1644:Drivers/STM32F4xx_HAL_Driver/Src/stm32f4xx_hal_rtc_ex.c **** HAL_StatusTypeDef HAL_RTCEx_SetRefClock(RTC_HandleTypeDef *hrtc)
1645:Drivers/STM32F4xx_HAL_Driver/Src/stm32f4xx_hal_rtc_ex.c **** {
 2865              		.loc 1 1645 1 is_stmt 1 view -0
 2866              		.cfi_startproc
 2867              		@ args = 0, pretend = 0, frame = 0
 2868              		@ frame_needed = 0, uses_anonymous_args = 0
1646:Drivers/STM32F4xx_HAL_Driver/Src/stm32f4xx_hal_rtc_ex.c ****   HAL_StatusTypeDef status;
 2869              		.loc 1 1646 3 view .LVU1014
1647:Drivers/STM32F4xx_HAL_Driver/Src/stm32f4xx_hal_rtc_ex.c **** 
1648:Drivers/STM32F4xx_HAL_Driver/Src/stm32f4xx_hal_rtc_ex.c ****   /* Process Locked */
1649:Drivers/STM32F4xx_HAL_Driver/Src/stm32f4xx_hal_rtc_ex.c ****   __HAL_LOCK(hrtc);
 2870              		.loc 1 1649 3 view .LVU1015
 2871              		.loc 1 1649 3 view .LVU1016
 2872 0000 037F     		ldrb	r3, [r0, #28]	@ zero_extendqisi2
 2873 0002 012B     		cmp	r3, #1
 2874 0004 21D0     		beq	.L180
1645:Drivers/STM32F4xx_HAL_Driver/Src/stm32f4xx_hal_rtc_ex.c ****   HAL_StatusTypeDef status;
 2875              		.loc 1 1645 1 is_stmt 0 view .LVU1017
 2876 0006 10B5     		push	{r4, lr}
 2877              		.cfi_def_cfa_offset 8
 2878              		.cfi_offset 4, -8
 2879              		.cfi_offset 14, -4
 2880 0008 0446     		mov	r4, r0
 2881              		.loc 1 1649 3 is_stmt 1 discriminator 2 view .LVU1018
 2882 000a 0123     		movs	r3, #1
 2883 000c 0377     		strb	r3, [r0, #28]
 2884              		.loc 1 1649 3 view .LVU1019
1650:Drivers/STM32F4xx_HAL_Driver/Src/stm32f4xx_hal_rtc_ex.c **** 
1651:Drivers/STM32F4xx_HAL_Driver/Src/stm32f4xx_hal_rtc_ex.c ****   hrtc->State = HAL_RTC_STATE_BUSY;
 2885              		.loc 1 1651 3 view .LVU1020
 2886              		.loc 1 1651 15 is_stmt 0 view .LVU1021
 2887 000e 0223     		movs	r3, #2
 2888 0010 4377     		strb	r3, [r0, #29]
1652:Drivers/STM32F4xx_HAL_Driver/Src/stm32f4xx_hal_rtc_ex.c **** 
1653:Drivers/STM32F4xx_HAL_Driver/Src/stm32f4xx_hal_rtc_ex.c ****   /* Disable the write protection for RTC registers */
1654:Drivers/STM32F4xx_HAL_Driver/Src/stm32f4xx_hal_rtc_ex.c ****   __HAL_RTC_WRITEPROTECTION_DISABLE(hrtc);
 2889              		.loc 1 1654 3 is_stmt 1 view .LVU1022
 2890              		.loc 1 1654 3 view .LVU1023
 2891 0012 0368     		ldr	r3, [r0]
 2892 0014 CA22     		movs	r2, #202
 2893 0016 5A62     		str	r2, [r3, #36]
 2894              		.loc 1 1654 3 view .LVU1024
 2895 0018 0368     		ldr	r3, [r0]
 2896 001a 5322     		movs	r2, #83
 2897 001c 5A62     		str	r2, [r3, #36]
 2898              		.loc 1 1654 3 view .LVU1025
1655:Drivers/STM32F4xx_HAL_Driver/Src/stm32f4xx_hal_rtc_ex.c **** 
1656:Drivers/STM32F4xx_HAL_Driver/Src/stm32f4xx_hal_rtc_ex.c ****   /* Enter Initialization mode */
1657:Drivers/STM32F4xx_HAL_Driver/Src/stm32f4xx_hal_rtc_ex.c ****   status = RTC_EnterInitMode(hrtc);
 2899              		.loc 1 1657 3 view .LVU1026
 2900              		.loc 1 1657 12 is_stmt 0 view .LVU1027
 2901 001e FFF7FEFF 		bl	RTC_EnterInitMode
 2902              	.LVL194:
1658:Drivers/STM32F4xx_HAL_Driver/Src/stm32f4xx_hal_rtc_ex.c **** 
ARM GAS  /tmp/cc8XWiN3.s 			page 84


1659:Drivers/STM32F4xx_HAL_Driver/Src/stm32f4xx_hal_rtc_ex.c ****   if (status == HAL_OK)
 2903              		.loc 1 1659 3 is_stmt 1 view .LVU1028
 2904              		.loc 1 1659 6 is_stmt 0 view .LVU1029
 2905 0022 28B1     		cbz	r0, .L185
 2906              	.L179:
 2907              	.LVL195:
1660:Drivers/STM32F4xx_HAL_Driver/Src/stm32f4xx_hal_rtc_ex.c ****   {
1661:Drivers/STM32F4xx_HAL_Driver/Src/stm32f4xx_hal_rtc_ex.c ****     /* Enable the reference clock detection */
1662:Drivers/STM32F4xx_HAL_Driver/Src/stm32f4xx_hal_rtc_ex.c ****     __HAL_RTC_CLOCKREF_DETECTION_ENABLE(hrtc);
1663:Drivers/STM32F4xx_HAL_Driver/Src/stm32f4xx_hal_rtc_ex.c **** 
1664:Drivers/STM32F4xx_HAL_Driver/Src/stm32f4xx_hal_rtc_ex.c ****     /* Exit Initialization mode */
1665:Drivers/STM32F4xx_HAL_Driver/Src/stm32f4xx_hal_rtc_ex.c ****     status = RTC_ExitInitMode(hrtc);
1666:Drivers/STM32F4xx_HAL_Driver/Src/stm32f4xx_hal_rtc_ex.c ****   }
1667:Drivers/STM32F4xx_HAL_Driver/Src/stm32f4xx_hal_rtc_ex.c **** 
1668:Drivers/STM32F4xx_HAL_Driver/Src/stm32f4xx_hal_rtc_ex.c ****   if (status == HAL_OK)
1669:Drivers/STM32F4xx_HAL_Driver/Src/stm32f4xx_hal_rtc_ex.c ****   {
1670:Drivers/STM32F4xx_HAL_Driver/Src/stm32f4xx_hal_rtc_ex.c ****     hrtc->State = HAL_RTC_STATE_READY;
1671:Drivers/STM32F4xx_HAL_Driver/Src/stm32f4xx_hal_rtc_ex.c ****   }
1672:Drivers/STM32F4xx_HAL_Driver/Src/stm32f4xx_hal_rtc_ex.c **** 
1673:Drivers/STM32F4xx_HAL_Driver/Src/stm32f4xx_hal_rtc_ex.c ****   /* Enable the write protection for RTC registers */
1674:Drivers/STM32F4xx_HAL_Driver/Src/stm32f4xx_hal_rtc_ex.c ****   __HAL_RTC_WRITEPROTECTION_ENABLE(hrtc);
 2908              		.loc 1 1674 3 is_stmt 1 view .LVU1030
 2909              		.loc 1 1674 3 view .LVU1031
 2910 0024 2368     		ldr	r3, [r4]
 2911 0026 FF22     		movs	r2, #255
 2912 0028 5A62     		str	r2, [r3, #36]
 2913              		.loc 1 1674 3 view .LVU1032
1675:Drivers/STM32F4xx_HAL_Driver/Src/stm32f4xx_hal_rtc_ex.c **** 
1676:Drivers/STM32F4xx_HAL_Driver/Src/stm32f4xx_hal_rtc_ex.c ****   /* Process Unlocked */
1677:Drivers/STM32F4xx_HAL_Driver/Src/stm32f4xx_hal_rtc_ex.c ****   __HAL_UNLOCK(hrtc);
 2914              		.loc 1 1677 3 view .LVU1033
 2915              		.loc 1 1677 3 view .LVU1034
 2916 002a 0023     		movs	r3, #0
 2917 002c 2377     		strb	r3, [r4, #28]
 2918              		.loc 1 1677 3 view .LVU1035
1678:Drivers/STM32F4xx_HAL_Driver/Src/stm32f4xx_hal_rtc_ex.c **** 
1679:Drivers/STM32F4xx_HAL_Driver/Src/stm32f4xx_hal_rtc_ex.c ****   return status;
 2919              		.loc 1 1679 3 view .LVU1036
1680:Drivers/STM32F4xx_HAL_Driver/Src/stm32f4xx_hal_rtc_ex.c **** }
 2920              		.loc 1 1680 1 is_stmt 0 view .LVU1037
 2921 002e 10BD     		pop	{r4, pc}
 2922              	.LVL196:
 2923              	.L185:
1662:Drivers/STM32F4xx_HAL_Driver/Src/stm32f4xx_hal_rtc_ex.c **** 
 2924              		.loc 1 1662 5 is_stmt 1 view .LVU1038
 2925 0030 2268     		ldr	r2, [r4]
 2926 0032 9368     		ldr	r3, [r2, #8]
 2927 0034 43F01003 		orr	r3, r3, #16
 2928 0038 9360     		str	r3, [r2, #8]
1665:Drivers/STM32F4xx_HAL_Driver/Src/stm32f4xx_hal_rtc_ex.c ****   }
 2929              		.loc 1 1665 5 view .LVU1039
1665:Drivers/STM32F4xx_HAL_Driver/Src/stm32f4xx_hal_rtc_ex.c ****   }
 2930              		.loc 1 1665 14 is_stmt 0 view .LVU1040
 2931 003a 2046     		mov	r0, r4
 2932              	.LVL197:
1665:Drivers/STM32F4xx_HAL_Driver/Src/stm32f4xx_hal_rtc_ex.c ****   }
 2933              		.loc 1 1665 14 view .LVU1041
ARM GAS  /tmp/cc8XWiN3.s 			page 85


 2934 003c FFF7FEFF 		bl	RTC_ExitInitMode
 2935              	.LVL198:
1668:Drivers/STM32F4xx_HAL_Driver/Src/stm32f4xx_hal_rtc_ex.c ****   {
 2936              		.loc 1 1668 3 is_stmt 1 view .LVU1042
1668:Drivers/STM32F4xx_HAL_Driver/Src/stm32f4xx_hal_rtc_ex.c ****   {
 2937              		.loc 1 1668 6 is_stmt 0 view .LVU1043
 2938 0040 0028     		cmp	r0, #0
 2939 0042 EFD1     		bne	.L179
1670:Drivers/STM32F4xx_HAL_Driver/Src/stm32f4xx_hal_rtc_ex.c ****   }
 2940              		.loc 1 1670 5 is_stmt 1 view .LVU1044
1670:Drivers/STM32F4xx_HAL_Driver/Src/stm32f4xx_hal_rtc_ex.c ****   }
 2941              		.loc 1 1670 17 is_stmt 0 view .LVU1045
 2942 0044 0123     		movs	r3, #1
 2943 0046 6377     		strb	r3, [r4, #29]
 2944 0048 ECE7     		b	.L179
 2945              	.LVL199:
 2946              	.L180:
 2947              		.cfi_def_cfa_offset 0
 2948              		.cfi_restore 4
 2949              		.cfi_restore 14
1649:Drivers/STM32F4xx_HAL_Driver/Src/stm32f4xx_hal_rtc_ex.c **** 
 2950              		.loc 1 1649 3 discriminator 1 view .LVU1046
 2951 004a 0220     		movs	r0, #2
 2952              	.LVL200:
 2953              		.loc 1 1680 1 view .LVU1047
 2954 004c 7047     		bx	lr
 2955              		.cfi_endproc
 2956              	.LFE157:
 2958              		.section	.text.HAL_RTCEx_DeactivateRefClock,"ax",%progbits
 2959              		.align	1
 2960              		.global	HAL_RTCEx_DeactivateRefClock
 2961              		.syntax unified
 2962              		.thumb
 2963              		.thumb_func
 2965              	HAL_RTCEx_DeactivateRefClock:
 2966              	.LVL201:
 2967              	.LFB158:
1681:Drivers/STM32F4xx_HAL_Driver/Src/stm32f4xx_hal_rtc_ex.c **** 
1682:Drivers/STM32F4xx_HAL_Driver/Src/stm32f4xx_hal_rtc_ex.c **** /**
1683:Drivers/STM32F4xx_HAL_Driver/Src/stm32f4xx_hal_rtc_ex.c ****   * @brief  Disable the RTC reference clock detection.
1684:Drivers/STM32F4xx_HAL_Driver/Src/stm32f4xx_hal_rtc_ex.c ****   * @param  hrtc pointer to a RTC_HandleTypeDef structure that contains
1685:Drivers/STM32F4xx_HAL_Driver/Src/stm32f4xx_hal_rtc_ex.c ****   *                the configuration information for RTC.
1686:Drivers/STM32F4xx_HAL_Driver/Src/stm32f4xx_hal_rtc_ex.c ****   * @retval HAL status
1687:Drivers/STM32F4xx_HAL_Driver/Src/stm32f4xx_hal_rtc_ex.c ****   */
1688:Drivers/STM32F4xx_HAL_Driver/Src/stm32f4xx_hal_rtc_ex.c **** HAL_StatusTypeDef HAL_RTCEx_DeactivateRefClock(RTC_HandleTypeDef *hrtc)
1689:Drivers/STM32F4xx_HAL_Driver/Src/stm32f4xx_hal_rtc_ex.c **** {
 2968              		.loc 1 1689 1 is_stmt 1 view -0
 2969              		.cfi_startproc
 2970              		@ args = 0, pretend = 0, frame = 0
 2971              		@ frame_needed = 0, uses_anonymous_args = 0
1690:Drivers/STM32F4xx_HAL_Driver/Src/stm32f4xx_hal_rtc_ex.c ****   HAL_StatusTypeDef status;
 2972              		.loc 1 1690 3 view .LVU1049
1691:Drivers/STM32F4xx_HAL_Driver/Src/stm32f4xx_hal_rtc_ex.c **** 
1692:Drivers/STM32F4xx_HAL_Driver/Src/stm32f4xx_hal_rtc_ex.c ****   /* Process Locked */
1693:Drivers/STM32F4xx_HAL_Driver/Src/stm32f4xx_hal_rtc_ex.c ****   __HAL_LOCK(hrtc);
 2973              		.loc 1 1693 3 view .LVU1050
 2974              		.loc 1 1693 3 view .LVU1051
ARM GAS  /tmp/cc8XWiN3.s 			page 86


 2975 0000 037F     		ldrb	r3, [r0, #28]	@ zero_extendqisi2
 2976 0002 012B     		cmp	r3, #1
 2977 0004 21D0     		beq	.L189
1689:Drivers/STM32F4xx_HAL_Driver/Src/stm32f4xx_hal_rtc_ex.c ****   HAL_StatusTypeDef status;
 2978              		.loc 1 1689 1 is_stmt 0 view .LVU1052
 2979 0006 10B5     		push	{r4, lr}
 2980              		.cfi_def_cfa_offset 8
 2981              		.cfi_offset 4, -8
 2982              		.cfi_offset 14, -4
 2983 0008 0446     		mov	r4, r0
 2984              		.loc 1 1693 3 is_stmt 1 discriminator 2 view .LVU1053
 2985 000a 0123     		movs	r3, #1
 2986 000c 0377     		strb	r3, [r0, #28]
 2987              		.loc 1 1693 3 view .LVU1054
1694:Drivers/STM32F4xx_HAL_Driver/Src/stm32f4xx_hal_rtc_ex.c **** 
1695:Drivers/STM32F4xx_HAL_Driver/Src/stm32f4xx_hal_rtc_ex.c ****   hrtc->State = HAL_RTC_STATE_BUSY;
 2988              		.loc 1 1695 3 view .LVU1055
 2989              		.loc 1 1695 15 is_stmt 0 view .LVU1056
 2990 000e 0223     		movs	r3, #2
 2991 0010 4377     		strb	r3, [r0, #29]
1696:Drivers/STM32F4xx_HAL_Driver/Src/stm32f4xx_hal_rtc_ex.c **** 
1697:Drivers/STM32F4xx_HAL_Driver/Src/stm32f4xx_hal_rtc_ex.c ****   /* Disable the write protection for RTC registers */
1698:Drivers/STM32F4xx_HAL_Driver/Src/stm32f4xx_hal_rtc_ex.c ****   __HAL_RTC_WRITEPROTECTION_DISABLE(hrtc);
 2992              		.loc 1 1698 3 is_stmt 1 view .LVU1057
 2993              		.loc 1 1698 3 view .LVU1058
 2994 0012 0368     		ldr	r3, [r0]
 2995 0014 CA22     		movs	r2, #202
 2996 0016 5A62     		str	r2, [r3, #36]
 2997              		.loc 1 1698 3 view .LVU1059
 2998 0018 0368     		ldr	r3, [r0]
 2999 001a 5322     		movs	r2, #83
 3000 001c 5A62     		str	r2, [r3, #36]
 3001              		.loc 1 1698 3 view .LVU1060
1699:Drivers/STM32F4xx_HAL_Driver/Src/stm32f4xx_hal_rtc_ex.c **** 
1700:Drivers/STM32F4xx_HAL_Driver/Src/stm32f4xx_hal_rtc_ex.c ****   /* Enter Initialization mode */
1701:Drivers/STM32F4xx_HAL_Driver/Src/stm32f4xx_hal_rtc_ex.c ****   status = RTC_EnterInitMode(hrtc);
 3002              		.loc 1 1701 3 view .LVU1061
 3003              		.loc 1 1701 12 is_stmt 0 view .LVU1062
 3004 001e FFF7FEFF 		bl	RTC_EnterInitMode
 3005              	.LVL202:
1702:Drivers/STM32F4xx_HAL_Driver/Src/stm32f4xx_hal_rtc_ex.c **** 
1703:Drivers/STM32F4xx_HAL_Driver/Src/stm32f4xx_hal_rtc_ex.c ****   if (status == HAL_OK)
 3006              		.loc 1 1703 3 is_stmt 1 view .LVU1063
 3007              		.loc 1 1703 6 is_stmt 0 view .LVU1064
 3008 0022 28B1     		cbz	r0, .L194
 3009              	.L188:
 3010              	.LVL203:
1704:Drivers/STM32F4xx_HAL_Driver/Src/stm32f4xx_hal_rtc_ex.c ****   {
1705:Drivers/STM32F4xx_HAL_Driver/Src/stm32f4xx_hal_rtc_ex.c ****     /* Disable the reference clock detection */
1706:Drivers/STM32F4xx_HAL_Driver/Src/stm32f4xx_hal_rtc_ex.c ****     __HAL_RTC_CLOCKREF_DETECTION_DISABLE(hrtc);
1707:Drivers/STM32F4xx_HAL_Driver/Src/stm32f4xx_hal_rtc_ex.c **** 
1708:Drivers/STM32F4xx_HAL_Driver/Src/stm32f4xx_hal_rtc_ex.c ****     /* Exit Initialization mode */
1709:Drivers/STM32F4xx_HAL_Driver/Src/stm32f4xx_hal_rtc_ex.c ****     status = RTC_ExitInitMode(hrtc);
1710:Drivers/STM32F4xx_HAL_Driver/Src/stm32f4xx_hal_rtc_ex.c ****   }
1711:Drivers/STM32F4xx_HAL_Driver/Src/stm32f4xx_hal_rtc_ex.c **** 
1712:Drivers/STM32F4xx_HAL_Driver/Src/stm32f4xx_hal_rtc_ex.c ****   if (status == HAL_OK)
1713:Drivers/STM32F4xx_HAL_Driver/Src/stm32f4xx_hal_rtc_ex.c ****   {
ARM GAS  /tmp/cc8XWiN3.s 			page 87


1714:Drivers/STM32F4xx_HAL_Driver/Src/stm32f4xx_hal_rtc_ex.c ****     hrtc->State = HAL_RTC_STATE_READY;
1715:Drivers/STM32F4xx_HAL_Driver/Src/stm32f4xx_hal_rtc_ex.c ****   }
1716:Drivers/STM32F4xx_HAL_Driver/Src/stm32f4xx_hal_rtc_ex.c **** 
1717:Drivers/STM32F4xx_HAL_Driver/Src/stm32f4xx_hal_rtc_ex.c ****   /* Enable the write protection for RTC registers */
1718:Drivers/STM32F4xx_HAL_Driver/Src/stm32f4xx_hal_rtc_ex.c ****   __HAL_RTC_WRITEPROTECTION_ENABLE(hrtc);
 3011              		.loc 1 1718 3 is_stmt 1 view .LVU1065
 3012              		.loc 1 1718 3 view .LVU1066
 3013 0024 2368     		ldr	r3, [r4]
 3014 0026 FF22     		movs	r2, #255
 3015 0028 5A62     		str	r2, [r3, #36]
 3016              		.loc 1 1718 3 view .LVU1067
1719:Drivers/STM32F4xx_HAL_Driver/Src/stm32f4xx_hal_rtc_ex.c **** 
1720:Drivers/STM32F4xx_HAL_Driver/Src/stm32f4xx_hal_rtc_ex.c ****   /* Process Unlocked */
1721:Drivers/STM32F4xx_HAL_Driver/Src/stm32f4xx_hal_rtc_ex.c ****   __HAL_UNLOCK(hrtc);
 3017              		.loc 1 1721 3 view .LVU1068
 3018              		.loc 1 1721 3 view .LVU1069
 3019 002a 0023     		movs	r3, #0
 3020 002c 2377     		strb	r3, [r4, #28]
 3021              		.loc 1 1721 3 view .LVU1070
1722:Drivers/STM32F4xx_HAL_Driver/Src/stm32f4xx_hal_rtc_ex.c **** 
1723:Drivers/STM32F4xx_HAL_Driver/Src/stm32f4xx_hal_rtc_ex.c ****   return status;
 3022              		.loc 1 1723 3 view .LVU1071
1724:Drivers/STM32F4xx_HAL_Driver/Src/stm32f4xx_hal_rtc_ex.c **** }
 3023              		.loc 1 1724 1 is_stmt 0 view .LVU1072
 3024 002e 10BD     		pop	{r4, pc}
 3025              	.LVL204:
 3026              	.L194:
1706:Drivers/STM32F4xx_HAL_Driver/Src/stm32f4xx_hal_rtc_ex.c **** 
 3027              		.loc 1 1706 5 is_stmt 1 view .LVU1073
 3028 0030 2268     		ldr	r2, [r4]
 3029 0032 9368     		ldr	r3, [r2, #8]
 3030 0034 23F01003 		bic	r3, r3, #16
 3031 0038 9360     		str	r3, [r2, #8]
1709:Drivers/STM32F4xx_HAL_Driver/Src/stm32f4xx_hal_rtc_ex.c ****   }
 3032              		.loc 1 1709 5 view .LVU1074
1709:Drivers/STM32F4xx_HAL_Driver/Src/stm32f4xx_hal_rtc_ex.c ****   }
 3033              		.loc 1 1709 14 is_stmt 0 view .LVU1075
 3034 003a 2046     		mov	r0, r4
 3035              	.LVL205:
1709:Drivers/STM32F4xx_HAL_Driver/Src/stm32f4xx_hal_rtc_ex.c ****   }
 3036              		.loc 1 1709 14 view .LVU1076
 3037 003c FFF7FEFF 		bl	RTC_ExitInitMode
 3038              	.LVL206:
1712:Drivers/STM32F4xx_HAL_Driver/Src/stm32f4xx_hal_rtc_ex.c ****   {
 3039              		.loc 1 1712 3 is_stmt 1 view .LVU1077
1712:Drivers/STM32F4xx_HAL_Driver/Src/stm32f4xx_hal_rtc_ex.c ****   {
 3040              		.loc 1 1712 6 is_stmt 0 view .LVU1078
 3041 0040 0028     		cmp	r0, #0
 3042 0042 EFD1     		bne	.L188
1714:Drivers/STM32F4xx_HAL_Driver/Src/stm32f4xx_hal_rtc_ex.c ****   }
 3043              		.loc 1 1714 5 is_stmt 1 view .LVU1079
1714:Drivers/STM32F4xx_HAL_Driver/Src/stm32f4xx_hal_rtc_ex.c ****   }
 3044              		.loc 1 1714 17 is_stmt 0 view .LVU1080
 3045 0044 0123     		movs	r3, #1
 3046 0046 6377     		strb	r3, [r4, #29]
 3047 0048 ECE7     		b	.L188
 3048              	.LVL207:
ARM GAS  /tmp/cc8XWiN3.s 			page 88


 3049              	.L189:
 3050              		.cfi_def_cfa_offset 0
 3051              		.cfi_restore 4
 3052              		.cfi_restore 14
1693:Drivers/STM32F4xx_HAL_Driver/Src/stm32f4xx_hal_rtc_ex.c **** 
 3053              		.loc 1 1693 3 discriminator 1 view .LVU1081
 3054 004a 0220     		movs	r0, #2
 3055              	.LVL208:
 3056              		.loc 1 1724 1 view .LVU1082
 3057 004c 7047     		bx	lr
 3058              		.cfi_endproc
 3059              	.LFE158:
 3061              		.section	.text.HAL_RTCEx_EnableBypassShadow,"ax",%progbits
 3062              		.align	1
 3063              		.global	HAL_RTCEx_EnableBypassShadow
 3064              		.syntax unified
 3065              		.thumb
 3066              		.thumb_func
 3068              	HAL_RTCEx_EnableBypassShadow:
 3069              	.LVL209:
 3070              	.LFB159:
1725:Drivers/STM32F4xx_HAL_Driver/Src/stm32f4xx_hal_rtc_ex.c **** 
1726:Drivers/STM32F4xx_HAL_Driver/Src/stm32f4xx_hal_rtc_ex.c **** /**
1727:Drivers/STM32F4xx_HAL_Driver/Src/stm32f4xx_hal_rtc_ex.c ****   * @brief  Enables the Bypass Shadow feature.
1728:Drivers/STM32F4xx_HAL_Driver/Src/stm32f4xx_hal_rtc_ex.c ****   * @param  hrtc pointer to a RTC_HandleTypeDef structure that contains
1729:Drivers/STM32F4xx_HAL_Driver/Src/stm32f4xx_hal_rtc_ex.c ****   *                the configuration information for RTC.
1730:Drivers/STM32F4xx_HAL_Driver/Src/stm32f4xx_hal_rtc_ex.c ****   * @note   When the Bypass Shadow is enabled the calendar value are taken
1731:Drivers/STM32F4xx_HAL_Driver/Src/stm32f4xx_hal_rtc_ex.c ****   *         directly from the Calendar counter.
1732:Drivers/STM32F4xx_HAL_Driver/Src/stm32f4xx_hal_rtc_ex.c ****   * @retval HAL status
1733:Drivers/STM32F4xx_HAL_Driver/Src/stm32f4xx_hal_rtc_ex.c ****   */
1734:Drivers/STM32F4xx_HAL_Driver/Src/stm32f4xx_hal_rtc_ex.c **** HAL_StatusTypeDef HAL_RTCEx_EnableBypassShadow(RTC_HandleTypeDef *hrtc)
1735:Drivers/STM32F4xx_HAL_Driver/Src/stm32f4xx_hal_rtc_ex.c **** {
 3071              		.loc 1 1735 1 is_stmt 1 view -0
 3072              		.cfi_startproc
 3073              		@ args = 0, pretend = 0, frame = 0
 3074              		@ frame_needed = 0, uses_anonymous_args = 0
 3075              		@ link register save eliminated.
1736:Drivers/STM32F4xx_HAL_Driver/Src/stm32f4xx_hal_rtc_ex.c ****   /* Process Locked */
1737:Drivers/STM32F4xx_HAL_Driver/Src/stm32f4xx_hal_rtc_ex.c ****   __HAL_LOCK(hrtc);
 3076              		.loc 1 1737 3 view .LVU1084
 3077              		.loc 1 1737 3 view .LVU1085
 3078 0000 037F     		ldrb	r3, [r0, #28]	@ zero_extendqisi2
 3079 0002 012B     		cmp	r3, #1
 3080 0004 16D0     		beq	.L197
 3081              		.loc 1 1737 3 discriminator 2 view .LVU1086
 3082 0006 0122     		movs	r2, #1
 3083 0008 0277     		strb	r2, [r0, #28]
 3084              		.loc 1 1737 3 view .LVU1087
1738:Drivers/STM32F4xx_HAL_Driver/Src/stm32f4xx_hal_rtc_ex.c **** 
1739:Drivers/STM32F4xx_HAL_Driver/Src/stm32f4xx_hal_rtc_ex.c ****   hrtc->State = HAL_RTC_STATE_BUSY;
 3085              		.loc 1 1739 3 view .LVU1088
 3086              		.loc 1 1739 15 is_stmt 0 view .LVU1089
 3087 000a 0223     		movs	r3, #2
 3088 000c 4377     		strb	r3, [r0, #29]
1740:Drivers/STM32F4xx_HAL_Driver/Src/stm32f4xx_hal_rtc_ex.c **** 
1741:Drivers/STM32F4xx_HAL_Driver/Src/stm32f4xx_hal_rtc_ex.c ****   /* Disable the write protection for RTC registers */
1742:Drivers/STM32F4xx_HAL_Driver/Src/stm32f4xx_hal_rtc_ex.c ****   __HAL_RTC_WRITEPROTECTION_DISABLE(hrtc);
ARM GAS  /tmp/cc8XWiN3.s 			page 89


 3089              		.loc 1 1742 3 is_stmt 1 view .LVU1090
 3090              		.loc 1 1742 3 view .LVU1091
 3091 000e 0368     		ldr	r3, [r0]
 3092 0010 CA21     		movs	r1, #202
 3093 0012 5962     		str	r1, [r3, #36]
 3094              		.loc 1 1742 3 view .LVU1092
 3095 0014 0368     		ldr	r3, [r0]
 3096 0016 5321     		movs	r1, #83
 3097 0018 5962     		str	r1, [r3, #36]
 3098              		.loc 1 1742 3 view .LVU1093
1743:Drivers/STM32F4xx_HAL_Driver/Src/stm32f4xx_hal_rtc_ex.c **** 
1744:Drivers/STM32F4xx_HAL_Driver/Src/stm32f4xx_hal_rtc_ex.c ****   /* Set the BYPSHAD bit */
1745:Drivers/STM32F4xx_HAL_Driver/Src/stm32f4xx_hal_rtc_ex.c ****   hrtc->Instance->CR |= (uint8_t)RTC_CR_BYPSHAD;
 3099              		.loc 1 1745 3 view .LVU1094
 3100              		.loc 1 1745 7 is_stmt 0 view .LVU1095
 3101 001a 0168     		ldr	r1, [r0]
 3102              		.loc 1 1745 17 view .LVU1096
 3103 001c 8B68     		ldr	r3, [r1, #8]
 3104              		.loc 1 1745 22 view .LVU1097
 3105 001e 43F02003 		orr	r3, r3, #32
 3106 0022 8B60     		str	r3, [r1, #8]
1746:Drivers/STM32F4xx_HAL_Driver/Src/stm32f4xx_hal_rtc_ex.c **** 
1747:Drivers/STM32F4xx_HAL_Driver/Src/stm32f4xx_hal_rtc_ex.c ****   /* Enable the write protection for RTC registers */
1748:Drivers/STM32F4xx_HAL_Driver/Src/stm32f4xx_hal_rtc_ex.c ****   __HAL_RTC_WRITEPROTECTION_ENABLE(hrtc);
 3107              		.loc 1 1748 3 is_stmt 1 view .LVU1098
 3108              		.loc 1 1748 3 view .LVU1099
 3109 0024 0368     		ldr	r3, [r0]
 3110 0026 FF21     		movs	r1, #255
 3111 0028 5962     		str	r1, [r3, #36]
 3112              		.loc 1 1748 3 view .LVU1100
1749:Drivers/STM32F4xx_HAL_Driver/Src/stm32f4xx_hal_rtc_ex.c **** 
1750:Drivers/STM32F4xx_HAL_Driver/Src/stm32f4xx_hal_rtc_ex.c ****   /* Change RTC state */
1751:Drivers/STM32F4xx_HAL_Driver/Src/stm32f4xx_hal_rtc_ex.c ****   hrtc->State = HAL_RTC_STATE_READY;
 3113              		.loc 1 1751 3 view .LVU1101
 3114              		.loc 1 1751 15 is_stmt 0 view .LVU1102
 3115 002a 4277     		strb	r2, [r0, #29]
1752:Drivers/STM32F4xx_HAL_Driver/Src/stm32f4xx_hal_rtc_ex.c **** 
1753:Drivers/STM32F4xx_HAL_Driver/Src/stm32f4xx_hal_rtc_ex.c ****   /* Process Unlocked */
1754:Drivers/STM32F4xx_HAL_Driver/Src/stm32f4xx_hal_rtc_ex.c ****   __HAL_UNLOCK(hrtc);
 3116              		.loc 1 1754 3 is_stmt 1 view .LVU1103
 3117              		.loc 1 1754 3 view .LVU1104
 3118 002c 0023     		movs	r3, #0
 3119 002e 0377     		strb	r3, [r0, #28]
 3120              		.loc 1 1754 3 view .LVU1105
1755:Drivers/STM32F4xx_HAL_Driver/Src/stm32f4xx_hal_rtc_ex.c **** 
1756:Drivers/STM32F4xx_HAL_Driver/Src/stm32f4xx_hal_rtc_ex.c ****   return HAL_OK;
 3121              		.loc 1 1756 3 view .LVU1106
 3122              		.loc 1 1756 10 is_stmt 0 view .LVU1107
 3123 0030 1846     		mov	r0, r3
 3124              	.LVL210:
 3125              		.loc 1 1756 10 view .LVU1108
 3126 0032 7047     		bx	lr
 3127              	.LVL211:
 3128              	.L197:
1737:Drivers/STM32F4xx_HAL_Driver/Src/stm32f4xx_hal_rtc_ex.c **** 
 3129              		.loc 1 1737 3 discriminator 1 view .LVU1109
 3130 0034 0220     		movs	r0, #2
ARM GAS  /tmp/cc8XWiN3.s 			page 90


 3131              	.LVL212:
1757:Drivers/STM32F4xx_HAL_Driver/Src/stm32f4xx_hal_rtc_ex.c **** }
 3132              		.loc 1 1757 1 view .LVU1110
 3133 0036 7047     		bx	lr
 3134              		.cfi_endproc
 3135              	.LFE159:
 3137              		.section	.text.HAL_RTCEx_DisableBypassShadow,"ax",%progbits
 3138              		.align	1
 3139              		.global	HAL_RTCEx_DisableBypassShadow
 3140              		.syntax unified
 3141              		.thumb
 3142              		.thumb_func
 3144              	HAL_RTCEx_DisableBypassShadow:
 3145              	.LVL213:
 3146              	.LFB160:
1758:Drivers/STM32F4xx_HAL_Driver/Src/stm32f4xx_hal_rtc_ex.c **** 
1759:Drivers/STM32F4xx_HAL_Driver/Src/stm32f4xx_hal_rtc_ex.c **** /**
1760:Drivers/STM32F4xx_HAL_Driver/Src/stm32f4xx_hal_rtc_ex.c ****   * @brief  Disables the Bypass Shadow feature.
1761:Drivers/STM32F4xx_HAL_Driver/Src/stm32f4xx_hal_rtc_ex.c ****   * @param  hrtc pointer to a RTC_HandleTypeDef structure that contains
1762:Drivers/STM32F4xx_HAL_Driver/Src/stm32f4xx_hal_rtc_ex.c ****   *                the configuration information for RTC.
1763:Drivers/STM32F4xx_HAL_Driver/Src/stm32f4xx_hal_rtc_ex.c ****   * @note   When the Bypass Shadow is enabled the calendar value are taken
1764:Drivers/STM32F4xx_HAL_Driver/Src/stm32f4xx_hal_rtc_ex.c ****   *         directly from the Calendar counter.
1765:Drivers/STM32F4xx_HAL_Driver/Src/stm32f4xx_hal_rtc_ex.c ****   * @retval HAL status
1766:Drivers/STM32F4xx_HAL_Driver/Src/stm32f4xx_hal_rtc_ex.c ****   */
1767:Drivers/STM32F4xx_HAL_Driver/Src/stm32f4xx_hal_rtc_ex.c **** HAL_StatusTypeDef HAL_RTCEx_DisableBypassShadow(RTC_HandleTypeDef *hrtc)
1768:Drivers/STM32F4xx_HAL_Driver/Src/stm32f4xx_hal_rtc_ex.c **** {
 3147              		.loc 1 1768 1 is_stmt 1 view -0
 3148              		.cfi_startproc
 3149              		@ args = 0, pretend = 0, frame = 0
 3150              		@ frame_needed = 0, uses_anonymous_args = 0
 3151              		@ link register save eliminated.
1769:Drivers/STM32F4xx_HAL_Driver/Src/stm32f4xx_hal_rtc_ex.c ****   /* Process Locked */
1770:Drivers/STM32F4xx_HAL_Driver/Src/stm32f4xx_hal_rtc_ex.c ****   __HAL_LOCK(hrtc);
 3152              		.loc 1 1770 3 view .LVU1112
 3153              		.loc 1 1770 3 view .LVU1113
 3154 0000 037F     		ldrb	r3, [r0, #28]	@ zero_extendqisi2
 3155 0002 012B     		cmp	r3, #1
 3156 0004 16D0     		beq	.L200
 3157              		.loc 1 1770 3 discriminator 2 view .LVU1114
 3158 0006 0122     		movs	r2, #1
 3159 0008 0277     		strb	r2, [r0, #28]
 3160              		.loc 1 1770 3 view .LVU1115
1771:Drivers/STM32F4xx_HAL_Driver/Src/stm32f4xx_hal_rtc_ex.c **** 
1772:Drivers/STM32F4xx_HAL_Driver/Src/stm32f4xx_hal_rtc_ex.c ****   hrtc->State = HAL_RTC_STATE_BUSY;
 3161              		.loc 1 1772 3 view .LVU1116
 3162              		.loc 1 1772 15 is_stmt 0 view .LVU1117
 3163 000a 0223     		movs	r3, #2
 3164 000c 4377     		strb	r3, [r0, #29]
1773:Drivers/STM32F4xx_HAL_Driver/Src/stm32f4xx_hal_rtc_ex.c **** 
1774:Drivers/STM32F4xx_HAL_Driver/Src/stm32f4xx_hal_rtc_ex.c ****   /* Disable the write protection for RTC registers */
1775:Drivers/STM32F4xx_HAL_Driver/Src/stm32f4xx_hal_rtc_ex.c ****   __HAL_RTC_WRITEPROTECTION_DISABLE(hrtc);
 3165              		.loc 1 1775 3 is_stmt 1 view .LVU1118
 3166              		.loc 1 1775 3 view .LVU1119
 3167 000e 0368     		ldr	r3, [r0]
 3168 0010 CA21     		movs	r1, #202
 3169 0012 5962     		str	r1, [r3, #36]
 3170              		.loc 1 1775 3 view .LVU1120
ARM GAS  /tmp/cc8XWiN3.s 			page 91


 3171 0014 0368     		ldr	r3, [r0]
 3172 0016 5321     		movs	r1, #83
 3173 0018 5962     		str	r1, [r3, #36]
 3174              		.loc 1 1775 3 view .LVU1121
1776:Drivers/STM32F4xx_HAL_Driver/Src/stm32f4xx_hal_rtc_ex.c **** 
1777:Drivers/STM32F4xx_HAL_Driver/Src/stm32f4xx_hal_rtc_ex.c ****   /* Reset the BYPSHAD bit */
1778:Drivers/STM32F4xx_HAL_Driver/Src/stm32f4xx_hal_rtc_ex.c ****   hrtc->Instance->CR &= (uint8_t)~RTC_CR_BYPSHAD;
 3175              		.loc 1 1778 3 view .LVU1122
 3176              		.loc 1 1778 7 is_stmt 0 view .LVU1123
 3177 001a 0168     		ldr	r1, [r0]
 3178              		.loc 1 1778 17 view .LVU1124
 3179 001c 8B68     		ldr	r3, [r1, #8]
 3180              		.loc 1 1778 22 view .LVU1125
 3181 001e 03F0DF03 		and	r3, r3, #223
 3182 0022 8B60     		str	r3, [r1, #8]
1779:Drivers/STM32F4xx_HAL_Driver/Src/stm32f4xx_hal_rtc_ex.c **** 
1780:Drivers/STM32F4xx_HAL_Driver/Src/stm32f4xx_hal_rtc_ex.c ****   /* Enable the write protection for RTC registers */
1781:Drivers/STM32F4xx_HAL_Driver/Src/stm32f4xx_hal_rtc_ex.c ****   __HAL_RTC_WRITEPROTECTION_ENABLE(hrtc);
 3183              		.loc 1 1781 3 is_stmt 1 view .LVU1126
 3184              		.loc 1 1781 3 view .LVU1127
 3185 0024 0368     		ldr	r3, [r0]
 3186 0026 FF21     		movs	r1, #255
 3187 0028 5962     		str	r1, [r3, #36]
 3188              		.loc 1 1781 3 view .LVU1128
1782:Drivers/STM32F4xx_HAL_Driver/Src/stm32f4xx_hal_rtc_ex.c **** 
1783:Drivers/STM32F4xx_HAL_Driver/Src/stm32f4xx_hal_rtc_ex.c ****   /* Change RTC state */
1784:Drivers/STM32F4xx_HAL_Driver/Src/stm32f4xx_hal_rtc_ex.c ****   hrtc->State = HAL_RTC_STATE_READY;
 3189              		.loc 1 1784 3 view .LVU1129
 3190              		.loc 1 1784 15 is_stmt 0 view .LVU1130
 3191 002a 4277     		strb	r2, [r0, #29]
1785:Drivers/STM32F4xx_HAL_Driver/Src/stm32f4xx_hal_rtc_ex.c **** 
1786:Drivers/STM32F4xx_HAL_Driver/Src/stm32f4xx_hal_rtc_ex.c ****   /* Process Unlocked */
1787:Drivers/STM32F4xx_HAL_Driver/Src/stm32f4xx_hal_rtc_ex.c ****   __HAL_UNLOCK(hrtc);
 3192              		.loc 1 1787 3 is_stmt 1 view .LVU1131
 3193              		.loc 1 1787 3 view .LVU1132
 3194 002c 0023     		movs	r3, #0
 3195 002e 0377     		strb	r3, [r0, #28]
 3196              		.loc 1 1787 3 view .LVU1133
1788:Drivers/STM32F4xx_HAL_Driver/Src/stm32f4xx_hal_rtc_ex.c **** 
1789:Drivers/STM32F4xx_HAL_Driver/Src/stm32f4xx_hal_rtc_ex.c ****   return HAL_OK;
 3197              		.loc 1 1789 3 view .LVU1134
 3198              		.loc 1 1789 10 is_stmt 0 view .LVU1135
 3199 0030 1846     		mov	r0, r3
 3200              	.LVL214:
 3201              		.loc 1 1789 10 view .LVU1136
 3202 0032 7047     		bx	lr
 3203              	.LVL215:
 3204              	.L200:
1770:Drivers/STM32F4xx_HAL_Driver/Src/stm32f4xx_hal_rtc_ex.c **** 
 3205              		.loc 1 1770 3 discriminator 1 view .LVU1137
 3206 0034 0220     		movs	r0, #2
 3207              	.LVL216:
1790:Drivers/STM32F4xx_HAL_Driver/Src/stm32f4xx_hal_rtc_ex.c **** }
 3208              		.loc 1 1790 1 view .LVU1138
 3209 0036 7047     		bx	lr
 3210              		.cfi_endproc
 3211              	.LFE160:
ARM GAS  /tmp/cc8XWiN3.s 			page 92


 3213              		.section	.text.HAL_RTCEx_AlarmBEventCallback,"ax",%progbits
 3214              		.align	1
 3215              		.weak	HAL_RTCEx_AlarmBEventCallback
 3216              		.syntax unified
 3217              		.thumb
 3218              		.thumb_func
 3220              	HAL_RTCEx_AlarmBEventCallback:
 3221              	.LVL217:
 3222              	.LFB161:
1791:Drivers/STM32F4xx_HAL_Driver/Src/stm32f4xx_hal_rtc_ex.c **** 
1792:Drivers/STM32F4xx_HAL_Driver/Src/stm32f4xx_hal_rtc_ex.c **** /**
1793:Drivers/STM32F4xx_HAL_Driver/Src/stm32f4xx_hal_rtc_ex.c ****   * @}
1794:Drivers/STM32F4xx_HAL_Driver/Src/stm32f4xx_hal_rtc_ex.c ****   */
1795:Drivers/STM32F4xx_HAL_Driver/Src/stm32f4xx_hal_rtc_ex.c **** 
1796:Drivers/STM32F4xx_HAL_Driver/Src/stm32f4xx_hal_rtc_ex.c **** /** @defgroup RTCEx_Exported_Functions_Group4 Extended features functions
1797:Drivers/STM32F4xx_HAL_Driver/Src/stm32f4xx_hal_rtc_ex.c ****   * @brief    Extended features functions
1798:Drivers/STM32F4xx_HAL_Driver/Src/stm32f4xx_hal_rtc_ex.c ****   *
1799:Drivers/STM32F4xx_HAL_Driver/Src/stm32f4xx_hal_rtc_ex.c **** @verbatim
1800:Drivers/STM32F4xx_HAL_Driver/Src/stm32f4xx_hal_rtc_ex.c ****  ===============================================================================
1801:Drivers/STM32F4xx_HAL_Driver/Src/stm32f4xx_hal_rtc_ex.c ****                  ##### Extended features functions #####
1802:Drivers/STM32F4xx_HAL_Driver/Src/stm32f4xx_hal_rtc_ex.c ****  ===============================================================================
1803:Drivers/STM32F4xx_HAL_Driver/Src/stm32f4xx_hal_rtc_ex.c ****     [..]  This section provides functions allowing to:
1804:Drivers/STM32F4xx_HAL_Driver/Src/stm32f4xx_hal_rtc_ex.c ****       (+) RTC Alarm B callback
1805:Drivers/STM32F4xx_HAL_Driver/Src/stm32f4xx_hal_rtc_ex.c ****       (+) RTC Poll for Alarm B request
1806:Drivers/STM32F4xx_HAL_Driver/Src/stm32f4xx_hal_rtc_ex.c **** 
1807:Drivers/STM32F4xx_HAL_Driver/Src/stm32f4xx_hal_rtc_ex.c **** @endverbatim
1808:Drivers/STM32F4xx_HAL_Driver/Src/stm32f4xx_hal_rtc_ex.c ****   * @{
1809:Drivers/STM32F4xx_HAL_Driver/Src/stm32f4xx_hal_rtc_ex.c ****   */
1810:Drivers/STM32F4xx_HAL_Driver/Src/stm32f4xx_hal_rtc_ex.c **** 
1811:Drivers/STM32F4xx_HAL_Driver/Src/stm32f4xx_hal_rtc_ex.c **** /**
1812:Drivers/STM32F4xx_HAL_Driver/Src/stm32f4xx_hal_rtc_ex.c ****   * @brief  Alarm B callback.
1813:Drivers/STM32F4xx_HAL_Driver/Src/stm32f4xx_hal_rtc_ex.c ****   * @param  hrtc pointer to a RTC_HandleTypeDef structure that contains
1814:Drivers/STM32F4xx_HAL_Driver/Src/stm32f4xx_hal_rtc_ex.c ****   *                the configuration information for RTC.
1815:Drivers/STM32F4xx_HAL_Driver/Src/stm32f4xx_hal_rtc_ex.c ****   * @retval None
1816:Drivers/STM32F4xx_HAL_Driver/Src/stm32f4xx_hal_rtc_ex.c ****   */
1817:Drivers/STM32F4xx_HAL_Driver/Src/stm32f4xx_hal_rtc_ex.c **** __weak void HAL_RTCEx_AlarmBEventCallback(RTC_HandleTypeDef *hrtc)
1818:Drivers/STM32F4xx_HAL_Driver/Src/stm32f4xx_hal_rtc_ex.c **** {
 3223              		.loc 1 1818 1 is_stmt 1 view -0
 3224              		.cfi_startproc
 3225              		@ args = 0, pretend = 0, frame = 0
 3226              		@ frame_needed = 0, uses_anonymous_args = 0
 3227              		@ link register save eliminated.
1819:Drivers/STM32F4xx_HAL_Driver/Src/stm32f4xx_hal_rtc_ex.c ****   /* Prevent unused argument(s) compilation warning */
1820:Drivers/STM32F4xx_HAL_Driver/Src/stm32f4xx_hal_rtc_ex.c ****   UNUSED(hrtc);
 3228              		.loc 1 1820 3 view .LVU1140
1821:Drivers/STM32F4xx_HAL_Driver/Src/stm32f4xx_hal_rtc_ex.c **** 
1822:Drivers/STM32F4xx_HAL_Driver/Src/stm32f4xx_hal_rtc_ex.c ****   /* NOTE: This function should not be modified, when the callback is needed,
1823:Drivers/STM32F4xx_HAL_Driver/Src/stm32f4xx_hal_rtc_ex.c ****            the HAL_RTCEx_AlarmBEventCallback could be implemented in the user file
1824:Drivers/STM32F4xx_HAL_Driver/Src/stm32f4xx_hal_rtc_ex.c ****    */
1825:Drivers/STM32F4xx_HAL_Driver/Src/stm32f4xx_hal_rtc_ex.c **** }
 3229              		.loc 1 1825 1 is_stmt 0 view .LVU1141
 3230 0000 7047     		bx	lr
 3231              		.cfi_endproc
 3232              	.LFE161:
 3234              		.section	.text.HAL_RTCEx_PollForAlarmBEvent,"ax",%progbits
 3235              		.align	1
 3236              		.global	HAL_RTCEx_PollForAlarmBEvent
ARM GAS  /tmp/cc8XWiN3.s 			page 93


 3237              		.syntax unified
 3238              		.thumb
 3239              		.thumb_func
 3241              	HAL_RTCEx_PollForAlarmBEvent:
 3242              	.LVL218:
 3243              	.LFB162:
1826:Drivers/STM32F4xx_HAL_Driver/Src/stm32f4xx_hal_rtc_ex.c **** 
1827:Drivers/STM32F4xx_HAL_Driver/Src/stm32f4xx_hal_rtc_ex.c **** /**
1828:Drivers/STM32F4xx_HAL_Driver/Src/stm32f4xx_hal_rtc_ex.c ****   * @brief  Handles Alarm B Polling request.
1829:Drivers/STM32F4xx_HAL_Driver/Src/stm32f4xx_hal_rtc_ex.c ****   * @param  hrtc pointer to a RTC_HandleTypeDef structure that contains
1830:Drivers/STM32F4xx_HAL_Driver/Src/stm32f4xx_hal_rtc_ex.c ****   *                the configuration information for RTC.
1831:Drivers/STM32F4xx_HAL_Driver/Src/stm32f4xx_hal_rtc_ex.c ****   * @param  Timeout Timeout duration
1832:Drivers/STM32F4xx_HAL_Driver/Src/stm32f4xx_hal_rtc_ex.c ****   * @retval HAL status
1833:Drivers/STM32F4xx_HAL_Driver/Src/stm32f4xx_hal_rtc_ex.c ****   */
1834:Drivers/STM32F4xx_HAL_Driver/Src/stm32f4xx_hal_rtc_ex.c **** HAL_StatusTypeDef HAL_RTCEx_PollForAlarmBEvent(RTC_HandleTypeDef *hrtc, uint32_t Timeout)
1835:Drivers/STM32F4xx_HAL_Driver/Src/stm32f4xx_hal_rtc_ex.c **** {
 3244              		.loc 1 1835 1 is_stmt 1 view -0
 3245              		.cfi_startproc
 3246              		@ args = 0, pretend = 0, frame = 0
 3247              		@ frame_needed = 0, uses_anonymous_args = 0
 3248              		.loc 1 1835 1 is_stmt 0 view .LVU1143
 3249 0000 70B5     		push	{r4, r5, r6, lr}
 3250              		.cfi_def_cfa_offset 16
 3251              		.cfi_offset 4, -16
 3252              		.cfi_offset 5, -12
 3253              		.cfi_offset 6, -8
 3254              		.cfi_offset 14, -4
 3255 0002 0446     		mov	r4, r0
 3256 0004 0D46     		mov	r5, r1
1836:Drivers/STM32F4xx_HAL_Driver/Src/stm32f4xx_hal_rtc_ex.c ****   uint32_t tickstart = 0U;
 3257              		.loc 1 1836 3 is_stmt 1 view .LVU1144
 3258              	.LVL219:
1837:Drivers/STM32F4xx_HAL_Driver/Src/stm32f4xx_hal_rtc_ex.c **** 
1838:Drivers/STM32F4xx_HAL_Driver/Src/stm32f4xx_hal_rtc_ex.c ****   /* Get tick */
1839:Drivers/STM32F4xx_HAL_Driver/Src/stm32f4xx_hal_rtc_ex.c ****   tickstart = HAL_GetTick();
 3259              		.loc 1 1839 3 view .LVU1145
 3260              		.loc 1 1839 15 is_stmt 0 view .LVU1146
 3261 0006 FFF7FEFF 		bl	HAL_GetTick
 3262              	.LVL220:
 3263              		.loc 1 1839 15 view .LVU1147
 3264 000a 0646     		mov	r6, r0
 3265              	.LVL221:
1840:Drivers/STM32F4xx_HAL_Driver/Src/stm32f4xx_hal_rtc_ex.c **** 
1841:Drivers/STM32F4xx_HAL_Driver/Src/stm32f4xx_hal_rtc_ex.c ****   /* Wait till RTC ALRBF flag is set and if timeout is reached exit */
1842:Drivers/STM32F4xx_HAL_Driver/Src/stm32f4xx_hal_rtc_ex.c ****   while (__HAL_RTC_ALARM_GET_FLAG(hrtc, RTC_FLAG_ALRBF) == 0U)
 3266              		.loc 1 1842 3 is_stmt 1 view .LVU1148
 3267              	.L204:
 3268              		.loc 1 1842 57 view .LVU1149
 3269              		.loc 1 1842 10 is_stmt 0 view .LVU1150
 3270 000c 2368     		ldr	r3, [r4]
 3271 000e DA68     		ldr	r2, [r3, #12]
 3272              		.loc 1 1842 57 view .LVU1151
 3273 0010 12F4007F 		tst	r2, #512
 3274 0014 0BD1     		bne	.L209
1843:Drivers/STM32F4xx_HAL_Driver/Src/stm32f4xx_hal_rtc_ex.c ****   {
1844:Drivers/STM32F4xx_HAL_Driver/Src/stm32f4xx_hal_rtc_ex.c ****     if (Timeout != HAL_MAX_DELAY)
 3275              		.loc 1 1844 5 is_stmt 1 view .LVU1152
ARM GAS  /tmp/cc8XWiN3.s 			page 94


 3276              		.loc 1 1844 8 is_stmt 0 view .LVU1153
 3277 0016 B5F1FF3F 		cmp	r5, #-1
 3278 001a F7D0     		beq	.L204
1845:Drivers/STM32F4xx_HAL_Driver/Src/stm32f4xx_hal_rtc_ex.c ****     {
1846:Drivers/STM32F4xx_HAL_Driver/Src/stm32f4xx_hal_rtc_ex.c ****       if ((Timeout == 0U) || ((HAL_GetTick() - tickstart) > Timeout))
 3279              		.loc 1 1846 7 is_stmt 1 view .LVU1154
 3280              		.loc 1 1846 10 is_stmt 0 view .LVU1155
 3281 001c 25B1     		cbz	r5, .L205
 3282              		.loc 1 1846 32 discriminator 1 view .LVU1156
 3283 001e FFF7FEFF 		bl	HAL_GetTick
 3284              	.LVL222:
 3285              		.loc 1 1846 46 discriminator 1 view .LVU1157
 3286 0022 801B     		subs	r0, r0, r6
 3287              		.loc 1 1846 27 discriminator 1 view .LVU1158
 3288 0024 A842     		cmp	r0, r5
 3289 0026 F1D9     		bls	.L204
 3290              	.L205:
1847:Drivers/STM32F4xx_HAL_Driver/Src/stm32f4xx_hal_rtc_ex.c ****       {
1848:Drivers/STM32F4xx_HAL_Driver/Src/stm32f4xx_hal_rtc_ex.c ****         hrtc->State = HAL_RTC_STATE_TIMEOUT;
 3291              		.loc 1 1848 9 is_stmt 1 view .LVU1159
 3292              		.loc 1 1848 21 is_stmt 0 view .LVU1160
 3293 0028 0320     		movs	r0, #3
 3294 002a 6077     		strb	r0, [r4, #29]
1849:Drivers/STM32F4xx_HAL_Driver/Src/stm32f4xx_hal_rtc_ex.c ****         return HAL_TIMEOUT;
 3295              		.loc 1 1849 9 is_stmt 1 view .LVU1161
 3296              		.loc 1 1849 16 is_stmt 0 view .LVU1162
 3297 002c 07E0     		b	.L206
 3298              	.L209:
1850:Drivers/STM32F4xx_HAL_Driver/Src/stm32f4xx_hal_rtc_ex.c ****       }
1851:Drivers/STM32F4xx_HAL_Driver/Src/stm32f4xx_hal_rtc_ex.c ****     }
1852:Drivers/STM32F4xx_HAL_Driver/Src/stm32f4xx_hal_rtc_ex.c ****   }
1853:Drivers/STM32F4xx_HAL_Driver/Src/stm32f4xx_hal_rtc_ex.c **** 
1854:Drivers/STM32F4xx_HAL_Driver/Src/stm32f4xx_hal_rtc_ex.c ****   /* Clear the Alarm flag */
1855:Drivers/STM32F4xx_HAL_Driver/Src/stm32f4xx_hal_rtc_ex.c ****   __HAL_RTC_ALARM_CLEAR_FLAG(hrtc, RTC_FLAG_ALRBF);
 3299              		.loc 1 1855 3 is_stmt 1 view .LVU1163
 3300 002e DA68     		ldr	r2, [r3, #12]
 3301 0030 D2B2     		uxtb	r2, r2
 3302 0032 62F42072 		orn	r2, r2, #640
 3303 0036 DA60     		str	r2, [r3, #12]
1856:Drivers/STM32F4xx_HAL_Driver/Src/stm32f4xx_hal_rtc_ex.c **** 
1857:Drivers/STM32F4xx_HAL_Driver/Src/stm32f4xx_hal_rtc_ex.c ****   /* Change RTC state */
1858:Drivers/STM32F4xx_HAL_Driver/Src/stm32f4xx_hal_rtc_ex.c ****   hrtc->State = HAL_RTC_STATE_READY;
 3304              		.loc 1 1858 3 view .LVU1164
 3305              		.loc 1 1858 15 is_stmt 0 view .LVU1165
 3306 0038 0123     		movs	r3, #1
 3307 003a 6377     		strb	r3, [r4, #29]
1859:Drivers/STM32F4xx_HAL_Driver/Src/stm32f4xx_hal_rtc_ex.c **** 
1860:Drivers/STM32F4xx_HAL_Driver/Src/stm32f4xx_hal_rtc_ex.c ****   return HAL_OK;
 3308              		.loc 1 1860 3 is_stmt 1 view .LVU1166
 3309              		.loc 1 1860 10 is_stmt 0 view .LVU1167
 3310 003c 0020     		movs	r0, #0
 3311              	.L206:
1861:Drivers/STM32F4xx_HAL_Driver/Src/stm32f4xx_hal_rtc_ex.c **** }
 3312              		.loc 1 1861 1 view .LVU1168
 3313 003e 70BD     		pop	{r4, r5, r6, pc}
 3314              		.loc 1 1861 1 view .LVU1169
 3315              		.cfi_endproc
ARM GAS  /tmp/cc8XWiN3.s 			page 95


 3316              	.LFE162:
 3318              		.text
 3319              	.Letext0:
 3320              		.file 2 "/usr/arm-none-eabi/include/machine/_default_types.h"
 3321              		.file 3 "/usr/arm-none-eabi/include/sys/_stdint.h"
 3322              		.file 4 "Drivers/CMSIS/Device/ST/STM32F4xx/Include/stm32f401xc.h"
 3323              		.file 5 "Drivers/STM32F4xx_HAL_Driver/Inc/stm32f4xx_hal_def.h"
 3324              		.file 6 "Drivers/STM32F4xx_HAL_Driver/Inc/stm32f4xx_hal_rtc.h"
 3325              		.file 7 "Drivers/STM32F4xx_HAL_Driver/Inc/stm32f4xx_hal_rtc_ex.h"
 3326              		.file 8 "Drivers/CMSIS/Device/ST/STM32F4xx/Include/system_stm32f4xx.h"
 3327              		.file 9 "Drivers/STM32F4xx_HAL_Driver/Inc/stm32f4xx_hal.h"
ARM GAS  /tmp/cc8XWiN3.s 			page 96


DEFINED SYMBOLS
                            *ABS*:00000000 stm32f4xx_hal_rtc_ex.c
     /tmp/cc8XWiN3.s:21     .text.HAL_RTCEx_SetTimeStamp:00000000 $t
     /tmp/cc8XWiN3.s:27     .text.HAL_RTCEx_SetTimeStamp:00000000 HAL_RTCEx_SetTimeStamp
     /tmp/cc8XWiN3.s:158    .text.HAL_RTCEx_SetTimeStamp_IT:00000000 $t
     /tmp/cc8XWiN3.s:164    .text.HAL_RTCEx_SetTimeStamp_IT:00000000 HAL_RTCEx_SetTimeStamp_IT
     /tmp/cc8XWiN3.s:308    .text.HAL_RTCEx_SetTimeStamp_IT:00000094 $d
     /tmp/cc8XWiN3.s:313    .text.HAL_RTCEx_DeactivateTimeStamp:00000000 $t
     /tmp/cc8XWiN3.s:319    .text.HAL_RTCEx_DeactivateTimeStamp:00000000 HAL_RTCEx_DeactivateTimeStamp
     /tmp/cc8XWiN3.s:405    .text.HAL_RTCEx_GetTimeStamp:00000000 $t
     /tmp/cc8XWiN3.s:411    .text.HAL_RTCEx_GetTimeStamp:00000000 HAL_RTCEx_GetTimeStamp
     /tmp/cc8XWiN3.s:556    .text.HAL_RTCEx_SetTamper:00000000 $t
     /tmp/cc8XWiN3.s:562    .text.HAL_RTCEx_SetTamper:00000000 HAL_RTCEx_SetTamper
     /tmp/cc8XWiN3.s:703    .text.HAL_RTCEx_SetTamper_IT:00000000 $t
     /tmp/cc8XWiN3.s:709    .text.HAL_RTCEx_SetTamper_IT:00000000 HAL_RTCEx_SetTamper_IT
     /tmp/cc8XWiN3.s:858    .text.HAL_RTCEx_SetTamper_IT:00000070 $d
     /tmp/cc8XWiN3.s:863    .text.HAL_RTCEx_DeactivateTamper:00000000 $t
     /tmp/cc8XWiN3.s:869    .text.HAL_RTCEx_DeactivateTamper:00000000 HAL_RTCEx_DeactivateTamper
     /tmp/cc8XWiN3.s:931    .text.HAL_RTCEx_TimeStampEventCallback:00000000 $t
     /tmp/cc8XWiN3.s:937    .text.HAL_RTCEx_TimeStampEventCallback:00000000 HAL_RTCEx_TimeStampEventCallback
     /tmp/cc8XWiN3.s:952    .text.HAL_RTCEx_Tamper1EventCallback:00000000 $t
     /tmp/cc8XWiN3.s:958    .text.HAL_RTCEx_Tamper1EventCallback:00000000 HAL_RTCEx_Tamper1EventCallback
     /tmp/cc8XWiN3.s:973    .text.HAL_RTCEx_TamperTimeStampIRQHandler:00000000 $t
     /tmp/cc8XWiN3.s:979    .text.HAL_RTCEx_TamperTimeStampIRQHandler:00000000 HAL_RTCEx_TamperTimeStampIRQHandler
     /tmp/cc8XWiN3.s:1058   .text.HAL_RTCEx_TamperTimeStampIRQHandler:0000005c $d
     /tmp/cc8XWiN3.s:1063   .text.HAL_RTCEx_PollForTimeStampEvent:00000000 $t
     /tmp/cc8XWiN3.s:1069   .text.HAL_RTCEx_PollForTimeStampEvent:00000000 HAL_RTCEx_PollForTimeStampEvent
     /tmp/cc8XWiN3.s:1166   .text.HAL_RTCEx_PollForTamper1Event:00000000 $t
     /tmp/cc8XWiN3.s:1172   .text.HAL_RTCEx_PollForTamper1Event:00000000 HAL_RTCEx_PollForTamper1Event
     /tmp/cc8XWiN3.s:1250   .text.HAL_RTCEx_SetWakeUpTimer:00000000 $t
     /tmp/cc8XWiN3.s:1256   .text.HAL_RTCEx_SetWakeUpTimer:00000000 HAL_RTCEx_SetWakeUpTimer
     /tmp/cc8XWiN3.s:1466   .text.HAL_RTCEx_SetWakeUpTimer_IT:00000000 $t
     /tmp/cc8XWiN3.s:1472   .text.HAL_RTCEx_SetWakeUpTimer_IT:00000000 HAL_RTCEx_SetWakeUpTimer_IT
     /tmp/cc8XWiN3.s:1707   .text.HAL_RTCEx_SetWakeUpTimer_IT:000000ec $d
     /tmp/cc8XWiN3.s:1714   .text.HAL_RTCEx_DeactivateWakeUpTimer:00000000 $t
     /tmp/cc8XWiN3.s:1720   .text.HAL_RTCEx_DeactivateWakeUpTimer:00000000 HAL_RTCEx_DeactivateWakeUpTimer
     /tmp/cc8XWiN3.s:1844   .text.HAL_RTCEx_GetWakeUpTimer:00000000 $t
     /tmp/cc8XWiN3.s:1850   .text.HAL_RTCEx_GetWakeUpTimer:00000000 HAL_RTCEx_GetWakeUpTimer
     /tmp/cc8XWiN3.s:1871   .text.HAL_RTCEx_WakeUpTimerEventCallback:00000000 $t
     /tmp/cc8XWiN3.s:1877   .text.HAL_RTCEx_WakeUpTimerEventCallback:00000000 HAL_RTCEx_WakeUpTimerEventCallback
     /tmp/cc8XWiN3.s:1892   .text.HAL_RTCEx_WakeUpTimerIRQHandler:00000000 $t
     /tmp/cc8XWiN3.s:1898   .text.HAL_RTCEx_WakeUpTimerIRQHandler:00000000 HAL_RTCEx_WakeUpTimerIRQHandler
     /tmp/cc8XWiN3.s:1945   .text.HAL_RTCEx_WakeUpTimerIRQHandler:00000030 $d
     /tmp/cc8XWiN3.s:1950   .text.HAL_RTCEx_PollForWakeUpTimerEvent:00000000 $t
     /tmp/cc8XWiN3.s:1956   .text.HAL_RTCEx_PollForWakeUpTimerEvent:00000000 HAL_RTCEx_PollForWakeUpTimerEvent
     /tmp/cc8XWiN3.s:2034   .text.HAL_RTCEx_BKUPWrite:00000000 $t
     /tmp/cc8XWiN3.s:2040   .text.HAL_RTCEx_BKUPWrite:00000000 HAL_RTCEx_BKUPWrite
     /tmp/cc8XWiN3.s:2066   .text.HAL_RTCEx_BKUPRead:00000000 $t
     /tmp/cc8XWiN3.s:2072   .text.HAL_RTCEx_BKUPRead:00000000 HAL_RTCEx_BKUPRead
     /tmp/cc8XWiN3.s:2099   .text.HAL_RTCEx_SetCoarseCalib:00000000 $t
     /tmp/cc8XWiN3.s:2105   .text.HAL_RTCEx_SetCoarseCalib:00000000 HAL_RTCEx_SetCoarseCalib
     /tmp/cc8XWiN3.s:2220   .text.HAL_RTCEx_DeactivateCoarseCalib:00000000 $t
     /tmp/cc8XWiN3.s:2226   .text.HAL_RTCEx_DeactivateCoarseCalib:00000000 HAL_RTCEx_DeactivateCoarseCalib
     /tmp/cc8XWiN3.s:2323   .text.HAL_RTCEx_SetSmoothCalib:00000000 $t
     /tmp/cc8XWiN3.s:2329   .text.HAL_RTCEx_SetSmoothCalib:00000000 HAL_RTCEx_SetSmoothCalib
     /tmp/cc8XWiN3.s:2478   .text.HAL_RTCEx_SetSynchroShift:00000000 $t
     /tmp/cc8XWiN3.s:2484   .text.HAL_RTCEx_SetSynchroShift:00000000 HAL_RTCEx_SetSynchroShift
ARM GAS  /tmp/cc8XWiN3.s 			page 97


     /tmp/cc8XWiN3.s:2684   .text.HAL_RTCEx_SetCalibrationOutPut:00000000 $t
     /tmp/cc8XWiN3.s:2690   .text.HAL_RTCEx_SetCalibrationOutPut:00000000 HAL_RTCEx_SetCalibrationOutPut
     /tmp/cc8XWiN3.s:2783   .text.HAL_RTCEx_DeactivateCalibrationOutPut:00000000 $t
     /tmp/cc8XWiN3.s:2789   .text.HAL_RTCEx_DeactivateCalibrationOutPut:00000000 HAL_RTCEx_DeactivateCalibrationOutPut
     /tmp/cc8XWiN3.s:2856   .text.HAL_RTCEx_SetRefClock:00000000 $t
     /tmp/cc8XWiN3.s:2862   .text.HAL_RTCEx_SetRefClock:00000000 HAL_RTCEx_SetRefClock
     /tmp/cc8XWiN3.s:2959   .text.HAL_RTCEx_DeactivateRefClock:00000000 $t
     /tmp/cc8XWiN3.s:2965   .text.HAL_RTCEx_DeactivateRefClock:00000000 HAL_RTCEx_DeactivateRefClock
     /tmp/cc8XWiN3.s:3062   .text.HAL_RTCEx_EnableBypassShadow:00000000 $t
     /tmp/cc8XWiN3.s:3068   .text.HAL_RTCEx_EnableBypassShadow:00000000 HAL_RTCEx_EnableBypassShadow
     /tmp/cc8XWiN3.s:3138   .text.HAL_RTCEx_DisableBypassShadow:00000000 $t
     /tmp/cc8XWiN3.s:3144   .text.HAL_RTCEx_DisableBypassShadow:00000000 HAL_RTCEx_DisableBypassShadow
     /tmp/cc8XWiN3.s:3214   .text.HAL_RTCEx_AlarmBEventCallback:00000000 $t
     /tmp/cc8XWiN3.s:3220   .text.HAL_RTCEx_AlarmBEventCallback:00000000 HAL_RTCEx_AlarmBEventCallback
     /tmp/cc8XWiN3.s:3235   .text.HAL_RTCEx_PollForAlarmBEvent:00000000 $t
     /tmp/cc8XWiN3.s:3241   .text.HAL_RTCEx_PollForAlarmBEvent:00000000 HAL_RTCEx_PollForAlarmBEvent

UNDEFINED SYMBOLS
RTC_Bcd2ToByte
HAL_GetTick
SystemCoreClock
RTC_EnterInitMode
RTC_ExitInitMode
HAL_RTC_WaitForSynchro
