ARM GAS  /tmp/cc74GRYw.s 			page 1


   1              		.cpu cortex-m4
   2              		.arch armv7e-m
   3              		.fpu fpv4-sp-d16
   4              		.eabi_attribute 27, 1
   5              		.eabi_attribute 28, 1
   6              		.eabi_attribute 20, 1
   7              		.eabi_attribute 21, 1
   8              		.eabi_attribute 23, 3
   9              		.eabi_attribute 24, 1
  10              		.eabi_attribute 25, 1
  11              		.eabi_attribute 26, 1
  12              		.eabi_attribute 30, 1
  13              		.eabi_attribute 34, 1
  14              		.eabi_attribute 18, 4
  15              		.file	"stm32f4xx_hal_i2s_ex.c"
  16              		.text
  17              	.Ltext0:
  18              		.cfi_sections	.debug_frame
  19              		.file 1 "Drivers/STM32F4xx_HAL_Driver/Src/stm32f4xx_hal_i2s_ex.c"
  20              		.section	.text.I2SEx_FullDuplexWaitFlagStateUntilTimeout,"ax",%progbits
  21              		.align	1
  22              		.syntax unified
  23              		.thumb
  24              		.thumb_func
  26              	I2SEx_FullDuplexWaitFlagStateUntilTimeout:
  27              	.LVL0:
  28              	.LFB143:
   1:Drivers/STM32F4xx_HAL_Driver/Src/stm32f4xx_hal_i2s_ex.c **** /**
   2:Drivers/STM32F4xx_HAL_Driver/Src/stm32f4xx_hal_i2s_ex.c ****   ******************************************************************************
   3:Drivers/STM32F4xx_HAL_Driver/Src/stm32f4xx_hal_i2s_ex.c ****   * @file    stm32f4xx_hal_i2s_ex.c
   4:Drivers/STM32F4xx_HAL_Driver/Src/stm32f4xx_hal_i2s_ex.c ****   * @author  MCD Application Team
   5:Drivers/STM32F4xx_HAL_Driver/Src/stm32f4xx_hal_i2s_ex.c ****   * @brief   I2S HAL module driver.
   6:Drivers/STM32F4xx_HAL_Driver/Src/stm32f4xx_hal_i2s_ex.c ****   *          This file provides firmware functions to manage the following
   7:Drivers/STM32F4xx_HAL_Driver/Src/stm32f4xx_hal_i2s_ex.c ****   *          functionalities of I2S extension peripheral:
   8:Drivers/STM32F4xx_HAL_Driver/Src/stm32f4xx_hal_i2s_ex.c ****   *           + Extension features Functions
   9:Drivers/STM32F4xx_HAL_Driver/Src/stm32f4xx_hal_i2s_ex.c ****   ******************************************************************************
  10:Drivers/STM32F4xx_HAL_Driver/Src/stm32f4xx_hal_i2s_ex.c ****   * @attention
  11:Drivers/STM32F4xx_HAL_Driver/Src/stm32f4xx_hal_i2s_ex.c ****   *
  12:Drivers/STM32F4xx_HAL_Driver/Src/stm32f4xx_hal_i2s_ex.c ****   * Copyright (c) 2016 STMicroelectronics.
  13:Drivers/STM32F4xx_HAL_Driver/Src/stm32f4xx_hal_i2s_ex.c ****   * All rights reserved.
  14:Drivers/STM32F4xx_HAL_Driver/Src/stm32f4xx_hal_i2s_ex.c ****   *
  15:Drivers/STM32F4xx_HAL_Driver/Src/stm32f4xx_hal_i2s_ex.c ****   * This software is licensed under terms that can be found in the LICENSE file
  16:Drivers/STM32F4xx_HAL_Driver/Src/stm32f4xx_hal_i2s_ex.c ****   * in the root directory of this software component.
  17:Drivers/STM32F4xx_HAL_Driver/Src/stm32f4xx_hal_i2s_ex.c ****   * If no LICENSE file comes with this software, it is provided AS-IS.
  18:Drivers/STM32F4xx_HAL_Driver/Src/stm32f4xx_hal_i2s_ex.c ****   *
  19:Drivers/STM32F4xx_HAL_Driver/Src/stm32f4xx_hal_i2s_ex.c ****   ******************************************************************************
  20:Drivers/STM32F4xx_HAL_Driver/Src/stm32f4xx_hal_i2s_ex.c ****   @verbatim
  21:Drivers/STM32F4xx_HAL_Driver/Src/stm32f4xx_hal_i2s_ex.c ****   ==============================================================================
  22:Drivers/STM32F4xx_HAL_Driver/Src/stm32f4xx_hal_i2s_ex.c ****                     ##### I2S Extension features #####
  23:Drivers/STM32F4xx_HAL_Driver/Src/stm32f4xx_hal_i2s_ex.c ****   ==============================================================================
  24:Drivers/STM32F4xx_HAL_Driver/Src/stm32f4xx_hal_i2s_ex.c ****   [..]
  25:Drivers/STM32F4xx_HAL_Driver/Src/stm32f4xx_hal_i2s_ex.c ****      (#) In I2S full duplex mode, each SPI peripheral is able to manage sending and receiving
  26:Drivers/STM32F4xx_HAL_Driver/Src/stm32f4xx_hal_i2s_ex.c ****          data simultaneously using two data lines. Each SPI peripheral has an extended block
  27:Drivers/STM32F4xx_HAL_Driver/Src/stm32f4xx_hal_i2s_ex.c ****          called I2Sxext (i.e I2S2ext for SPI2 and I2S3ext for SPI3).
  28:Drivers/STM32F4xx_HAL_Driver/Src/stm32f4xx_hal_i2s_ex.c ****      (#) The extension block is not a full SPI IP, it is used only as I2S slave to
  29:Drivers/STM32F4xx_HAL_Driver/Src/stm32f4xx_hal_i2s_ex.c ****          implement full duplex mode. The extension block uses the same clock sources
  30:Drivers/STM32F4xx_HAL_Driver/Src/stm32f4xx_hal_i2s_ex.c ****          as its master.
ARM GAS  /tmp/cc74GRYw.s 			page 2


  31:Drivers/STM32F4xx_HAL_Driver/Src/stm32f4xx_hal_i2s_ex.c **** 
  32:Drivers/STM32F4xx_HAL_Driver/Src/stm32f4xx_hal_i2s_ex.c ****      (#) Both I2Sx and I2Sx_ext can be configured as transmitters or receivers.
  33:Drivers/STM32F4xx_HAL_Driver/Src/stm32f4xx_hal_i2s_ex.c **** 
  34:Drivers/STM32F4xx_HAL_Driver/Src/stm32f4xx_hal_i2s_ex.c ****      [..]
  35:Drivers/STM32F4xx_HAL_Driver/Src/stm32f4xx_hal_i2s_ex.c ****        (@) Only I2Sx can deliver SCK and WS to I2Sx_ext in full duplex mode, where
  36:Drivers/STM32F4xx_HAL_Driver/Src/stm32f4xx_hal_i2s_ex.c ****          I2Sx can be I2S2 or I2S3.
  37:Drivers/STM32F4xx_HAL_Driver/Src/stm32f4xx_hal_i2s_ex.c **** 
  38:Drivers/STM32F4xx_HAL_Driver/Src/stm32f4xx_hal_i2s_ex.c ****                   ##### How to use this driver #####
  39:Drivers/STM32F4xx_HAL_Driver/Src/stm32f4xx_hal_i2s_ex.c ****  ===============================================================================
  40:Drivers/STM32F4xx_HAL_Driver/Src/stm32f4xx_hal_i2s_ex.c ****  [..]
  41:Drivers/STM32F4xx_HAL_Driver/Src/stm32f4xx_hal_i2s_ex.c ****    Three operation modes are available within this driver :
  42:Drivers/STM32F4xx_HAL_Driver/Src/stm32f4xx_hal_i2s_ex.c **** 
  43:Drivers/STM32F4xx_HAL_Driver/Src/stm32f4xx_hal_i2s_ex.c ****    *** Polling mode IO operation ***
  44:Drivers/STM32F4xx_HAL_Driver/Src/stm32f4xx_hal_i2s_ex.c ****    =================================
  45:Drivers/STM32F4xx_HAL_Driver/Src/stm32f4xx_hal_i2s_ex.c ****    [..]
  46:Drivers/STM32F4xx_HAL_Driver/Src/stm32f4xx_hal_i2s_ex.c ****      (+) Send and receive in the same time an amount of data in blocking mode using HAL_I2SEx_Trans
  47:Drivers/STM32F4xx_HAL_Driver/Src/stm32f4xx_hal_i2s_ex.c **** 
  48:Drivers/STM32F4xx_HAL_Driver/Src/stm32f4xx_hal_i2s_ex.c ****    *** Interrupt mode IO operation ***
  49:Drivers/STM32F4xx_HAL_Driver/Src/stm32f4xx_hal_i2s_ex.c ****    ===================================
  50:Drivers/STM32F4xx_HAL_Driver/Src/stm32f4xx_hal_i2s_ex.c ****    [..]
  51:Drivers/STM32F4xx_HAL_Driver/Src/stm32f4xx_hal_i2s_ex.c ****      (+) Send and receive in the same time an amount of data in non blocking mode using HAL_I2SEx_T
  52:Drivers/STM32F4xx_HAL_Driver/Src/stm32f4xx_hal_i2s_ex.c ****      (+) At transmission/reception end of transfer HAL_I2SEx_TxRxCpltCallback is executed and user 
  53:Drivers/STM32F4xx_HAL_Driver/Src/stm32f4xx_hal_i2s_ex.c ****          add his own code by customization of function pointer HAL_I2SEx_TxRxCpltCallback
  54:Drivers/STM32F4xx_HAL_Driver/Src/stm32f4xx_hal_i2s_ex.c ****      (+) In case of transfer Error, HAL_I2S_ErrorCallback() function is executed and user can
  55:Drivers/STM32F4xx_HAL_Driver/Src/stm32f4xx_hal_i2s_ex.c ****          add his own code by customization of function pointer HAL_I2S_ErrorCallback
  56:Drivers/STM32F4xx_HAL_Driver/Src/stm32f4xx_hal_i2s_ex.c **** 
  57:Drivers/STM32F4xx_HAL_Driver/Src/stm32f4xx_hal_i2s_ex.c ****    *** DMA mode IO operation ***
  58:Drivers/STM32F4xx_HAL_Driver/Src/stm32f4xx_hal_i2s_ex.c ****    ==============================
  59:Drivers/STM32F4xx_HAL_Driver/Src/stm32f4xx_hal_i2s_ex.c ****    [..]
  60:Drivers/STM32F4xx_HAL_Driver/Src/stm32f4xx_hal_i2s_ex.c ****      (+) Send and receive an amount of data in non blocking mode (DMA) using HAL_I2SEx_TransmitRece
  61:Drivers/STM32F4xx_HAL_Driver/Src/stm32f4xx_hal_i2s_ex.c ****      (+) At transmission/reception end of transfer HAL_I2SEx_TxRxCpltCallback is executed and user 
  62:Drivers/STM32F4xx_HAL_Driver/Src/stm32f4xx_hal_i2s_ex.c ****          add his own code by customization of function pointer HAL_I2S_TxRxCpltCallback
  63:Drivers/STM32F4xx_HAL_Driver/Src/stm32f4xx_hal_i2s_ex.c ****      (+) In case of transfer Error, HAL_I2S_ErrorCallback() function is executed and user can
  64:Drivers/STM32F4xx_HAL_Driver/Src/stm32f4xx_hal_i2s_ex.c ****          add his own code by customization of function pointer HAL_I2S_ErrorCallback
  65:Drivers/STM32F4xx_HAL_Driver/Src/stm32f4xx_hal_i2s_ex.c ****      (+) __HAL_I2SEXT_FLUSH_RX_DR: In Full-Duplex Slave mode, if HAL_I2S_DMAStop is used to stop th
  66:Drivers/STM32F4xx_HAL_Driver/Src/stm32f4xx_hal_i2s_ex.c ****          communication, an error HAL_I2S_ERROR_BUSY_LINE_RX is raised as the master continue to tra
  67:Drivers/STM32F4xx_HAL_Driver/Src/stm32f4xx_hal_i2s_ex.c ****          In this case __HAL_I2SEXT_FLUSH_RX_DR macro must be used to flush the remaining data
  68:Drivers/STM32F4xx_HAL_Driver/Src/stm32f4xx_hal_i2s_ex.c ****          inside I2Sx and I2Sx_ext DR registers and avoid using DeInit/Init process for the next tra
  69:Drivers/STM32F4xx_HAL_Driver/Src/stm32f4xx_hal_i2s_ex.c ****   @endverbatim
  70:Drivers/STM32F4xx_HAL_Driver/Src/stm32f4xx_hal_i2s_ex.c **** 
  71:Drivers/STM32F4xx_HAL_Driver/Src/stm32f4xx_hal_i2s_ex.c ****  Additional Figure: The Extended block uses the same clock sources as its master.
  72:Drivers/STM32F4xx_HAL_Driver/Src/stm32f4xx_hal_i2s_ex.c **** 
  73:Drivers/STM32F4xx_HAL_Driver/Src/stm32f4xx_hal_i2s_ex.c ****                 +-----------------------+
  74:Drivers/STM32F4xx_HAL_Driver/Src/stm32f4xx_hal_i2s_ex.c ****     I2Sx_SCK    |                       |
  75:Drivers/STM32F4xx_HAL_Driver/Src/stm32f4xx_hal_i2s_ex.c ****  ----------+-->|          I2Sx         |------------------->I2Sx_SD(in/out)
  76:Drivers/STM32F4xx_HAL_Driver/Src/stm32f4xx_hal_i2s_ex.c ****          +--|-->|                       |
  77:Drivers/STM32F4xx_HAL_Driver/Src/stm32f4xx_hal_i2s_ex.c ****         |   |   +-----------------------+
  78:Drivers/STM32F4xx_HAL_Driver/Src/stm32f4xx_hal_i2s_ex.c ****         |   |
  79:Drivers/STM32F4xx_HAL_Driver/Src/stm32f4xx_hal_i2s_ex.c ****  I2S_WS |   |
  80:Drivers/STM32F4xx_HAL_Driver/Src/stm32f4xx_hal_i2s_ex.c ****  ------>|   |
  81:Drivers/STM32F4xx_HAL_Driver/Src/stm32f4xx_hal_i2s_ex.c ****         |   |   +-----------------------+
  82:Drivers/STM32F4xx_HAL_Driver/Src/stm32f4xx_hal_i2s_ex.c ****         |   +-->|                       |
  83:Drivers/STM32F4xx_HAL_Driver/Src/stm32f4xx_hal_i2s_ex.c ****         |       |       I2Sx_ext        |------------------->I2Sx_extSD(in/out)
  84:Drivers/STM32F4xx_HAL_Driver/Src/stm32f4xx_hal_i2s_ex.c ****          +----->|                       |
  85:Drivers/STM32F4xx_HAL_Driver/Src/stm32f4xx_hal_i2s_ex.c ****                 +-----------------------+
  86:Drivers/STM32F4xx_HAL_Driver/Src/stm32f4xx_hal_i2s_ex.c ****   */
  87:Drivers/STM32F4xx_HAL_Driver/Src/stm32f4xx_hal_i2s_ex.c **** 
ARM GAS  /tmp/cc74GRYw.s 			page 3


  88:Drivers/STM32F4xx_HAL_Driver/Src/stm32f4xx_hal_i2s_ex.c **** /* Includes ------------------------------------------------------------------*/
  89:Drivers/STM32F4xx_HAL_Driver/Src/stm32f4xx_hal_i2s_ex.c **** #include "stm32f4xx_hal.h"
  90:Drivers/STM32F4xx_HAL_Driver/Src/stm32f4xx_hal_i2s_ex.c **** 
  91:Drivers/STM32F4xx_HAL_Driver/Src/stm32f4xx_hal_i2s_ex.c **** /** @addtogroup STM32F4xx_HAL_Driver
  92:Drivers/STM32F4xx_HAL_Driver/Src/stm32f4xx_hal_i2s_ex.c ****   * @{
  93:Drivers/STM32F4xx_HAL_Driver/Src/stm32f4xx_hal_i2s_ex.c ****   */
  94:Drivers/STM32F4xx_HAL_Driver/Src/stm32f4xx_hal_i2s_ex.c **** 
  95:Drivers/STM32F4xx_HAL_Driver/Src/stm32f4xx_hal_i2s_ex.c **** #ifdef HAL_I2S_MODULE_ENABLED
  96:Drivers/STM32F4xx_HAL_Driver/Src/stm32f4xx_hal_i2s_ex.c **** 
  97:Drivers/STM32F4xx_HAL_Driver/Src/stm32f4xx_hal_i2s_ex.c **** /** @defgroup I2SEx I2SEx
  98:Drivers/STM32F4xx_HAL_Driver/Src/stm32f4xx_hal_i2s_ex.c ****   * @brief I2S Extended HAL module driver
  99:Drivers/STM32F4xx_HAL_Driver/Src/stm32f4xx_hal_i2s_ex.c ****   * @{
 100:Drivers/STM32F4xx_HAL_Driver/Src/stm32f4xx_hal_i2s_ex.c ****   */
 101:Drivers/STM32F4xx_HAL_Driver/Src/stm32f4xx_hal_i2s_ex.c **** 
 102:Drivers/STM32F4xx_HAL_Driver/Src/stm32f4xx_hal_i2s_ex.c **** #if defined (SPI_I2S_FULLDUPLEX_SUPPORT)
 103:Drivers/STM32F4xx_HAL_Driver/Src/stm32f4xx_hal_i2s_ex.c **** 
 104:Drivers/STM32F4xx_HAL_Driver/Src/stm32f4xx_hal_i2s_ex.c **** /* Private typedef -----------------------------------------------------------*/
 105:Drivers/STM32F4xx_HAL_Driver/Src/stm32f4xx_hal_i2s_ex.c **** /** @defgroup I2SEx_Private_Typedef I2S Extended Private Typedef
 106:Drivers/STM32F4xx_HAL_Driver/Src/stm32f4xx_hal_i2s_ex.c ****   * @{
 107:Drivers/STM32F4xx_HAL_Driver/Src/stm32f4xx_hal_i2s_ex.c ****   */
 108:Drivers/STM32F4xx_HAL_Driver/Src/stm32f4xx_hal_i2s_ex.c **** typedef enum
 109:Drivers/STM32F4xx_HAL_Driver/Src/stm32f4xx_hal_i2s_ex.c **** {
 110:Drivers/STM32F4xx_HAL_Driver/Src/stm32f4xx_hal_i2s_ex.c ****   I2S_USE_I2S      = 0x00U,   /*!< I2Sx should be used      */
 111:Drivers/STM32F4xx_HAL_Driver/Src/stm32f4xx_hal_i2s_ex.c ****   I2S_USE_I2SEXT   = 0x01U,   /*!< I2Sx_ext should be used  */
 112:Drivers/STM32F4xx_HAL_Driver/Src/stm32f4xx_hal_i2s_ex.c **** } I2S_UseTypeDef;
 113:Drivers/STM32F4xx_HAL_Driver/Src/stm32f4xx_hal_i2s_ex.c **** /**
 114:Drivers/STM32F4xx_HAL_Driver/Src/stm32f4xx_hal_i2s_ex.c ****   * @}
 115:Drivers/STM32F4xx_HAL_Driver/Src/stm32f4xx_hal_i2s_ex.c ****   */
 116:Drivers/STM32F4xx_HAL_Driver/Src/stm32f4xx_hal_i2s_ex.c **** /* Private define ------------------------------------------------------------*/
 117:Drivers/STM32F4xx_HAL_Driver/Src/stm32f4xx_hal_i2s_ex.c **** /* Private macro -------------------------------------------------------------*/
 118:Drivers/STM32F4xx_HAL_Driver/Src/stm32f4xx_hal_i2s_ex.c **** /* Private variables ---------------------------------------------------------*/
 119:Drivers/STM32F4xx_HAL_Driver/Src/stm32f4xx_hal_i2s_ex.c **** /* Private function prototypes -----------------------------------------------*/
 120:Drivers/STM32F4xx_HAL_Driver/Src/stm32f4xx_hal_i2s_ex.c **** /** @defgroup I2SEx_Private_Functions I2S Extended Private Functions
 121:Drivers/STM32F4xx_HAL_Driver/Src/stm32f4xx_hal_i2s_ex.c ****   * @{
 122:Drivers/STM32F4xx_HAL_Driver/Src/stm32f4xx_hal_i2s_ex.c ****   */
 123:Drivers/STM32F4xx_HAL_Driver/Src/stm32f4xx_hal_i2s_ex.c **** static void I2SEx_TxRxDMAHalfCplt(DMA_HandleTypeDef *hdma);
 124:Drivers/STM32F4xx_HAL_Driver/Src/stm32f4xx_hal_i2s_ex.c **** static void I2SEx_TxRxDMACplt(DMA_HandleTypeDef *hdma);
 125:Drivers/STM32F4xx_HAL_Driver/Src/stm32f4xx_hal_i2s_ex.c **** static void I2SEx_TxRxDMAError(DMA_HandleTypeDef *hdma);
 126:Drivers/STM32F4xx_HAL_Driver/Src/stm32f4xx_hal_i2s_ex.c **** static void I2SEx_RxISR_I2S(I2S_HandleTypeDef *hi2s);
 127:Drivers/STM32F4xx_HAL_Driver/Src/stm32f4xx_hal_i2s_ex.c **** static void I2SEx_RxISR_I2SExt(I2S_HandleTypeDef *hi2s);
 128:Drivers/STM32F4xx_HAL_Driver/Src/stm32f4xx_hal_i2s_ex.c **** static void I2SEx_TxISR_I2S(I2S_HandleTypeDef *hi2s);
 129:Drivers/STM32F4xx_HAL_Driver/Src/stm32f4xx_hal_i2s_ex.c **** static void I2SEx_TxISR_I2SExt(I2S_HandleTypeDef *hi2s);
 130:Drivers/STM32F4xx_HAL_Driver/Src/stm32f4xx_hal_i2s_ex.c **** static HAL_StatusTypeDef I2SEx_FullDuplexWaitFlagStateUntilTimeout(I2S_HandleTypeDef *hi2s,
 131:Drivers/STM32F4xx_HAL_Driver/Src/stm32f4xx_hal_i2s_ex.c ****                                                                    uint32_t Flag,
 132:Drivers/STM32F4xx_HAL_Driver/Src/stm32f4xx_hal_i2s_ex.c ****                                                                    uint32_t State,
 133:Drivers/STM32F4xx_HAL_Driver/Src/stm32f4xx_hal_i2s_ex.c ****                                                                    uint32_t Timeout,
 134:Drivers/STM32F4xx_HAL_Driver/Src/stm32f4xx_hal_i2s_ex.c ****                                                                    I2S_UseTypeDef i2sUsed);
 135:Drivers/STM32F4xx_HAL_Driver/Src/stm32f4xx_hal_i2s_ex.c **** /**
 136:Drivers/STM32F4xx_HAL_Driver/Src/stm32f4xx_hal_i2s_ex.c ****   * @}
 137:Drivers/STM32F4xx_HAL_Driver/Src/stm32f4xx_hal_i2s_ex.c ****   */
 138:Drivers/STM32F4xx_HAL_Driver/Src/stm32f4xx_hal_i2s_ex.c **** 
 139:Drivers/STM32F4xx_HAL_Driver/Src/stm32f4xx_hal_i2s_ex.c **** /**
 140:Drivers/STM32F4xx_HAL_Driver/Src/stm32f4xx_hal_i2s_ex.c ****   * @}
 141:Drivers/STM32F4xx_HAL_Driver/Src/stm32f4xx_hal_i2s_ex.c ****   */
 142:Drivers/STM32F4xx_HAL_Driver/Src/stm32f4xx_hal_i2s_ex.c **** 
 143:Drivers/STM32F4xx_HAL_Driver/Src/stm32f4xx_hal_i2s_ex.c **** /* Private functions ---------------------------------------------------------*/
 144:Drivers/STM32F4xx_HAL_Driver/Src/stm32f4xx_hal_i2s_ex.c **** /* Exported functions --------------------------------------------------------*/
ARM GAS  /tmp/cc74GRYw.s 			page 4


 145:Drivers/STM32F4xx_HAL_Driver/Src/stm32f4xx_hal_i2s_ex.c **** 
 146:Drivers/STM32F4xx_HAL_Driver/Src/stm32f4xx_hal_i2s_ex.c **** /** @addtogroup I2SEx I2SEx
 147:Drivers/STM32F4xx_HAL_Driver/Src/stm32f4xx_hal_i2s_ex.c ****   * @{
 148:Drivers/STM32F4xx_HAL_Driver/Src/stm32f4xx_hal_i2s_ex.c ****   */
 149:Drivers/STM32F4xx_HAL_Driver/Src/stm32f4xx_hal_i2s_ex.c **** 
 150:Drivers/STM32F4xx_HAL_Driver/Src/stm32f4xx_hal_i2s_ex.c **** /** @addtogroup I2SEx_Exported_Functions I2S Extended Exported Functions
 151:Drivers/STM32F4xx_HAL_Driver/Src/stm32f4xx_hal_i2s_ex.c ****   * @{
 152:Drivers/STM32F4xx_HAL_Driver/Src/stm32f4xx_hal_i2s_ex.c ****   */
 153:Drivers/STM32F4xx_HAL_Driver/Src/stm32f4xx_hal_i2s_ex.c **** 
 154:Drivers/STM32F4xx_HAL_Driver/Src/stm32f4xx_hal_i2s_ex.c **** /** @defgroup I2SEx_Exported_Functions_Group1 I2S Extended IO operation functions
 155:Drivers/STM32F4xx_HAL_Driver/Src/stm32f4xx_hal_i2s_ex.c ****   *  @brief   I2SEx IO operation functions
 156:Drivers/STM32F4xx_HAL_Driver/Src/stm32f4xx_hal_i2s_ex.c ****   *
 157:Drivers/STM32F4xx_HAL_Driver/Src/stm32f4xx_hal_i2s_ex.c **** @verbatim
 158:Drivers/STM32F4xx_HAL_Driver/Src/stm32f4xx_hal_i2s_ex.c ****  ===============================================================================
 159:Drivers/STM32F4xx_HAL_Driver/Src/stm32f4xx_hal_i2s_ex.c ****                        ##### IO operation functions#####
 160:Drivers/STM32F4xx_HAL_Driver/Src/stm32f4xx_hal_i2s_ex.c ****  ===============================================================================
 161:Drivers/STM32F4xx_HAL_Driver/Src/stm32f4xx_hal_i2s_ex.c ****     [..]
 162:Drivers/STM32F4xx_HAL_Driver/Src/stm32f4xx_hal_i2s_ex.c ****     This subsection provides a set of functions allowing to manage the I2S data
 163:Drivers/STM32F4xx_HAL_Driver/Src/stm32f4xx_hal_i2s_ex.c ****     transfers.
 164:Drivers/STM32F4xx_HAL_Driver/Src/stm32f4xx_hal_i2s_ex.c **** 
 165:Drivers/STM32F4xx_HAL_Driver/Src/stm32f4xx_hal_i2s_ex.c ****     (#) There are two modes of transfer:
 166:Drivers/STM32F4xx_HAL_Driver/Src/stm32f4xx_hal_i2s_ex.c ****        (++) Blocking mode : The communication is performed in the polling mode.
 167:Drivers/STM32F4xx_HAL_Driver/Src/stm32f4xx_hal_i2s_ex.c ****             The status of all data processing is returned by the same function
 168:Drivers/STM32F4xx_HAL_Driver/Src/stm32f4xx_hal_i2s_ex.c ****             after finishing transfer.
 169:Drivers/STM32F4xx_HAL_Driver/Src/stm32f4xx_hal_i2s_ex.c ****        (++) No-Blocking mode : The communication is performed using Interrupts
 170:Drivers/STM32F4xx_HAL_Driver/Src/stm32f4xx_hal_i2s_ex.c ****             or DMA. These functions return the status of the transfer startup.
 171:Drivers/STM32F4xx_HAL_Driver/Src/stm32f4xx_hal_i2s_ex.c ****             The end of the data processing will be indicated through the
 172:Drivers/STM32F4xx_HAL_Driver/Src/stm32f4xx_hal_i2s_ex.c ****             dedicated I2S IRQ when using Interrupt mode or the DMA IRQ when
 173:Drivers/STM32F4xx_HAL_Driver/Src/stm32f4xx_hal_i2s_ex.c ****             using DMA mode.
 174:Drivers/STM32F4xx_HAL_Driver/Src/stm32f4xx_hal_i2s_ex.c **** 
 175:Drivers/STM32F4xx_HAL_Driver/Src/stm32f4xx_hal_i2s_ex.c ****     (#) Blocking mode functions are :
 176:Drivers/STM32F4xx_HAL_Driver/Src/stm32f4xx_hal_i2s_ex.c ****         (++) HAL_I2SEx_TransmitReceive()
 177:Drivers/STM32F4xx_HAL_Driver/Src/stm32f4xx_hal_i2s_ex.c **** 
 178:Drivers/STM32F4xx_HAL_Driver/Src/stm32f4xx_hal_i2s_ex.c ****     (#) No-Blocking mode functions with Interrupt are :
 179:Drivers/STM32F4xx_HAL_Driver/Src/stm32f4xx_hal_i2s_ex.c ****         (++) HAL_I2SEx_TransmitReceive_IT()
 180:Drivers/STM32F4xx_HAL_Driver/Src/stm32f4xx_hal_i2s_ex.c ****         (++) HAL_I2SEx_FullDuplex_IRQHandler()
 181:Drivers/STM32F4xx_HAL_Driver/Src/stm32f4xx_hal_i2s_ex.c **** 
 182:Drivers/STM32F4xx_HAL_Driver/Src/stm32f4xx_hal_i2s_ex.c ****     (#) No-Blocking mode functions with DMA are :
 183:Drivers/STM32F4xx_HAL_Driver/Src/stm32f4xx_hal_i2s_ex.c ****         (++) HAL_I2SEx_TransmitReceive_DMA()
 184:Drivers/STM32F4xx_HAL_Driver/Src/stm32f4xx_hal_i2s_ex.c **** 
 185:Drivers/STM32F4xx_HAL_Driver/Src/stm32f4xx_hal_i2s_ex.c ****     (#) A set of Transfer Complete Callback are provided in non Blocking mode:
 186:Drivers/STM32F4xx_HAL_Driver/Src/stm32f4xx_hal_i2s_ex.c ****         (++) HAL_I2SEx_TxRxCpltCallback()
 187:Drivers/STM32F4xx_HAL_Driver/Src/stm32f4xx_hal_i2s_ex.c **** @endverbatim
 188:Drivers/STM32F4xx_HAL_Driver/Src/stm32f4xx_hal_i2s_ex.c ****   * @{
 189:Drivers/STM32F4xx_HAL_Driver/Src/stm32f4xx_hal_i2s_ex.c ****   */
 190:Drivers/STM32F4xx_HAL_Driver/Src/stm32f4xx_hal_i2s_ex.c **** /**
 191:Drivers/STM32F4xx_HAL_Driver/Src/stm32f4xx_hal_i2s_ex.c ****   * @brief  Full-Duplex Transmit/Receive data in blocking mode.
 192:Drivers/STM32F4xx_HAL_Driver/Src/stm32f4xx_hal_i2s_ex.c ****   * @param  hi2s pointer to a I2S_HandleTypeDef structure that contains
 193:Drivers/STM32F4xx_HAL_Driver/Src/stm32f4xx_hal_i2s_ex.c ****   *         the configuration information for I2S module
 194:Drivers/STM32F4xx_HAL_Driver/Src/stm32f4xx_hal_i2s_ex.c ****   * @param  pTxData a 16-bit pointer to the Transmit data buffer.
 195:Drivers/STM32F4xx_HAL_Driver/Src/stm32f4xx_hal_i2s_ex.c ****   * @param  pRxData a 16-bit pointer to the Receive data buffer.
 196:Drivers/STM32F4xx_HAL_Driver/Src/stm32f4xx_hal_i2s_ex.c ****   * @param  Size number of data sample to be sent:
 197:Drivers/STM32F4xx_HAL_Driver/Src/stm32f4xx_hal_i2s_ex.c ****   * @note   When a 16-bit data frame or a 16-bit data frame extended is selected during the I2S
 198:Drivers/STM32F4xx_HAL_Driver/Src/stm32f4xx_hal_i2s_ex.c ****   *         configuration phase, the Size parameter means the number of 16-bit data length
 199:Drivers/STM32F4xx_HAL_Driver/Src/stm32f4xx_hal_i2s_ex.c ****   *         in the transaction and when a 24-bit data frame or a 32-bit data frame is selected
 200:Drivers/STM32F4xx_HAL_Driver/Src/stm32f4xx_hal_i2s_ex.c ****   *         the Size parameter means the number of 16-bit data length.
 201:Drivers/STM32F4xx_HAL_Driver/Src/stm32f4xx_hal_i2s_ex.c ****   * @param  Timeout Timeout duration
ARM GAS  /tmp/cc74GRYw.s 			page 5


 202:Drivers/STM32F4xx_HAL_Driver/Src/stm32f4xx_hal_i2s_ex.c ****   * @note   The I2S is kept enabled at the end of transaction to avoid the clock de-synchronization
 203:Drivers/STM32F4xx_HAL_Driver/Src/stm32f4xx_hal_i2s_ex.c ****   *         between Master and Slave(example: audio streaming).
 204:Drivers/STM32F4xx_HAL_Driver/Src/stm32f4xx_hal_i2s_ex.c ****   * @retval HAL status
 205:Drivers/STM32F4xx_HAL_Driver/Src/stm32f4xx_hal_i2s_ex.c ****   */
 206:Drivers/STM32F4xx_HAL_Driver/Src/stm32f4xx_hal_i2s_ex.c **** HAL_StatusTypeDef HAL_I2SEx_TransmitReceive(I2S_HandleTypeDef *hi2s,
 207:Drivers/STM32F4xx_HAL_Driver/Src/stm32f4xx_hal_i2s_ex.c ****                                             uint16_t *pTxData,
 208:Drivers/STM32F4xx_HAL_Driver/Src/stm32f4xx_hal_i2s_ex.c ****                                             uint16_t *pRxData,
 209:Drivers/STM32F4xx_HAL_Driver/Src/stm32f4xx_hal_i2s_ex.c ****                                             uint16_t Size,
 210:Drivers/STM32F4xx_HAL_Driver/Src/stm32f4xx_hal_i2s_ex.c ****                                             uint32_t Timeout)
 211:Drivers/STM32F4xx_HAL_Driver/Src/stm32f4xx_hal_i2s_ex.c **** {
 212:Drivers/STM32F4xx_HAL_Driver/Src/stm32f4xx_hal_i2s_ex.c ****   uint32_t tmp1 = 0U;
 213:Drivers/STM32F4xx_HAL_Driver/Src/stm32f4xx_hal_i2s_ex.c ****   HAL_StatusTypeDef errorcode = HAL_OK;
 214:Drivers/STM32F4xx_HAL_Driver/Src/stm32f4xx_hal_i2s_ex.c **** 
 215:Drivers/STM32F4xx_HAL_Driver/Src/stm32f4xx_hal_i2s_ex.c ****   if (hi2s->State != HAL_I2S_STATE_READY)
 216:Drivers/STM32F4xx_HAL_Driver/Src/stm32f4xx_hal_i2s_ex.c ****   {
 217:Drivers/STM32F4xx_HAL_Driver/Src/stm32f4xx_hal_i2s_ex.c ****     errorcode = HAL_BUSY;
 218:Drivers/STM32F4xx_HAL_Driver/Src/stm32f4xx_hal_i2s_ex.c ****     goto error;
 219:Drivers/STM32F4xx_HAL_Driver/Src/stm32f4xx_hal_i2s_ex.c ****   }
 220:Drivers/STM32F4xx_HAL_Driver/Src/stm32f4xx_hal_i2s_ex.c **** 
 221:Drivers/STM32F4xx_HAL_Driver/Src/stm32f4xx_hal_i2s_ex.c ****   if ((pTxData == NULL) || (pRxData == NULL) || (Size == 0U))
 222:Drivers/STM32F4xx_HAL_Driver/Src/stm32f4xx_hal_i2s_ex.c ****   {
 223:Drivers/STM32F4xx_HAL_Driver/Src/stm32f4xx_hal_i2s_ex.c ****     return  HAL_ERROR;
 224:Drivers/STM32F4xx_HAL_Driver/Src/stm32f4xx_hal_i2s_ex.c ****   }
 225:Drivers/STM32F4xx_HAL_Driver/Src/stm32f4xx_hal_i2s_ex.c **** 
 226:Drivers/STM32F4xx_HAL_Driver/Src/stm32f4xx_hal_i2s_ex.c ****   /* Process Locked */
 227:Drivers/STM32F4xx_HAL_Driver/Src/stm32f4xx_hal_i2s_ex.c ****   __HAL_LOCK(hi2s);
 228:Drivers/STM32F4xx_HAL_Driver/Src/stm32f4xx_hal_i2s_ex.c **** 
 229:Drivers/STM32F4xx_HAL_Driver/Src/stm32f4xx_hal_i2s_ex.c ****   tmp1 = hi2s->Instance->I2SCFGR & (SPI_I2SCFGR_DATLEN | SPI_I2SCFGR_CHLEN);
 230:Drivers/STM32F4xx_HAL_Driver/Src/stm32f4xx_hal_i2s_ex.c ****   /* Check the Data format: When a 16-bit data frame or a 16-bit data frame extended
 231:Drivers/STM32F4xx_HAL_Driver/Src/stm32f4xx_hal_i2s_ex.c ****      is selected during the I2S configuration phase, the Size parameter means the number
 232:Drivers/STM32F4xx_HAL_Driver/Src/stm32f4xx_hal_i2s_ex.c ****      of 16-bit data length in the transaction and when a 24-bit data frame or a 32-bit data
 233:Drivers/STM32F4xx_HAL_Driver/Src/stm32f4xx_hal_i2s_ex.c ****      frame is selected the Size parameter means the number of 16-bit data length. */
 234:Drivers/STM32F4xx_HAL_Driver/Src/stm32f4xx_hal_i2s_ex.c ****   if ((tmp1 == I2S_DATAFORMAT_24B) || (tmp1 == I2S_DATAFORMAT_32B))
 235:Drivers/STM32F4xx_HAL_Driver/Src/stm32f4xx_hal_i2s_ex.c ****   {
 236:Drivers/STM32F4xx_HAL_Driver/Src/stm32f4xx_hal_i2s_ex.c ****     hi2s->TxXferSize  = (Size << 1U);
 237:Drivers/STM32F4xx_HAL_Driver/Src/stm32f4xx_hal_i2s_ex.c ****     hi2s->TxXferCount = (Size << 1U);
 238:Drivers/STM32F4xx_HAL_Driver/Src/stm32f4xx_hal_i2s_ex.c ****     hi2s->RxXferSize  = (Size << 1U);
 239:Drivers/STM32F4xx_HAL_Driver/Src/stm32f4xx_hal_i2s_ex.c ****     hi2s->RxXferCount = (Size << 1U);
 240:Drivers/STM32F4xx_HAL_Driver/Src/stm32f4xx_hal_i2s_ex.c ****   }
 241:Drivers/STM32F4xx_HAL_Driver/Src/stm32f4xx_hal_i2s_ex.c ****   else
 242:Drivers/STM32F4xx_HAL_Driver/Src/stm32f4xx_hal_i2s_ex.c ****   {
 243:Drivers/STM32F4xx_HAL_Driver/Src/stm32f4xx_hal_i2s_ex.c ****     hi2s->TxXferSize  = Size;
 244:Drivers/STM32F4xx_HAL_Driver/Src/stm32f4xx_hal_i2s_ex.c ****     hi2s->TxXferCount = Size;
 245:Drivers/STM32F4xx_HAL_Driver/Src/stm32f4xx_hal_i2s_ex.c ****     hi2s->RxXferSize  = Size;
 246:Drivers/STM32F4xx_HAL_Driver/Src/stm32f4xx_hal_i2s_ex.c ****     hi2s->RxXferCount = Size;
 247:Drivers/STM32F4xx_HAL_Driver/Src/stm32f4xx_hal_i2s_ex.c ****   }
 248:Drivers/STM32F4xx_HAL_Driver/Src/stm32f4xx_hal_i2s_ex.c **** 
 249:Drivers/STM32F4xx_HAL_Driver/Src/stm32f4xx_hal_i2s_ex.c ****   /* Set state and reset error code */
 250:Drivers/STM32F4xx_HAL_Driver/Src/stm32f4xx_hal_i2s_ex.c ****   hi2s->ErrorCode = HAL_I2S_ERROR_NONE;
 251:Drivers/STM32F4xx_HAL_Driver/Src/stm32f4xx_hal_i2s_ex.c ****   hi2s->State = HAL_I2S_STATE_BUSY_TX_RX;
 252:Drivers/STM32F4xx_HAL_Driver/Src/stm32f4xx_hal_i2s_ex.c **** 
 253:Drivers/STM32F4xx_HAL_Driver/Src/stm32f4xx_hal_i2s_ex.c ****   tmp1 = hi2s->Instance->I2SCFGR & SPI_I2SCFGR_I2SCFG;
 254:Drivers/STM32F4xx_HAL_Driver/Src/stm32f4xx_hal_i2s_ex.c ****   /* Check if the I2S_MODE_MASTER_TX or I2S_MODE_SLAVE_TX Mode is selected */
 255:Drivers/STM32F4xx_HAL_Driver/Src/stm32f4xx_hal_i2s_ex.c ****   if ((tmp1 == I2S_MODE_MASTER_TX) || (tmp1 == I2S_MODE_SLAVE_TX))
 256:Drivers/STM32F4xx_HAL_Driver/Src/stm32f4xx_hal_i2s_ex.c ****   {
 257:Drivers/STM32F4xx_HAL_Driver/Src/stm32f4xx_hal_i2s_ex.c ****     /* Prepare the First Data before enabling the I2S */
 258:Drivers/STM32F4xx_HAL_Driver/Src/stm32f4xx_hal_i2s_ex.c ****     hi2s->Instance->DR = (*pTxData++);
ARM GAS  /tmp/cc74GRYw.s 			page 6


 259:Drivers/STM32F4xx_HAL_Driver/Src/stm32f4xx_hal_i2s_ex.c ****     hi2s->TxXferCount--;
 260:Drivers/STM32F4xx_HAL_Driver/Src/stm32f4xx_hal_i2s_ex.c **** 
 261:Drivers/STM32F4xx_HAL_Driver/Src/stm32f4xx_hal_i2s_ex.c ****     /* Enable I2Sext(receiver) before enabling I2Sx peripheral */
 262:Drivers/STM32F4xx_HAL_Driver/Src/stm32f4xx_hal_i2s_ex.c ****     __HAL_I2SEXT_ENABLE(hi2s);
 263:Drivers/STM32F4xx_HAL_Driver/Src/stm32f4xx_hal_i2s_ex.c **** 
 264:Drivers/STM32F4xx_HAL_Driver/Src/stm32f4xx_hal_i2s_ex.c ****     /* Enable I2Sx peripheral */
 265:Drivers/STM32F4xx_HAL_Driver/Src/stm32f4xx_hal_i2s_ex.c ****     __HAL_I2S_ENABLE(hi2s);
 266:Drivers/STM32F4xx_HAL_Driver/Src/stm32f4xx_hal_i2s_ex.c **** 
 267:Drivers/STM32F4xx_HAL_Driver/Src/stm32f4xx_hal_i2s_ex.c ****     /* Check if Master Receiver mode is selected */
 268:Drivers/STM32F4xx_HAL_Driver/Src/stm32f4xx_hal_i2s_ex.c ****     if ((hi2s->Instance->I2SCFGR & SPI_I2SCFGR_I2SCFG) == I2S_MODE_MASTER_TX)
 269:Drivers/STM32F4xx_HAL_Driver/Src/stm32f4xx_hal_i2s_ex.c ****     {
 270:Drivers/STM32F4xx_HAL_Driver/Src/stm32f4xx_hal_i2s_ex.c ****       /* Clear the Overrun Flag by a read operation on the SPI_DR register followed by a read
 271:Drivers/STM32F4xx_HAL_Driver/Src/stm32f4xx_hal_i2s_ex.c ****       access to the SPI_SR register. */
 272:Drivers/STM32F4xx_HAL_Driver/Src/stm32f4xx_hal_i2s_ex.c ****       __HAL_I2SEXT_CLEAR_OVRFLAG(hi2s);
 273:Drivers/STM32F4xx_HAL_Driver/Src/stm32f4xx_hal_i2s_ex.c ****     }
 274:Drivers/STM32F4xx_HAL_Driver/Src/stm32f4xx_hal_i2s_ex.c **** 
 275:Drivers/STM32F4xx_HAL_Driver/Src/stm32f4xx_hal_i2s_ex.c ****     while ((hi2s->RxXferCount > 0U) || (hi2s->TxXferCount > 0U))
 276:Drivers/STM32F4xx_HAL_Driver/Src/stm32f4xx_hal_i2s_ex.c ****     {
 277:Drivers/STM32F4xx_HAL_Driver/Src/stm32f4xx_hal_i2s_ex.c ****       if (hi2s->TxXferCount > 0U)
 278:Drivers/STM32F4xx_HAL_Driver/Src/stm32f4xx_hal_i2s_ex.c ****       {
 279:Drivers/STM32F4xx_HAL_Driver/Src/stm32f4xx_hal_i2s_ex.c ****         /* Wait until TXE flag is set */
 280:Drivers/STM32F4xx_HAL_Driver/Src/stm32f4xx_hal_i2s_ex.c ****         if (I2SEx_FullDuplexWaitFlagStateUntilTimeout(hi2s, I2S_FLAG_TXE, SET, Timeout, I2S_USE_I2S
 281:Drivers/STM32F4xx_HAL_Driver/Src/stm32f4xx_hal_i2s_ex.c ****         {
 282:Drivers/STM32F4xx_HAL_Driver/Src/stm32f4xx_hal_i2s_ex.c ****           /* Set the error code */
 283:Drivers/STM32F4xx_HAL_Driver/Src/stm32f4xx_hal_i2s_ex.c ****           SET_BIT(hi2s->ErrorCode, HAL_I2S_ERROR_TIMEOUT);
 284:Drivers/STM32F4xx_HAL_Driver/Src/stm32f4xx_hal_i2s_ex.c ****           errorcode = HAL_ERROR;
 285:Drivers/STM32F4xx_HAL_Driver/Src/stm32f4xx_hal_i2s_ex.c ****           goto error;
 286:Drivers/STM32F4xx_HAL_Driver/Src/stm32f4xx_hal_i2s_ex.c ****         }
 287:Drivers/STM32F4xx_HAL_Driver/Src/stm32f4xx_hal_i2s_ex.c ****         /* Write Data on DR register */
 288:Drivers/STM32F4xx_HAL_Driver/Src/stm32f4xx_hal_i2s_ex.c ****         hi2s->Instance->DR = (*pTxData++);
 289:Drivers/STM32F4xx_HAL_Driver/Src/stm32f4xx_hal_i2s_ex.c ****         hi2s->TxXferCount--;
 290:Drivers/STM32F4xx_HAL_Driver/Src/stm32f4xx_hal_i2s_ex.c **** 
 291:Drivers/STM32F4xx_HAL_Driver/Src/stm32f4xx_hal_i2s_ex.c ****         /* Check if an underrun occurs */
 292:Drivers/STM32F4xx_HAL_Driver/Src/stm32f4xx_hal_i2s_ex.c ****         if ((__HAL_I2S_GET_FLAG(hi2s, I2S_FLAG_UDR) == SET) && (tmp1 == I2S_MODE_SLAVE_TX))
 293:Drivers/STM32F4xx_HAL_Driver/Src/stm32f4xx_hal_i2s_ex.c ****         {
 294:Drivers/STM32F4xx_HAL_Driver/Src/stm32f4xx_hal_i2s_ex.c ****           /* Clear Underrun flag */
 295:Drivers/STM32F4xx_HAL_Driver/Src/stm32f4xx_hal_i2s_ex.c ****           __HAL_I2S_CLEAR_UDRFLAG(hi2s);
 296:Drivers/STM32F4xx_HAL_Driver/Src/stm32f4xx_hal_i2s_ex.c **** 
 297:Drivers/STM32F4xx_HAL_Driver/Src/stm32f4xx_hal_i2s_ex.c ****           /* Set the error code */
 298:Drivers/STM32F4xx_HAL_Driver/Src/stm32f4xx_hal_i2s_ex.c ****           SET_BIT(hi2s->ErrorCode, HAL_I2S_ERROR_UDR);
 299:Drivers/STM32F4xx_HAL_Driver/Src/stm32f4xx_hal_i2s_ex.c ****         }
 300:Drivers/STM32F4xx_HAL_Driver/Src/stm32f4xx_hal_i2s_ex.c ****       }
 301:Drivers/STM32F4xx_HAL_Driver/Src/stm32f4xx_hal_i2s_ex.c ****       if (hi2s->RxXferCount > 0U)
 302:Drivers/STM32F4xx_HAL_Driver/Src/stm32f4xx_hal_i2s_ex.c ****       {
 303:Drivers/STM32F4xx_HAL_Driver/Src/stm32f4xx_hal_i2s_ex.c ****         /* Wait until RXNE flag is set */
 304:Drivers/STM32F4xx_HAL_Driver/Src/stm32f4xx_hal_i2s_ex.c ****         if (I2SEx_FullDuplexWaitFlagStateUntilTimeout(hi2s, I2S_FLAG_RXNE, SET, Timeout, I2S_USE_I2
 305:Drivers/STM32F4xx_HAL_Driver/Src/stm32f4xx_hal_i2s_ex.c ****         {
 306:Drivers/STM32F4xx_HAL_Driver/Src/stm32f4xx_hal_i2s_ex.c ****           /* Set the error code */
 307:Drivers/STM32F4xx_HAL_Driver/Src/stm32f4xx_hal_i2s_ex.c ****           SET_BIT(hi2s->ErrorCode, HAL_I2S_ERROR_TIMEOUT);
 308:Drivers/STM32F4xx_HAL_Driver/Src/stm32f4xx_hal_i2s_ex.c ****           errorcode = HAL_ERROR;
 309:Drivers/STM32F4xx_HAL_Driver/Src/stm32f4xx_hal_i2s_ex.c ****           goto error;
 310:Drivers/STM32F4xx_HAL_Driver/Src/stm32f4xx_hal_i2s_ex.c ****         }
 311:Drivers/STM32F4xx_HAL_Driver/Src/stm32f4xx_hal_i2s_ex.c ****         /* Read Data from DR register */
 312:Drivers/STM32F4xx_HAL_Driver/Src/stm32f4xx_hal_i2s_ex.c ****         (*pRxData++) = I2SxEXT(hi2s->Instance)->DR;
 313:Drivers/STM32F4xx_HAL_Driver/Src/stm32f4xx_hal_i2s_ex.c ****         hi2s->RxXferCount--;
 314:Drivers/STM32F4xx_HAL_Driver/Src/stm32f4xx_hal_i2s_ex.c **** 
 315:Drivers/STM32F4xx_HAL_Driver/Src/stm32f4xx_hal_i2s_ex.c ****         /* Check if an overrun occurs */
ARM GAS  /tmp/cc74GRYw.s 			page 7


 316:Drivers/STM32F4xx_HAL_Driver/Src/stm32f4xx_hal_i2s_ex.c ****         if (__HAL_I2SEXT_GET_FLAG(hi2s, I2S_FLAG_OVR) == SET)
 317:Drivers/STM32F4xx_HAL_Driver/Src/stm32f4xx_hal_i2s_ex.c ****         {
 318:Drivers/STM32F4xx_HAL_Driver/Src/stm32f4xx_hal_i2s_ex.c ****           /* Clear Overrun flag */
 319:Drivers/STM32F4xx_HAL_Driver/Src/stm32f4xx_hal_i2s_ex.c ****           __HAL_I2S_CLEAR_OVRFLAG(hi2s);
 320:Drivers/STM32F4xx_HAL_Driver/Src/stm32f4xx_hal_i2s_ex.c **** 
 321:Drivers/STM32F4xx_HAL_Driver/Src/stm32f4xx_hal_i2s_ex.c ****           /* Set the error code */
 322:Drivers/STM32F4xx_HAL_Driver/Src/stm32f4xx_hal_i2s_ex.c ****           SET_BIT(hi2s->ErrorCode, HAL_I2S_ERROR_OVR);
 323:Drivers/STM32F4xx_HAL_Driver/Src/stm32f4xx_hal_i2s_ex.c ****         }
 324:Drivers/STM32F4xx_HAL_Driver/Src/stm32f4xx_hal_i2s_ex.c ****       }
 325:Drivers/STM32F4xx_HAL_Driver/Src/stm32f4xx_hal_i2s_ex.c ****     }
 326:Drivers/STM32F4xx_HAL_Driver/Src/stm32f4xx_hal_i2s_ex.c ****   }
 327:Drivers/STM32F4xx_HAL_Driver/Src/stm32f4xx_hal_i2s_ex.c ****   /* The I2S_MODE_MASTER_RX or I2S_MODE_SLAVE_RX Mode is selected */
 328:Drivers/STM32F4xx_HAL_Driver/Src/stm32f4xx_hal_i2s_ex.c ****   else
 329:Drivers/STM32F4xx_HAL_Driver/Src/stm32f4xx_hal_i2s_ex.c ****   {
 330:Drivers/STM32F4xx_HAL_Driver/Src/stm32f4xx_hal_i2s_ex.c ****     /* Prepare the First Data before enabling the I2S */
 331:Drivers/STM32F4xx_HAL_Driver/Src/stm32f4xx_hal_i2s_ex.c ****     I2SxEXT(hi2s->Instance)->DR = (*pTxData++);
 332:Drivers/STM32F4xx_HAL_Driver/Src/stm32f4xx_hal_i2s_ex.c ****     hi2s->TxXferCount--;
 333:Drivers/STM32F4xx_HAL_Driver/Src/stm32f4xx_hal_i2s_ex.c **** 
 334:Drivers/STM32F4xx_HAL_Driver/Src/stm32f4xx_hal_i2s_ex.c ****     /* Enable I2Sext(transmitter) after enabling I2Sx peripheral */
 335:Drivers/STM32F4xx_HAL_Driver/Src/stm32f4xx_hal_i2s_ex.c ****     __HAL_I2SEXT_ENABLE(hi2s);
 336:Drivers/STM32F4xx_HAL_Driver/Src/stm32f4xx_hal_i2s_ex.c **** 
 337:Drivers/STM32F4xx_HAL_Driver/Src/stm32f4xx_hal_i2s_ex.c ****     /* Enable I2S peripheral before the I2Sext*/
 338:Drivers/STM32F4xx_HAL_Driver/Src/stm32f4xx_hal_i2s_ex.c ****     __HAL_I2S_ENABLE(hi2s);
 339:Drivers/STM32F4xx_HAL_Driver/Src/stm32f4xx_hal_i2s_ex.c **** 
 340:Drivers/STM32F4xx_HAL_Driver/Src/stm32f4xx_hal_i2s_ex.c ****     /* Check if Master Receiver mode is selected */
 341:Drivers/STM32F4xx_HAL_Driver/Src/stm32f4xx_hal_i2s_ex.c ****     if ((hi2s->Instance->I2SCFGR & SPI_I2SCFGR_I2SCFG) == I2S_MODE_MASTER_RX)
 342:Drivers/STM32F4xx_HAL_Driver/Src/stm32f4xx_hal_i2s_ex.c ****     {
 343:Drivers/STM32F4xx_HAL_Driver/Src/stm32f4xx_hal_i2s_ex.c ****       /* Clear the Overrun Flag by a read operation on the SPI_DR register followed by a read
 344:Drivers/STM32F4xx_HAL_Driver/Src/stm32f4xx_hal_i2s_ex.c ****       access to the SPI_SR register. */
 345:Drivers/STM32F4xx_HAL_Driver/Src/stm32f4xx_hal_i2s_ex.c ****       __HAL_I2S_CLEAR_OVRFLAG(hi2s);
 346:Drivers/STM32F4xx_HAL_Driver/Src/stm32f4xx_hal_i2s_ex.c ****     }
 347:Drivers/STM32F4xx_HAL_Driver/Src/stm32f4xx_hal_i2s_ex.c **** 
 348:Drivers/STM32F4xx_HAL_Driver/Src/stm32f4xx_hal_i2s_ex.c ****     while ((hi2s->RxXferCount > 0U) || (hi2s->TxXferCount > 0U))
 349:Drivers/STM32F4xx_HAL_Driver/Src/stm32f4xx_hal_i2s_ex.c ****     {
 350:Drivers/STM32F4xx_HAL_Driver/Src/stm32f4xx_hal_i2s_ex.c ****       if (hi2s->TxXferCount > 0U)
 351:Drivers/STM32F4xx_HAL_Driver/Src/stm32f4xx_hal_i2s_ex.c ****       {
 352:Drivers/STM32F4xx_HAL_Driver/Src/stm32f4xx_hal_i2s_ex.c ****         /* Wait until TXE flag is set */
 353:Drivers/STM32F4xx_HAL_Driver/Src/stm32f4xx_hal_i2s_ex.c ****         if (I2SEx_FullDuplexWaitFlagStateUntilTimeout(hi2s, I2S_FLAG_TXE, SET, Timeout, I2S_USE_I2S
 354:Drivers/STM32F4xx_HAL_Driver/Src/stm32f4xx_hal_i2s_ex.c ****         {
 355:Drivers/STM32F4xx_HAL_Driver/Src/stm32f4xx_hal_i2s_ex.c ****           /* Set the error code */
 356:Drivers/STM32F4xx_HAL_Driver/Src/stm32f4xx_hal_i2s_ex.c ****           SET_BIT(hi2s->ErrorCode, HAL_I2S_ERROR_TIMEOUT);
 357:Drivers/STM32F4xx_HAL_Driver/Src/stm32f4xx_hal_i2s_ex.c ****           errorcode = HAL_ERROR;
 358:Drivers/STM32F4xx_HAL_Driver/Src/stm32f4xx_hal_i2s_ex.c ****           goto error;
 359:Drivers/STM32F4xx_HAL_Driver/Src/stm32f4xx_hal_i2s_ex.c ****         }
 360:Drivers/STM32F4xx_HAL_Driver/Src/stm32f4xx_hal_i2s_ex.c ****         /* Write Data on DR register */
 361:Drivers/STM32F4xx_HAL_Driver/Src/stm32f4xx_hal_i2s_ex.c ****         I2SxEXT(hi2s->Instance)->DR = (*pTxData++);
 362:Drivers/STM32F4xx_HAL_Driver/Src/stm32f4xx_hal_i2s_ex.c ****         hi2s->TxXferCount--;
 363:Drivers/STM32F4xx_HAL_Driver/Src/stm32f4xx_hal_i2s_ex.c **** 
 364:Drivers/STM32F4xx_HAL_Driver/Src/stm32f4xx_hal_i2s_ex.c ****         /* Check if an underrun occurs */
 365:Drivers/STM32F4xx_HAL_Driver/Src/stm32f4xx_hal_i2s_ex.c ****         if ((__HAL_I2SEXT_GET_FLAG(hi2s, I2S_FLAG_UDR) == SET) && (tmp1 == I2S_MODE_SLAVE_RX))
 366:Drivers/STM32F4xx_HAL_Driver/Src/stm32f4xx_hal_i2s_ex.c ****         {
 367:Drivers/STM32F4xx_HAL_Driver/Src/stm32f4xx_hal_i2s_ex.c ****           /* Clear Underrun flag */
 368:Drivers/STM32F4xx_HAL_Driver/Src/stm32f4xx_hal_i2s_ex.c ****           __HAL_I2S_CLEAR_UDRFLAG(hi2s);
 369:Drivers/STM32F4xx_HAL_Driver/Src/stm32f4xx_hal_i2s_ex.c **** 
 370:Drivers/STM32F4xx_HAL_Driver/Src/stm32f4xx_hal_i2s_ex.c ****           /* Set the error code */
 371:Drivers/STM32F4xx_HAL_Driver/Src/stm32f4xx_hal_i2s_ex.c ****           SET_BIT(hi2s->ErrorCode, HAL_I2S_ERROR_UDR);
 372:Drivers/STM32F4xx_HAL_Driver/Src/stm32f4xx_hal_i2s_ex.c ****         }
ARM GAS  /tmp/cc74GRYw.s 			page 8


 373:Drivers/STM32F4xx_HAL_Driver/Src/stm32f4xx_hal_i2s_ex.c ****       }
 374:Drivers/STM32F4xx_HAL_Driver/Src/stm32f4xx_hal_i2s_ex.c ****       if (hi2s->RxXferCount > 0U)
 375:Drivers/STM32F4xx_HAL_Driver/Src/stm32f4xx_hal_i2s_ex.c ****       {
 376:Drivers/STM32F4xx_HAL_Driver/Src/stm32f4xx_hal_i2s_ex.c ****         /* Wait until RXNE flag is set */
 377:Drivers/STM32F4xx_HAL_Driver/Src/stm32f4xx_hal_i2s_ex.c ****         if (I2SEx_FullDuplexWaitFlagStateUntilTimeout(hi2s, I2S_FLAG_RXNE, SET, Timeout, I2S_USE_I2
 378:Drivers/STM32F4xx_HAL_Driver/Src/stm32f4xx_hal_i2s_ex.c ****         {
 379:Drivers/STM32F4xx_HAL_Driver/Src/stm32f4xx_hal_i2s_ex.c ****           /* Set the error code */
 380:Drivers/STM32F4xx_HAL_Driver/Src/stm32f4xx_hal_i2s_ex.c ****           SET_BIT(hi2s->ErrorCode, HAL_I2S_ERROR_TIMEOUT);
 381:Drivers/STM32F4xx_HAL_Driver/Src/stm32f4xx_hal_i2s_ex.c ****           errorcode = HAL_ERROR;
 382:Drivers/STM32F4xx_HAL_Driver/Src/stm32f4xx_hal_i2s_ex.c ****           goto error;
 383:Drivers/STM32F4xx_HAL_Driver/Src/stm32f4xx_hal_i2s_ex.c ****         }
 384:Drivers/STM32F4xx_HAL_Driver/Src/stm32f4xx_hal_i2s_ex.c ****         /* Read Data from DR register */
 385:Drivers/STM32F4xx_HAL_Driver/Src/stm32f4xx_hal_i2s_ex.c ****         (*pRxData++) = hi2s->Instance->DR;
 386:Drivers/STM32F4xx_HAL_Driver/Src/stm32f4xx_hal_i2s_ex.c ****         hi2s->RxXferCount--;
 387:Drivers/STM32F4xx_HAL_Driver/Src/stm32f4xx_hal_i2s_ex.c **** 
 388:Drivers/STM32F4xx_HAL_Driver/Src/stm32f4xx_hal_i2s_ex.c ****         /* Check if an overrun occurs */
 389:Drivers/STM32F4xx_HAL_Driver/Src/stm32f4xx_hal_i2s_ex.c ****         if (__HAL_I2S_GET_FLAG(hi2s, I2S_FLAG_OVR) == SET)
 390:Drivers/STM32F4xx_HAL_Driver/Src/stm32f4xx_hal_i2s_ex.c ****         {
 391:Drivers/STM32F4xx_HAL_Driver/Src/stm32f4xx_hal_i2s_ex.c ****           /* Clear Overrun flag */
 392:Drivers/STM32F4xx_HAL_Driver/Src/stm32f4xx_hal_i2s_ex.c ****           __HAL_I2S_CLEAR_OVRFLAG(hi2s);
 393:Drivers/STM32F4xx_HAL_Driver/Src/stm32f4xx_hal_i2s_ex.c **** 
 394:Drivers/STM32F4xx_HAL_Driver/Src/stm32f4xx_hal_i2s_ex.c ****           /* Set the error code */
 395:Drivers/STM32F4xx_HAL_Driver/Src/stm32f4xx_hal_i2s_ex.c ****           SET_BIT(hi2s->ErrorCode, HAL_I2S_ERROR_OVR);
 396:Drivers/STM32F4xx_HAL_Driver/Src/stm32f4xx_hal_i2s_ex.c ****         }
 397:Drivers/STM32F4xx_HAL_Driver/Src/stm32f4xx_hal_i2s_ex.c ****       }
 398:Drivers/STM32F4xx_HAL_Driver/Src/stm32f4xx_hal_i2s_ex.c ****     }
 399:Drivers/STM32F4xx_HAL_Driver/Src/stm32f4xx_hal_i2s_ex.c ****   }
 400:Drivers/STM32F4xx_HAL_Driver/Src/stm32f4xx_hal_i2s_ex.c **** 
 401:Drivers/STM32F4xx_HAL_Driver/Src/stm32f4xx_hal_i2s_ex.c ****   if (hi2s->ErrorCode != HAL_I2S_ERROR_NONE)
 402:Drivers/STM32F4xx_HAL_Driver/Src/stm32f4xx_hal_i2s_ex.c ****   {
 403:Drivers/STM32F4xx_HAL_Driver/Src/stm32f4xx_hal_i2s_ex.c ****     errorcode = HAL_ERROR;
 404:Drivers/STM32F4xx_HAL_Driver/Src/stm32f4xx_hal_i2s_ex.c ****   }
 405:Drivers/STM32F4xx_HAL_Driver/Src/stm32f4xx_hal_i2s_ex.c **** 
 406:Drivers/STM32F4xx_HAL_Driver/Src/stm32f4xx_hal_i2s_ex.c **** error :
 407:Drivers/STM32F4xx_HAL_Driver/Src/stm32f4xx_hal_i2s_ex.c ****   hi2s->State = HAL_I2S_STATE_READY;
 408:Drivers/STM32F4xx_HAL_Driver/Src/stm32f4xx_hal_i2s_ex.c ****   __HAL_UNLOCK(hi2s);
 409:Drivers/STM32F4xx_HAL_Driver/Src/stm32f4xx_hal_i2s_ex.c ****   return errorcode;
 410:Drivers/STM32F4xx_HAL_Driver/Src/stm32f4xx_hal_i2s_ex.c **** }
 411:Drivers/STM32F4xx_HAL_Driver/Src/stm32f4xx_hal_i2s_ex.c **** 
 412:Drivers/STM32F4xx_HAL_Driver/Src/stm32f4xx_hal_i2s_ex.c **** /**
 413:Drivers/STM32F4xx_HAL_Driver/Src/stm32f4xx_hal_i2s_ex.c ****   * @brief  Full-Duplex Transmit/Receive data in non-blocking mode using Interrupt
 414:Drivers/STM32F4xx_HAL_Driver/Src/stm32f4xx_hal_i2s_ex.c ****   * @param  hi2s pointer to a I2S_HandleTypeDef structure that contains
 415:Drivers/STM32F4xx_HAL_Driver/Src/stm32f4xx_hal_i2s_ex.c ****   *         the configuration information for I2S module
 416:Drivers/STM32F4xx_HAL_Driver/Src/stm32f4xx_hal_i2s_ex.c ****   * @param  pTxData a 16-bit pointer to the Transmit data buffer.
 417:Drivers/STM32F4xx_HAL_Driver/Src/stm32f4xx_hal_i2s_ex.c ****   * @param  pRxData a 16-bit pointer to the Receive data buffer.
 418:Drivers/STM32F4xx_HAL_Driver/Src/stm32f4xx_hal_i2s_ex.c ****   * @param  Size number of data sample to be sent:
 419:Drivers/STM32F4xx_HAL_Driver/Src/stm32f4xx_hal_i2s_ex.c ****   * @note   When a 16-bit data frame or a 16-bit data frame extended is selected during the I2S
 420:Drivers/STM32F4xx_HAL_Driver/Src/stm32f4xx_hal_i2s_ex.c ****   *         configuration phase, the Size parameter means the number of 16-bit data length
 421:Drivers/STM32F4xx_HAL_Driver/Src/stm32f4xx_hal_i2s_ex.c ****   *         in the transaction and when a 24-bit data frame or a 32-bit data frame is selected
 422:Drivers/STM32F4xx_HAL_Driver/Src/stm32f4xx_hal_i2s_ex.c ****   *         the Size parameter means the number of 16-bit data length.
 423:Drivers/STM32F4xx_HAL_Driver/Src/stm32f4xx_hal_i2s_ex.c ****   * @note   The I2S is kept enabled at the end of transaction to avoid the clock de-synchronization
 424:Drivers/STM32F4xx_HAL_Driver/Src/stm32f4xx_hal_i2s_ex.c ****   *         between Master and Slave(example: audio streaming).
 425:Drivers/STM32F4xx_HAL_Driver/Src/stm32f4xx_hal_i2s_ex.c ****   * @retval HAL status
 426:Drivers/STM32F4xx_HAL_Driver/Src/stm32f4xx_hal_i2s_ex.c ****   */
 427:Drivers/STM32F4xx_HAL_Driver/Src/stm32f4xx_hal_i2s_ex.c **** HAL_StatusTypeDef HAL_I2SEx_TransmitReceive_IT(I2S_HandleTypeDef *hi2s,
 428:Drivers/STM32F4xx_HAL_Driver/Src/stm32f4xx_hal_i2s_ex.c ****                                                uint16_t *pTxData,
 429:Drivers/STM32F4xx_HAL_Driver/Src/stm32f4xx_hal_i2s_ex.c ****                                                uint16_t *pRxData,
ARM GAS  /tmp/cc74GRYw.s 			page 9


 430:Drivers/STM32F4xx_HAL_Driver/Src/stm32f4xx_hal_i2s_ex.c ****                                                uint16_t Size)
 431:Drivers/STM32F4xx_HAL_Driver/Src/stm32f4xx_hal_i2s_ex.c **** {
 432:Drivers/STM32F4xx_HAL_Driver/Src/stm32f4xx_hal_i2s_ex.c ****   uint32_t tmp1 = 0U;
 433:Drivers/STM32F4xx_HAL_Driver/Src/stm32f4xx_hal_i2s_ex.c ****   HAL_StatusTypeDef errorcode = HAL_OK;
 434:Drivers/STM32F4xx_HAL_Driver/Src/stm32f4xx_hal_i2s_ex.c **** 
 435:Drivers/STM32F4xx_HAL_Driver/Src/stm32f4xx_hal_i2s_ex.c ****   if (hi2s->State != HAL_I2S_STATE_READY)
 436:Drivers/STM32F4xx_HAL_Driver/Src/stm32f4xx_hal_i2s_ex.c ****   {
 437:Drivers/STM32F4xx_HAL_Driver/Src/stm32f4xx_hal_i2s_ex.c ****     errorcode = HAL_BUSY;
 438:Drivers/STM32F4xx_HAL_Driver/Src/stm32f4xx_hal_i2s_ex.c ****     goto error;
 439:Drivers/STM32F4xx_HAL_Driver/Src/stm32f4xx_hal_i2s_ex.c ****   }
 440:Drivers/STM32F4xx_HAL_Driver/Src/stm32f4xx_hal_i2s_ex.c **** 
 441:Drivers/STM32F4xx_HAL_Driver/Src/stm32f4xx_hal_i2s_ex.c ****   if ((pTxData == NULL) || (pRxData == NULL) || (Size == 0U))
 442:Drivers/STM32F4xx_HAL_Driver/Src/stm32f4xx_hal_i2s_ex.c ****   {
 443:Drivers/STM32F4xx_HAL_Driver/Src/stm32f4xx_hal_i2s_ex.c ****     return  HAL_ERROR;
 444:Drivers/STM32F4xx_HAL_Driver/Src/stm32f4xx_hal_i2s_ex.c ****   }
 445:Drivers/STM32F4xx_HAL_Driver/Src/stm32f4xx_hal_i2s_ex.c **** 
 446:Drivers/STM32F4xx_HAL_Driver/Src/stm32f4xx_hal_i2s_ex.c ****   /* Process Locked */
 447:Drivers/STM32F4xx_HAL_Driver/Src/stm32f4xx_hal_i2s_ex.c ****   __HAL_LOCK(hi2s);
 448:Drivers/STM32F4xx_HAL_Driver/Src/stm32f4xx_hal_i2s_ex.c **** 
 449:Drivers/STM32F4xx_HAL_Driver/Src/stm32f4xx_hal_i2s_ex.c ****   hi2s->pTxBuffPtr = pTxData;
 450:Drivers/STM32F4xx_HAL_Driver/Src/stm32f4xx_hal_i2s_ex.c ****   hi2s->pRxBuffPtr = pRxData;
 451:Drivers/STM32F4xx_HAL_Driver/Src/stm32f4xx_hal_i2s_ex.c **** 
 452:Drivers/STM32F4xx_HAL_Driver/Src/stm32f4xx_hal_i2s_ex.c ****   tmp1 = hi2s->Instance->I2SCFGR & (SPI_I2SCFGR_DATLEN | SPI_I2SCFGR_CHLEN);
 453:Drivers/STM32F4xx_HAL_Driver/Src/stm32f4xx_hal_i2s_ex.c ****   /* Check the Data format: When a 16-bit data frame or a 16-bit data frame extended
 454:Drivers/STM32F4xx_HAL_Driver/Src/stm32f4xx_hal_i2s_ex.c ****   is selected during the I2S configuration phase, the Size parameter means the number
 455:Drivers/STM32F4xx_HAL_Driver/Src/stm32f4xx_hal_i2s_ex.c ****   of 16-bit data length in the transaction and when a 24-bit data frame or a 32-bit data
 456:Drivers/STM32F4xx_HAL_Driver/Src/stm32f4xx_hal_i2s_ex.c ****   frame is selected the Size parameter means the number of 16-bit data length. */
 457:Drivers/STM32F4xx_HAL_Driver/Src/stm32f4xx_hal_i2s_ex.c ****   if ((tmp1 == I2S_DATAFORMAT_24B) || (tmp1 == I2S_DATAFORMAT_32B))
 458:Drivers/STM32F4xx_HAL_Driver/Src/stm32f4xx_hal_i2s_ex.c ****   {
 459:Drivers/STM32F4xx_HAL_Driver/Src/stm32f4xx_hal_i2s_ex.c ****     hi2s->TxXferSize  = (Size << 1U);
 460:Drivers/STM32F4xx_HAL_Driver/Src/stm32f4xx_hal_i2s_ex.c ****     hi2s->TxXferCount = (Size << 1U);
 461:Drivers/STM32F4xx_HAL_Driver/Src/stm32f4xx_hal_i2s_ex.c ****     hi2s->RxXferSize  = (Size << 1U);
 462:Drivers/STM32F4xx_HAL_Driver/Src/stm32f4xx_hal_i2s_ex.c ****     hi2s->RxXferCount = (Size << 1U);
 463:Drivers/STM32F4xx_HAL_Driver/Src/stm32f4xx_hal_i2s_ex.c ****   }
 464:Drivers/STM32F4xx_HAL_Driver/Src/stm32f4xx_hal_i2s_ex.c ****   else
 465:Drivers/STM32F4xx_HAL_Driver/Src/stm32f4xx_hal_i2s_ex.c ****   {
 466:Drivers/STM32F4xx_HAL_Driver/Src/stm32f4xx_hal_i2s_ex.c ****     hi2s->TxXferSize  = Size;
 467:Drivers/STM32F4xx_HAL_Driver/Src/stm32f4xx_hal_i2s_ex.c ****     hi2s->TxXferCount = Size;
 468:Drivers/STM32F4xx_HAL_Driver/Src/stm32f4xx_hal_i2s_ex.c ****     hi2s->RxXferSize  = Size;
 469:Drivers/STM32F4xx_HAL_Driver/Src/stm32f4xx_hal_i2s_ex.c ****     hi2s->RxXferCount = Size;
 470:Drivers/STM32F4xx_HAL_Driver/Src/stm32f4xx_hal_i2s_ex.c ****   }
 471:Drivers/STM32F4xx_HAL_Driver/Src/stm32f4xx_hal_i2s_ex.c **** 
 472:Drivers/STM32F4xx_HAL_Driver/Src/stm32f4xx_hal_i2s_ex.c ****   hi2s->ErrorCode = HAL_I2S_ERROR_NONE;
 473:Drivers/STM32F4xx_HAL_Driver/Src/stm32f4xx_hal_i2s_ex.c ****   hi2s->State     = HAL_I2S_STATE_BUSY_TX_RX;
 474:Drivers/STM32F4xx_HAL_Driver/Src/stm32f4xx_hal_i2s_ex.c **** 
 475:Drivers/STM32F4xx_HAL_Driver/Src/stm32f4xx_hal_i2s_ex.c ****   /* Set the function for IT treatment */
 476:Drivers/STM32F4xx_HAL_Driver/Src/stm32f4xx_hal_i2s_ex.c ****   if ((hi2s->Init.Mode == I2S_MODE_MASTER_TX) || (hi2s->Init.Mode == I2S_MODE_SLAVE_TX))
 477:Drivers/STM32F4xx_HAL_Driver/Src/stm32f4xx_hal_i2s_ex.c ****   {
 478:Drivers/STM32F4xx_HAL_Driver/Src/stm32f4xx_hal_i2s_ex.c ****     /* Enable I2Sext RXNE and ERR interrupts */
 479:Drivers/STM32F4xx_HAL_Driver/Src/stm32f4xx_hal_i2s_ex.c ****     __HAL_I2SEXT_ENABLE_IT(hi2s, (I2S_IT_RXNE | I2S_IT_ERR));
 480:Drivers/STM32F4xx_HAL_Driver/Src/stm32f4xx_hal_i2s_ex.c **** 
 481:Drivers/STM32F4xx_HAL_Driver/Src/stm32f4xx_hal_i2s_ex.c ****     /* Enable I2Sx TXE and ERR interrupts */
 482:Drivers/STM32F4xx_HAL_Driver/Src/stm32f4xx_hal_i2s_ex.c ****     __HAL_I2S_ENABLE_IT(hi2s, (I2S_IT_TXE | I2S_IT_ERR));
 483:Drivers/STM32F4xx_HAL_Driver/Src/stm32f4xx_hal_i2s_ex.c **** 
 484:Drivers/STM32F4xx_HAL_Driver/Src/stm32f4xx_hal_i2s_ex.c ****     /* Transmit First data */
 485:Drivers/STM32F4xx_HAL_Driver/Src/stm32f4xx_hal_i2s_ex.c ****     hi2s->Instance->DR = (*hi2s->pTxBuffPtr++);
 486:Drivers/STM32F4xx_HAL_Driver/Src/stm32f4xx_hal_i2s_ex.c ****     hi2s->TxXferCount--;
ARM GAS  /tmp/cc74GRYw.s 			page 10


 487:Drivers/STM32F4xx_HAL_Driver/Src/stm32f4xx_hal_i2s_ex.c **** 
 488:Drivers/STM32F4xx_HAL_Driver/Src/stm32f4xx_hal_i2s_ex.c ****     if (hi2s->TxXferCount == 0U)
 489:Drivers/STM32F4xx_HAL_Driver/Src/stm32f4xx_hal_i2s_ex.c ****     {
 490:Drivers/STM32F4xx_HAL_Driver/Src/stm32f4xx_hal_i2s_ex.c ****       /* Disable TXE and ERR interrupt */
 491:Drivers/STM32F4xx_HAL_Driver/Src/stm32f4xx_hal_i2s_ex.c ****       __HAL_I2S_DISABLE_IT(hi2s, (I2S_IT_TXE | I2S_IT_ERR));
 492:Drivers/STM32F4xx_HAL_Driver/Src/stm32f4xx_hal_i2s_ex.c ****     }
 493:Drivers/STM32F4xx_HAL_Driver/Src/stm32f4xx_hal_i2s_ex.c ****   }
 494:Drivers/STM32F4xx_HAL_Driver/Src/stm32f4xx_hal_i2s_ex.c ****   else  /* The I2S_MODE_MASTER_RX or I2S_MODE_SLAVE_RX Mode is selected */
 495:Drivers/STM32F4xx_HAL_Driver/Src/stm32f4xx_hal_i2s_ex.c ****   {
 496:Drivers/STM32F4xx_HAL_Driver/Src/stm32f4xx_hal_i2s_ex.c ****     /* Enable I2Sext TXE and ERR interrupts */
 497:Drivers/STM32F4xx_HAL_Driver/Src/stm32f4xx_hal_i2s_ex.c ****     __HAL_I2SEXT_ENABLE_IT(hi2s, (I2S_IT_TXE | I2S_IT_ERR));
 498:Drivers/STM32F4xx_HAL_Driver/Src/stm32f4xx_hal_i2s_ex.c **** 
 499:Drivers/STM32F4xx_HAL_Driver/Src/stm32f4xx_hal_i2s_ex.c ****     /* Enable I2Sext RXNE and ERR interrupts */
 500:Drivers/STM32F4xx_HAL_Driver/Src/stm32f4xx_hal_i2s_ex.c ****     __HAL_I2S_ENABLE_IT(hi2s, (I2S_IT_RXNE | I2S_IT_ERR));
 501:Drivers/STM32F4xx_HAL_Driver/Src/stm32f4xx_hal_i2s_ex.c **** 
 502:Drivers/STM32F4xx_HAL_Driver/Src/stm32f4xx_hal_i2s_ex.c ****     /* Transmit First data */
 503:Drivers/STM32F4xx_HAL_Driver/Src/stm32f4xx_hal_i2s_ex.c ****     I2SxEXT(hi2s->Instance)->DR = (*hi2s->pTxBuffPtr++);
 504:Drivers/STM32F4xx_HAL_Driver/Src/stm32f4xx_hal_i2s_ex.c ****     hi2s->TxXferCount--;
 505:Drivers/STM32F4xx_HAL_Driver/Src/stm32f4xx_hal_i2s_ex.c **** 
 506:Drivers/STM32F4xx_HAL_Driver/Src/stm32f4xx_hal_i2s_ex.c ****     if (hi2s->TxXferCount == 0U)
 507:Drivers/STM32F4xx_HAL_Driver/Src/stm32f4xx_hal_i2s_ex.c ****     {
 508:Drivers/STM32F4xx_HAL_Driver/Src/stm32f4xx_hal_i2s_ex.c ****       /* Disable I2Sext TXE and ERR interrupt */
 509:Drivers/STM32F4xx_HAL_Driver/Src/stm32f4xx_hal_i2s_ex.c ****       __HAL_I2SEXT_DISABLE_IT(hi2s, (I2S_IT_TXE | I2S_IT_ERR));
 510:Drivers/STM32F4xx_HAL_Driver/Src/stm32f4xx_hal_i2s_ex.c ****     }
 511:Drivers/STM32F4xx_HAL_Driver/Src/stm32f4xx_hal_i2s_ex.c ****   }
 512:Drivers/STM32F4xx_HAL_Driver/Src/stm32f4xx_hal_i2s_ex.c **** 
 513:Drivers/STM32F4xx_HAL_Driver/Src/stm32f4xx_hal_i2s_ex.c ****   /* Enable I2Sext peripheral */
 514:Drivers/STM32F4xx_HAL_Driver/Src/stm32f4xx_hal_i2s_ex.c ****   __HAL_I2SEXT_ENABLE(hi2s);
 515:Drivers/STM32F4xx_HAL_Driver/Src/stm32f4xx_hal_i2s_ex.c **** 
 516:Drivers/STM32F4xx_HAL_Driver/Src/stm32f4xx_hal_i2s_ex.c ****   /* Enable I2S peripheral */
 517:Drivers/STM32F4xx_HAL_Driver/Src/stm32f4xx_hal_i2s_ex.c ****   __HAL_I2S_ENABLE(hi2s);
 518:Drivers/STM32F4xx_HAL_Driver/Src/stm32f4xx_hal_i2s_ex.c **** 
 519:Drivers/STM32F4xx_HAL_Driver/Src/stm32f4xx_hal_i2s_ex.c **** error :
 520:Drivers/STM32F4xx_HAL_Driver/Src/stm32f4xx_hal_i2s_ex.c ****   __HAL_UNLOCK(hi2s);
 521:Drivers/STM32F4xx_HAL_Driver/Src/stm32f4xx_hal_i2s_ex.c ****   return errorcode;
 522:Drivers/STM32F4xx_HAL_Driver/Src/stm32f4xx_hal_i2s_ex.c **** }
 523:Drivers/STM32F4xx_HAL_Driver/Src/stm32f4xx_hal_i2s_ex.c **** 
 524:Drivers/STM32F4xx_HAL_Driver/Src/stm32f4xx_hal_i2s_ex.c **** /**
 525:Drivers/STM32F4xx_HAL_Driver/Src/stm32f4xx_hal_i2s_ex.c ****   * @brief  Full-Duplex Transmit/Receive data in non-blocking mode using DMA
 526:Drivers/STM32F4xx_HAL_Driver/Src/stm32f4xx_hal_i2s_ex.c ****   * @param  hi2s pointer to a I2S_HandleTypeDef structure that contains
 527:Drivers/STM32F4xx_HAL_Driver/Src/stm32f4xx_hal_i2s_ex.c ****   *         the configuration information for I2S module
 528:Drivers/STM32F4xx_HAL_Driver/Src/stm32f4xx_hal_i2s_ex.c ****   * @param  pTxData a 16-bit pointer to the Transmit data buffer.
 529:Drivers/STM32F4xx_HAL_Driver/Src/stm32f4xx_hal_i2s_ex.c ****   * @param  pRxData a 16-bit pointer to the Receive data buffer.
 530:Drivers/STM32F4xx_HAL_Driver/Src/stm32f4xx_hal_i2s_ex.c ****   * @param  Size number of data sample to be sent:
 531:Drivers/STM32F4xx_HAL_Driver/Src/stm32f4xx_hal_i2s_ex.c ****   * @note   When a 16-bit data frame or a 16-bit data frame extended is selected during the I2S
 532:Drivers/STM32F4xx_HAL_Driver/Src/stm32f4xx_hal_i2s_ex.c ****   *         configuration phase, the Size parameter means the number of 16-bit data length
 533:Drivers/STM32F4xx_HAL_Driver/Src/stm32f4xx_hal_i2s_ex.c ****   *         in the transaction and when a 24-bit data frame or a 32-bit data frame is selected
 534:Drivers/STM32F4xx_HAL_Driver/Src/stm32f4xx_hal_i2s_ex.c ****   *         the Size parameter means the number of 16-bit data length.
 535:Drivers/STM32F4xx_HAL_Driver/Src/stm32f4xx_hal_i2s_ex.c ****   * @note   The I2S is kept enabled at the end of transaction to avoid the clock de-synchronization
 536:Drivers/STM32F4xx_HAL_Driver/Src/stm32f4xx_hal_i2s_ex.c ****   *         between Master and Slave(example: audio streaming).
 537:Drivers/STM32F4xx_HAL_Driver/Src/stm32f4xx_hal_i2s_ex.c ****   * @retval HAL status
 538:Drivers/STM32F4xx_HAL_Driver/Src/stm32f4xx_hal_i2s_ex.c ****   */
 539:Drivers/STM32F4xx_HAL_Driver/Src/stm32f4xx_hal_i2s_ex.c **** HAL_StatusTypeDef HAL_I2SEx_TransmitReceive_DMA(I2S_HandleTypeDef *hi2s,
 540:Drivers/STM32F4xx_HAL_Driver/Src/stm32f4xx_hal_i2s_ex.c ****                                                 uint16_t *pTxData,
 541:Drivers/STM32F4xx_HAL_Driver/Src/stm32f4xx_hal_i2s_ex.c ****                                                 uint16_t *pRxData,
 542:Drivers/STM32F4xx_HAL_Driver/Src/stm32f4xx_hal_i2s_ex.c ****                                                 uint16_t Size)
 543:Drivers/STM32F4xx_HAL_Driver/Src/stm32f4xx_hal_i2s_ex.c **** {
ARM GAS  /tmp/cc74GRYw.s 			page 11


 544:Drivers/STM32F4xx_HAL_Driver/Src/stm32f4xx_hal_i2s_ex.c ****   uint32_t *tmp = NULL;
 545:Drivers/STM32F4xx_HAL_Driver/Src/stm32f4xx_hal_i2s_ex.c ****   uint32_t tmp1 = 0U;
 546:Drivers/STM32F4xx_HAL_Driver/Src/stm32f4xx_hal_i2s_ex.c ****   HAL_StatusTypeDef errorcode = HAL_OK;
 547:Drivers/STM32F4xx_HAL_Driver/Src/stm32f4xx_hal_i2s_ex.c **** 
 548:Drivers/STM32F4xx_HAL_Driver/Src/stm32f4xx_hal_i2s_ex.c ****   if (hi2s->State != HAL_I2S_STATE_READY)
 549:Drivers/STM32F4xx_HAL_Driver/Src/stm32f4xx_hal_i2s_ex.c ****   {
 550:Drivers/STM32F4xx_HAL_Driver/Src/stm32f4xx_hal_i2s_ex.c ****     errorcode = HAL_BUSY;
 551:Drivers/STM32F4xx_HAL_Driver/Src/stm32f4xx_hal_i2s_ex.c ****     goto error;
 552:Drivers/STM32F4xx_HAL_Driver/Src/stm32f4xx_hal_i2s_ex.c ****   }
 553:Drivers/STM32F4xx_HAL_Driver/Src/stm32f4xx_hal_i2s_ex.c **** 
 554:Drivers/STM32F4xx_HAL_Driver/Src/stm32f4xx_hal_i2s_ex.c ****   if ((pTxData == NULL) || (pRxData == NULL) || (Size == 0U))
 555:Drivers/STM32F4xx_HAL_Driver/Src/stm32f4xx_hal_i2s_ex.c ****   {
 556:Drivers/STM32F4xx_HAL_Driver/Src/stm32f4xx_hal_i2s_ex.c ****     return  HAL_ERROR;
 557:Drivers/STM32F4xx_HAL_Driver/Src/stm32f4xx_hal_i2s_ex.c ****   }
 558:Drivers/STM32F4xx_HAL_Driver/Src/stm32f4xx_hal_i2s_ex.c **** 
 559:Drivers/STM32F4xx_HAL_Driver/Src/stm32f4xx_hal_i2s_ex.c ****   /* Process Locked */
 560:Drivers/STM32F4xx_HAL_Driver/Src/stm32f4xx_hal_i2s_ex.c ****   __HAL_LOCK(hi2s);
 561:Drivers/STM32F4xx_HAL_Driver/Src/stm32f4xx_hal_i2s_ex.c **** 
 562:Drivers/STM32F4xx_HAL_Driver/Src/stm32f4xx_hal_i2s_ex.c ****   hi2s->pTxBuffPtr = pTxData;
 563:Drivers/STM32F4xx_HAL_Driver/Src/stm32f4xx_hal_i2s_ex.c ****   hi2s->pRxBuffPtr = pRxData;
 564:Drivers/STM32F4xx_HAL_Driver/Src/stm32f4xx_hal_i2s_ex.c **** 
 565:Drivers/STM32F4xx_HAL_Driver/Src/stm32f4xx_hal_i2s_ex.c ****   tmp1 = hi2s->Instance->I2SCFGR & (SPI_I2SCFGR_DATLEN | SPI_I2SCFGR_CHLEN);
 566:Drivers/STM32F4xx_HAL_Driver/Src/stm32f4xx_hal_i2s_ex.c ****   /* Check the Data format: When a 16-bit data frame or a 16-bit data frame extended
 567:Drivers/STM32F4xx_HAL_Driver/Src/stm32f4xx_hal_i2s_ex.c ****   is selected during the I2S configuration phase, the Size parameter means the number
 568:Drivers/STM32F4xx_HAL_Driver/Src/stm32f4xx_hal_i2s_ex.c ****   of 16-bit data length in the transaction and when a 24-bit data frame or a 32-bit data
 569:Drivers/STM32F4xx_HAL_Driver/Src/stm32f4xx_hal_i2s_ex.c ****   frame is selected the Size parameter means the number of 16-bit data length. */
 570:Drivers/STM32F4xx_HAL_Driver/Src/stm32f4xx_hal_i2s_ex.c ****   if ((tmp1 == I2S_DATAFORMAT_24B) || (tmp1 == I2S_DATAFORMAT_32B))
 571:Drivers/STM32F4xx_HAL_Driver/Src/stm32f4xx_hal_i2s_ex.c ****   {
 572:Drivers/STM32F4xx_HAL_Driver/Src/stm32f4xx_hal_i2s_ex.c ****     hi2s->TxXferSize  = (Size << 1U);
 573:Drivers/STM32F4xx_HAL_Driver/Src/stm32f4xx_hal_i2s_ex.c ****     hi2s->TxXferCount = (Size << 1U);
 574:Drivers/STM32F4xx_HAL_Driver/Src/stm32f4xx_hal_i2s_ex.c ****     hi2s->RxXferSize  = (Size << 1U);
 575:Drivers/STM32F4xx_HAL_Driver/Src/stm32f4xx_hal_i2s_ex.c ****     hi2s->RxXferCount = (Size << 1U);
 576:Drivers/STM32F4xx_HAL_Driver/Src/stm32f4xx_hal_i2s_ex.c ****   }
 577:Drivers/STM32F4xx_HAL_Driver/Src/stm32f4xx_hal_i2s_ex.c ****   else
 578:Drivers/STM32F4xx_HAL_Driver/Src/stm32f4xx_hal_i2s_ex.c ****   {
 579:Drivers/STM32F4xx_HAL_Driver/Src/stm32f4xx_hal_i2s_ex.c ****     hi2s->TxXferSize  = Size;
 580:Drivers/STM32F4xx_HAL_Driver/Src/stm32f4xx_hal_i2s_ex.c ****     hi2s->TxXferCount = Size;
 581:Drivers/STM32F4xx_HAL_Driver/Src/stm32f4xx_hal_i2s_ex.c ****     hi2s->RxXferSize  = Size;
 582:Drivers/STM32F4xx_HAL_Driver/Src/stm32f4xx_hal_i2s_ex.c ****     hi2s->RxXferCount = Size;
 583:Drivers/STM32F4xx_HAL_Driver/Src/stm32f4xx_hal_i2s_ex.c ****   }
 584:Drivers/STM32F4xx_HAL_Driver/Src/stm32f4xx_hal_i2s_ex.c **** 
 585:Drivers/STM32F4xx_HAL_Driver/Src/stm32f4xx_hal_i2s_ex.c ****   hi2s->ErrorCode = HAL_I2S_ERROR_NONE;
 586:Drivers/STM32F4xx_HAL_Driver/Src/stm32f4xx_hal_i2s_ex.c ****   hi2s->State     = HAL_I2S_STATE_BUSY_TX_RX;
 587:Drivers/STM32F4xx_HAL_Driver/Src/stm32f4xx_hal_i2s_ex.c **** 
 588:Drivers/STM32F4xx_HAL_Driver/Src/stm32f4xx_hal_i2s_ex.c ****   /* Set the I2S Rx DMA Half transfer complete callback */
 589:Drivers/STM32F4xx_HAL_Driver/Src/stm32f4xx_hal_i2s_ex.c ****   hi2s->hdmarx->XferHalfCpltCallback = I2SEx_TxRxDMAHalfCplt;
 590:Drivers/STM32F4xx_HAL_Driver/Src/stm32f4xx_hal_i2s_ex.c **** 
 591:Drivers/STM32F4xx_HAL_Driver/Src/stm32f4xx_hal_i2s_ex.c ****   /* Set the I2S Rx DMA transfer complete callback */
 592:Drivers/STM32F4xx_HAL_Driver/Src/stm32f4xx_hal_i2s_ex.c ****   hi2s->hdmarx->XferCpltCallback  = I2SEx_TxRxDMACplt;
 593:Drivers/STM32F4xx_HAL_Driver/Src/stm32f4xx_hal_i2s_ex.c **** 
 594:Drivers/STM32F4xx_HAL_Driver/Src/stm32f4xx_hal_i2s_ex.c ****   /* Set the I2S Rx DMA error callback */
 595:Drivers/STM32F4xx_HAL_Driver/Src/stm32f4xx_hal_i2s_ex.c ****   hi2s->hdmarx->XferErrorCallback = I2SEx_TxRxDMAError;
 596:Drivers/STM32F4xx_HAL_Driver/Src/stm32f4xx_hal_i2s_ex.c **** 
 597:Drivers/STM32F4xx_HAL_Driver/Src/stm32f4xx_hal_i2s_ex.c ****   /* Set the I2S Tx DMA Half transfer complete callback as NULL */
 598:Drivers/STM32F4xx_HAL_Driver/Src/stm32f4xx_hal_i2s_ex.c ****   hi2s->hdmatx->XferHalfCpltCallback  = NULL;
 599:Drivers/STM32F4xx_HAL_Driver/Src/stm32f4xx_hal_i2s_ex.c **** 
 600:Drivers/STM32F4xx_HAL_Driver/Src/stm32f4xx_hal_i2s_ex.c ****   /* Set the I2S Tx DMA transfer complete callback as NULL */
ARM GAS  /tmp/cc74GRYw.s 			page 12


 601:Drivers/STM32F4xx_HAL_Driver/Src/stm32f4xx_hal_i2s_ex.c ****   hi2s->hdmatx->XferCpltCallback  = NULL;
 602:Drivers/STM32F4xx_HAL_Driver/Src/stm32f4xx_hal_i2s_ex.c **** 
 603:Drivers/STM32F4xx_HAL_Driver/Src/stm32f4xx_hal_i2s_ex.c ****   /* Set the I2S Tx DMA error callback */
 604:Drivers/STM32F4xx_HAL_Driver/Src/stm32f4xx_hal_i2s_ex.c ****   hi2s->hdmatx->XferErrorCallback = I2SEx_TxRxDMAError;
 605:Drivers/STM32F4xx_HAL_Driver/Src/stm32f4xx_hal_i2s_ex.c **** 
 606:Drivers/STM32F4xx_HAL_Driver/Src/stm32f4xx_hal_i2s_ex.c ****   tmp1 = hi2s->Instance->I2SCFGR & SPI_I2SCFGR_I2SCFG;
 607:Drivers/STM32F4xx_HAL_Driver/Src/stm32f4xx_hal_i2s_ex.c ****   /* Check if the I2S_MODE_MASTER_TX or I2S_MODE_SLAVE_TX Mode is selected */
 608:Drivers/STM32F4xx_HAL_Driver/Src/stm32f4xx_hal_i2s_ex.c ****   if ((tmp1 == I2S_MODE_MASTER_TX) || (tmp1 == I2S_MODE_SLAVE_TX))
 609:Drivers/STM32F4xx_HAL_Driver/Src/stm32f4xx_hal_i2s_ex.c ****   {
 610:Drivers/STM32F4xx_HAL_Driver/Src/stm32f4xx_hal_i2s_ex.c ****     /* Enable the Rx DMA Stream */
 611:Drivers/STM32F4xx_HAL_Driver/Src/stm32f4xx_hal_i2s_ex.c ****     tmp = (uint32_t *)&pRxData;
 612:Drivers/STM32F4xx_HAL_Driver/Src/stm32f4xx_hal_i2s_ex.c ****     HAL_DMA_Start_IT(hi2s->hdmarx, (uint32_t)&I2SxEXT(hi2s->Instance)->DR, *(uint32_t *)tmp, hi2s->
 613:Drivers/STM32F4xx_HAL_Driver/Src/stm32f4xx_hal_i2s_ex.c **** 
 614:Drivers/STM32F4xx_HAL_Driver/Src/stm32f4xx_hal_i2s_ex.c ****     /* Enable Rx DMA Request */
 615:Drivers/STM32F4xx_HAL_Driver/Src/stm32f4xx_hal_i2s_ex.c ****     SET_BIT(I2SxEXT(hi2s->Instance)->CR2, SPI_CR2_RXDMAEN);
 616:Drivers/STM32F4xx_HAL_Driver/Src/stm32f4xx_hal_i2s_ex.c **** 
 617:Drivers/STM32F4xx_HAL_Driver/Src/stm32f4xx_hal_i2s_ex.c ****     /* Enable the Tx DMA Stream */
 618:Drivers/STM32F4xx_HAL_Driver/Src/stm32f4xx_hal_i2s_ex.c ****     tmp = (uint32_t *)&pTxData;
 619:Drivers/STM32F4xx_HAL_Driver/Src/stm32f4xx_hal_i2s_ex.c ****     HAL_DMA_Start_IT(hi2s->hdmatx, *(uint32_t *)tmp, (uint32_t)&hi2s->Instance->DR, hi2s->TxXferSiz
 620:Drivers/STM32F4xx_HAL_Driver/Src/stm32f4xx_hal_i2s_ex.c **** 
 621:Drivers/STM32F4xx_HAL_Driver/Src/stm32f4xx_hal_i2s_ex.c ****     /* Enable Tx DMA Request */
 622:Drivers/STM32F4xx_HAL_Driver/Src/stm32f4xx_hal_i2s_ex.c ****     SET_BIT(hi2s->Instance->CR2, SPI_CR2_TXDMAEN);
 623:Drivers/STM32F4xx_HAL_Driver/Src/stm32f4xx_hal_i2s_ex.c **** 
 624:Drivers/STM32F4xx_HAL_Driver/Src/stm32f4xx_hal_i2s_ex.c ****     /* Check if the I2S is already enabled */
 625:Drivers/STM32F4xx_HAL_Driver/Src/stm32f4xx_hal_i2s_ex.c ****     if ((hi2s->Instance->I2SCFGR & SPI_I2SCFGR_I2SE) != SPI_I2SCFGR_I2SE)
 626:Drivers/STM32F4xx_HAL_Driver/Src/stm32f4xx_hal_i2s_ex.c ****     {
 627:Drivers/STM32F4xx_HAL_Driver/Src/stm32f4xx_hal_i2s_ex.c ****       /* Enable I2Sext(receiver) before enabling I2Sx peripheral */
 628:Drivers/STM32F4xx_HAL_Driver/Src/stm32f4xx_hal_i2s_ex.c ****       __HAL_I2SEXT_ENABLE(hi2s);
 629:Drivers/STM32F4xx_HAL_Driver/Src/stm32f4xx_hal_i2s_ex.c **** 
 630:Drivers/STM32F4xx_HAL_Driver/Src/stm32f4xx_hal_i2s_ex.c ****       /* Enable I2S peripheral after the I2Sext */
 631:Drivers/STM32F4xx_HAL_Driver/Src/stm32f4xx_hal_i2s_ex.c ****       __HAL_I2S_ENABLE(hi2s);
 632:Drivers/STM32F4xx_HAL_Driver/Src/stm32f4xx_hal_i2s_ex.c ****     }
 633:Drivers/STM32F4xx_HAL_Driver/Src/stm32f4xx_hal_i2s_ex.c ****   }
 634:Drivers/STM32F4xx_HAL_Driver/Src/stm32f4xx_hal_i2s_ex.c ****   else
 635:Drivers/STM32F4xx_HAL_Driver/Src/stm32f4xx_hal_i2s_ex.c ****   {
 636:Drivers/STM32F4xx_HAL_Driver/Src/stm32f4xx_hal_i2s_ex.c ****     /* Check if Master Receiver mode is selected */
 637:Drivers/STM32F4xx_HAL_Driver/Src/stm32f4xx_hal_i2s_ex.c ****     if ((hi2s->Instance->I2SCFGR & SPI_I2SCFGR_I2SCFG) == I2S_MODE_MASTER_RX)
 638:Drivers/STM32F4xx_HAL_Driver/Src/stm32f4xx_hal_i2s_ex.c ****     {
 639:Drivers/STM32F4xx_HAL_Driver/Src/stm32f4xx_hal_i2s_ex.c ****       /* Clear the Overrun Flag by a read operation on the SPI_DR register followed by a read
 640:Drivers/STM32F4xx_HAL_Driver/Src/stm32f4xx_hal_i2s_ex.c ****       access to the SPI_SR register. */
 641:Drivers/STM32F4xx_HAL_Driver/Src/stm32f4xx_hal_i2s_ex.c ****       __HAL_I2S_CLEAR_OVRFLAG(hi2s);
 642:Drivers/STM32F4xx_HAL_Driver/Src/stm32f4xx_hal_i2s_ex.c ****     }
 643:Drivers/STM32F4xx_HAL_Driver/Src/stm32f4xx_hal_i2s_ex.c ****     /* Enable the Tx DMA Stream */
 644:Drivers/STM32F4xx_HAL_Driver/Src/stm32f4xx_hal_i2s_ex.c ****     tmp = (uint32_t *)&pTxData;
 645:Drivers/STM32F4xx_HAL_Driver/Src/stm32f4xx_hal_i2s_ex.c ****     HAL_DMA_Start_IT(hi2s->hdmatx, *(uint32_t *)tmp, (uint32_t)&I2SxEXT(hi2s->Instance)->DR, hi2s->
 646:Drivers/STM32F4xx_HAL_Driver/Src/stm32f4xx_hal_i2s_ex.c **** 
 647:Drivers/STM32F4xx_HAL_Driver/Src/stm32f4xx_hal_i2s_ex.c ****     /* Enable Tx DMA Request */
 648:Drivers/STM32F4xx_HAL_Driver/Src/stm32f4xx_hal_i2s_ex.c ****     SET_BIT(I2SxEXT(hi2s->Instance)->CR2, SPI_CR2_TXDMAEN);
 649:Drivers/STM32F4xx_HAL_Driver/Src/stm32f4xx_hal_i2s_ex.c **** 
 650:Drivers/STM32F4xx_HAL_Driver/Src/stm32f4xx_hal_i2s_ex.c ****     /* Enable the Rx DMA Stream */
 651:Drivers/STM32F4xx_HAL_Driver/Src/stm32f4xx_hal_i2s_ex.c ****     tmp = (uint32_t *)&pRxData;
 652:Drivers/STM32F4xx_HAL_Driver/Src/stm32f4xx_hal_i2s_ex.c ****     HAL_DMA_Start_IT(hi2s->hdmarx, (uint32_t)&hi2s->Instance->DR, *(uint32_t *)tmp, hi2s->RxXferSiz
 653:Drivers/STM32F4xx_HAL_Driver/Src/stm32f4xx_hal_i2s_ex.c **** 
 654:Drivers/STM32F4xx_HAL_Driver/Src/stm32f4xx_hal_i2s_ex.c ****     /* Enable Rx DMA Request */
 655:Drivers/STM32F4xx_HAL_Driver/Src/stm32f4xx_hal_i2s_ex.c ****     SET_BIT(hi2s->Instance->CR2, SPI_CR2_RXDMAEN);
 656:Drivers/STM32F4xx_HAL_Driver/Src/stm32f4xx_hal_i2s_ex.c **** 
 657:Drivers/STM32F4xx_HAL_Driver/Src/stm32f4xx_hal_i2s_ex.c ****     /* Check if the I2S is already enabled */
ARM GAS  /tmp/cc74GRYw.s 			page 13


 658:Drivers/STM32F4xx_HAL_Driver/Src/stm32f4xx_hal_i2s_ex.c ****     if ((hi2s->Instance->I2SCFGR & SPI_I2SCFGR_I2SE) != SPI_I2SCFGR_I2SE)
 659:Drivers/STM32F4xx_HAL_Driver/Src/stm32f4xx_hal_i2s_ex.c ****     {
 660:Drivers/STM32F4xx_HAL_Driver/Src/stm32f4xx_hal_i2s_ex.c ****       /* Enable I2Sext(transmitter) before enabling I2Sx peripheral */
 661:Drivers/STM32F4xx_HAL_Driver/Src/stm32f4xx_hal_i2s_ex.c ****       __HAL_I2SEXT_ENABLE(hi2s);
 662:Drivers/STM32F4xx_HAL_Driver/Src/stm32f4xx_hal_i2s_ex.c ****       /* Enable I2S peripheral before the I2Sext */
 663:Drivers/STM32F4xx_HAL_Driver/Src/stm32f4xx_hal_i2s_ex.c ****       __HAL_I2S_ENABLE(hi2s);
 664:Drivers/STM32F4xx_HAL_Driver/Src/stm32f4xx_hal_i2s_ex.c ****     }
 665:Drivers/STM32F4xx_HAL_Driver/Src/stm32f4xx_hal_i2s_ex.c ****   }
 666:Drivers/STM32F4xx_HAL_Driver/Src/stm32f4xx_hal_i2s_ex.c **** 
 667:Drivers/STM32F4xx_HAL_Driver/Src/stm32f4xx_hal_i2s_ex.c **** error :
 668:Drivers/STM32F4xx_HAL_Driver/Src/stm32f4xx_hal_i2s_ex.c ****   __HAL_UNLOCK(hi2s);
 669:Drivers/STM32F4xx_HAL_Driver/Src/stm32f4xx_hal_i2s_ex.c ****   return errorcode;
 670:Drivers/STM32F4xx_HAL_Driver/Src/stm32f4xx_hal_i2s_ex.c **** }
 671:Drivers/STM32F4xx_HAL_Driver/Src/stm32f4xx_hal_i2s_ex.c **** 
 672:Drivers/STM32F4xx_HAL_Driver/Src/stm32f4xx_hal_i2s_ex.c **** /**
 673:Drivers/STM32F4xx_HAL_Driver/Src/stm32f4xx_hal_i2s_ex.c ****   * @brief  This function handles I2S/I2Sext interrupt requests in full-duplex mode.
 674:Drivers/STM32F4xx_HAL_Driver/Src/stm32f4xx_hal_i2s_ex.c ****   * @param  hi2s I2S handle
 675:Drivers/STM32F4xx_HAL_Driver/Src/stm32f4xx_hal_i2s_ex.c ****   * @retval HAL status
 676:Drivers/STM32F4xx_HAL_Driver/Src/stm32f4xx_hal_i2s_ex.c ****   */
 677:Drivers/STM32F4xx_HAL_Driver/Src/stm32f4xx_hal_i2s_ex.c **** void HAL_I2SEx_FullDuplex_IRQHandler(I2S_HandleTypeDef *hi2s)
 678:Drivers/STM32F4xx_HAL_Driver/Src/stm32f4xx_hal_i2s_ex.c **** {
 679:Drivers/STM32F4xx_HAL_Driver/Src/stm32f4xx_hal_i2s_ex.c ****   __IO uint32_t i2ssr     = hi2s->Instance->SR;
 680:Drivers/STM32F4xx_HAL_Driver/Src/stm32f4xx_hal_i2s_ex.c ****   __IO uint32_t i2sextsr  = I2SxEXT(hi2s->Instance)->SR;
 681:Drivers/STM32F4xx_HAL_Driver/Src/stm32f4xx_hal_i2s_ex.c ****   __IO uint32_t i2scr2    = hi2s->Instance->CR2;
 682:Drivers/STM32F4xx_HAL_Driver/Src/stm32f4xx_hal_i2s_ex.c ****   __IO uint32_t i2sextcr2 = I2SxEXT(hi2s->Instance)->CR2;
 683:Drivers/STM32F4xx_HAL_Driver/Src/stm32f4xx_hal_i2s_ex.c **** 
 684:Drivers/STM32F4xx_HAL_Driver/Src/stm32f4xx_hal_i2s_ex.c ****   /* Check if the I2S_MODE_MASTER_TX or I2S_MODE_SLAVE_TX Mode is selected */
 685:Drivers/STM32F4xx_HAL_Driver/Src/stm32f4xx_hal_i2s_ex.c ****   if ((hi2s->Init.Mode == I2S_MODE_MASTER_TX) || (hi2s->Init.Mode == I2S_MODE_SLAVE_TX))
 686:Drivers/STM32F4xx_HAL_Driver/Src/stm32f4xx_hal_i2s_ex.c ****   {
 687:Drivers/STM32F4xx_HAL_Driver/Src/stm32f4xx_hal_i2s_ex.c ****     /* I2S in mode Transmitter -------------------------------------------------*/
 688:Drivers/STM32F4xx_HAL_Driver/Src/stm32f4xx_hal_i2s_ex.c ****     if (((i2ssr & I2S_FLAG_TXE) == I2S_FLAG_TXE) && ((i2scr2 & I2S_IT_TXE) != RESET))
 689:Drivers/STM32F4xx_HAL_Driver/Src/stm32f4xx_hal_i2s_ex.c ****     {
 690:Drivers/STM32F4xx_HAL_Driver/Src/stm32f4xx_hal_i2s_ex.c ****       /* When the I2S mode is configured as I2S_MODE_MASTER_TX or I2S_MODE_SLAVE_TX,
 691:Drivers/STM32F4xx_HAL_Driver/Src/stm32f4xx_hal_i2s_ex.c ****       the I2S TXE interrupt will be generated to manage the full-duplex transmit phase. */
 692:Drivers/STM32F4xx_HAL_Driver/Src/stm32f4xx_hal_i2s_ex.c ****       I2SEx_TxISR_I2S(hi2s);
 693:Drivers/STM32F4xx_HAL_Driver/Src/stm32f4xx_hal_i2s_ex.c ****     }
 694:Drivers/STM32F4xx_HAL_Driver/Src/stm32f4xx_hal_i2s_ex.c **** 
 695:Drivers/STM32F4xx_HAL_Driver/Src/stm32f4xx_hal_i2s_ex.c ****     /* I2Sext in mode Receiver -----------------------------------------------*/
 696:Drivers/STM32F4xx_HAL_Driver/Src/stm32f4xx_hal_i2s_ex.c ****     if (((i2sextsr & I2S_FLAG_RXNE) == I2S_FLAG_RXNE) && ((i2sextcr2 & I2S_IT_RXNE) != RESET))
 697:Drivers/STM32F4xx_HAL_Driver/Src/stm32f4xx_hal_i2s_ex.c ****     {
 698:Drivers/STM32F4xx_HAL_Driver/Src/stm32f4xx_hal_i2s_ex.c ****       /* When the I2S mode is configured as I2S_MODE_MASTER_TX or I2S_MODE_SLAVE_TX,
 699:Drivers/STM32F4xx_HAL_Driver/Src/stm32f4xx_hal_i2s_ex.c ****       the I2Sext RXNE interrupt will be generated to manage the full-duplex receive phase. */
 700:Drivers/STM32F4xx_HAL_Driver/Src/stm32f4xx_hal_i2s_ex.c ****       I2SEx_RxISR_I2SExt(hi2s);
 701:Drivers/STM32F4xx_HAL_Driver/Src/stm32f4xx_hal_i2s_ex.c ****     }
 702:Drivers/STM32F4xx_HAL_Driver/Src/stm32f4xx_hal_i2s_ex.c **** 
 703:Drivers/STM32F4xx_HAL_Driver/Src/stm32f4xx_hal_i2s_ex.c ****     /* I2Sext Overrun error interrupt occurred --------------------------------*/
 704:Drivers/STM32F4xx_HAL_Driver/Src/stm32f4xx_hal_i2s_ex.c ****     if (((i2sextsr & I2S_FLAG_OVR) == I2S_FLAG_OVR) && ((i2sextcr2 & I2S_IT_ERR) != RESET))
 705:Drivers/STM32F4xx_HAL_Driver/Src/stm32f4xx_hal_i2s_ex.c ****     {
 706:Drivers/STM32F4xx_HAL_Driver/Src/stm32f4xx_hal_i2s_ex.c ****       /* Disable RXNE and ERR interrupt */
 707:Drivers/STM32F4xx_HAL_Driver/Src/stm32f4xx_hal_i2s_ex.c ****       __HAL_I2SEXT_DISABLE_IT(hi2s, (I2S_IT_RXNE | I2S_IT_ERR));
 708:Drivers/STM32F4xx_HAL_Driver/Src/stm32f4xx_hal_i2s_ex.c **** 
 709:Drivers/STM32F4xx_HAL_Driver/Src/stm32f4xx_hal_i2s_ex.c ****       /* Disable TXE and ERR interrupt */
 710:Drivers/STM32F4xx_HAL_Driver/Src/stm32f4xx_hal_i2s_ex.c ****       __HAL_I2S_DISABLE_IT(hi2s, (I2S_IT_TXE | I2S_IT_ERR));
 711:Drivers/STM32F4xx_HAL_Driver/Src/stm32f4xx_hal_i2s_ex.c **** 
 712:Drivers/STM32F4xx_HAL_Driver/Src/stm32f4xx_hal_i2s_ex.c ****       /* Clear Overrun flag */
 713:Drivers/STM32F4xx_HAL_Driver/Src/stm32f4xx_hal_i2s_ex.c ****       __HAL_I2S_CLEAR_OVRFLAG(hi2s);
 714:Drivers/STM32F4xx_HAL_Driver/Src/stm32f4xx_hal_i2s_ex.c **** 
ARM GAS  /tmp/cc74GRYw.s 			page 14


 715:Drivers/STM32F4xx_HAL_Driver/Src/stm32f4xx_hal_i2s_ex.c ****       /* Set the I2S State ready */
 716:Drivers/STM32F4xx_HAL_Driver/Src/stm32f4xx_hal_i2s_ex.c ****       hi2s->State = HAL_I2S_STATE_READY;
 717:Drivers/STM32F4xx_HAL_Driver/Src/stm32f4xx_hal_i2s_ex.c **** 
 718:Drivers/STM32F4xx_HAL_Driver/Src/stm32f4xx_hal_i2s_ex.c ****       /* Set the error code and execute error callback*/
 719:Drivers/STM32F4xx_HAL_Driver/Src/stm32f4xx_hal_i2s_ex.c ****       SET_BIT(hi2s->ErrorCode, HAL_I2S_ERROR_OVR);
 720:Drivers/STM32F4xx_HAL_Driver/Src/stm32f4xx_hal_i2s_ex.c ****       /* Call user error callback */
 721:Drivers/STM32F4xx_HAL_Driver/Src/stm32f4xx_hal_i2s_ex.c **** #if (USE_HAL_I2S_REGISTER_CALLBACKS == 1U)
 722:Drivers/STM32F4xx_HAL_Driver/Src/stm32f4xx_hal_i2s_ex.c ****       hi2s->ErrorCallback(hi2s);
 723:Drivers/STM32F4xx_HAL_Driver/Src/stm32f4xx_hal_i2s_ex.c **** #else
 724:Drivers/STM32F4xx_HAL_Driver/Src/stm32f4xx_hal_i2s_ex.c ****       HAL_I2S_ErrorCallback(hi2s);
 725:Drivers/STM32F4xx_HAL_Driver/Src/stm32f4xx_hal_i2s_ex.c **** #endif /* USE_HAL_I2S_REGISTER_CALLBACKS */
 726:Drivers/STM32F4xx_HAL_Driver/Src/stm32f4xx_hal_i2s_ex.c ****     }
 727:Drivers/STM32F4xx_HAL_Driver/Src/stm32f4xx_hal_i2s_ex.c **** 
 728:Drivers/STM32F4xx_HAL_Driver/Src/stm32f4xx_hal_i2s_ex.c ****     /* I2S Underrun error interrupt occurred ----------------------------------*/
 729:Drivers/STM32F4xx_HAL_Driver/Src/stm32f4xx_hal_i2s_ex.c ****     if (((i2ssr & I2S_FLAG_UDR) == I2S_FLAG_UDR) && ((i2scr2 & I2S_IT_ERR) != RESET))
 730:Drivers/STM32F4xx_HAL_Driver/Src/stm32f4xx_hal_i2s_ex.c ****     {
 731:Drivers/STM32F4xx_HAL_Driver/Src/stm32f4xx_hal_i2s_ex.c ****       /* Disable TXE and ERR interrupt */
 732:Drivers/STM32F4xx_HAL_Driver/Src/stm32f4xx_hal_i2s_ex.c ****       __HAL_I2S_DISABLE_IT(hi2s, (I2S_IT_TXE | I2S_IT_ERR));
 733:Drivers/STM32F4xx_HAL_Driver/Src/stm32f4xx_hal_i2s_ex.c **** 
 734:Drivers/STM32F4xx_HAL_Driver/Src/stm32f4xx_hal_i2s_ex.c ****       /* Disable RXNE and ERR interrupt */
 735:Drivers/STM32F4xx_HAL_Driver/Src/stm32f4xx_hal_i2s_ex.c ****       __HAL_I2SEXT_DISABLE_IT(hi2s, (I2S_IT_RXNE | I2S_IT_ERR));
 736:Drivers/STM32F4xx_HAL_Driver/Src/stm32f4xx_hal_i2s_ex.c **** 
 737:Drivers/STM32F4xx_HAL_Driver/Src/stm32f4xx_hal_i2s_ex.c ****       /* Clear underrun flag */
 738:Drivers/STM32F4xx_HAL_Driver/Src/stm32f4xx_hal_i2s_ex.c ****       __HAL_I2S_CLEAR_UDRFLAG(hi2s);
 739:Drivers/STM32F4xx_HAL_Driver/Src/stm32f4xx_hal_i2s_ex.c **** 
 740:Drivers/STM32F4xx_HAL_Driver/Src/stm32f4xx_hal_i2s_ex.c ****       /* Set the I2S State ready */
 741:Drivers/STM32F4xx_HAL_Driver/Src/stm32f4xx_hal_i2s_ex.c ****       hi2s->State = HAL_I2S_STATE_READY;
 742:Drivers/STM32F4xx_HAL_Driver/Src/stm32f4xx_hal_i2s_ex.c **** 
 743:Drivers/STM32F4xx_HAL_Driver/Src/stm32f4xx_hal_i2s_ex.c ****       /* Set the error code and execute error callback*/
 744:Drivers/STM32F4xx_HAL_Driver/Src/stm32f4xx_hal_i2s_ex.c ****       SET_BIT(hi2s->ErrorCode, HAL_I2S_ERROR_UDR);
 745:Drivers/STM32F4xx_HAL_Driver/Src/stm32f4xx_hal_i2s_ex.c ****       /* Call user error callback */
 746:Drivers/STM32F4xx_HAL_Driver/Src/stm32f4xx_hal_i2s_ex.c **** #if (USE_HAL_I2S_REGISTER_CALLBACKS == 1U)
 747:Drivers/STM32F4xx_HAL_Driver/Src/stm32f4xx_hal_i2s_ex.c ****       hi2s->ErrorCallback(hi2s);
 748:Drivers/STM32F4xx_HAL_Driver/Src/stm32f4xx_hal_i2s_ex.c **** #else
 749:Drivers/STM32F4xx_HAL_Driver/Src/stm32f4xx_hal_i2s_ex.c ****       HAL_I2S_ErrorCallback(hi2s);
 750:Drivers/STM32F4xx_HAL_Driver/Src/stm32f4xx_hal_i2s_ex.c **** #endif /* USE_HAL_I2S_REGISTER_CALLBACKS */
 751:Drivers/STM32F4xx_HAL_Driver/Src/stm32f4xx_hal_i2s_ex.c ****     }
 752:Drivers/STM32F4xx_HAL_Driver/Src/stm32f4xx_hal_i2s_ex.c ****   }
 753:Drivers/STM32F4xx_HAL_Driver/Src/stm32f4xx_hal_i2s_ex.c ****   /* The I2S_MODE_MASTER_RX or I2S_MODE_SLAVE_RX Mode is selected */
 754:Drivers/STM32F4xx_HAL_Driver/Src/stm32f4xx_hal_i2s_ex.c ****   else
 755:Drivers/STM32F4xx_HAL_Driver/Src/stm32f4xx_hal_i2s_ex.c ****   {
 756:Drivers/STM32F4xx_HAL_Driver/Src/stm32f4xx_hal_i2s_ex.c ****     /* I2Sext in mode Transmitter ----------------------------------------------*/
 757:Drivers/STM32F4xx_HAL_Driver/Src/stm32f4xx_hal_i2s_ex.c ****     if (((i2sextsr & I2S_FLAG_TXE) == I2S_FLAG_TXE) && ((i2sextcr2 & I2S_IT_TXE) != RESET))
 758:Drivers/STM32F4xx_HAL_Driver/Src/stm32f4xx_hal_i2s_ex.c ****     {
 759:Drivers/STM32F4xx_HAL_Driver/Src/stm32f4xx_hal_i2s_ex.c ****       /* When the I2S mode is configured as I2S_MODE_MASTER_RX or I2S_MODE_SLAVE_RX,
 760:Drivers/STM32F4xx_HAL_Driver/Src/stm32f4xx_hal_i2s_ex.c ****       the I2Sext TXE interrupt will be generated to manage the full-duplex transmit phase. */
 761:Drivers/STM32F4xx_HAL_Driver/Src/stm32f4xx_hal_i2s_ex.c ****       I2SEx_TxISR_I2SExt(hi2s);
 762:Drivers/STM32F4xx_HAL_Driver/Src/stm32f4xx_hal_i2s_ex.c ****     }
 763:Drivers/STM32F4xx_HAL_Driver/Src/stm32f4xx_hal_i2s_ex.c **** 
 764:Drivers/STM32F4xx_HAL_Driver/Src/stm32f4xx_hal_i2s_ex.c ****     /* I2S in mode Receiver --------------------------------------------------*/
 765:Drivers/STM32F4xx_HAL_Driver/Src/stm32f4xx_hal_i2s_ex.c ****     if (((i2ssr & I2S_FLAG_RXNE) == I2S_FLAG_RXNE) && ((i2scr2 & I2S_IT_RXNE) != RESET))
 766:Drivers/STM32F4xx_HAL_Driver/Src/stm32f4xx_hal_i2s_ex.c ****     {
 767:Drivers/STM32F4xx_HAL_Driver/Src/stm32f4xx_hal_i2s_ex.c ****       /* When the I2S mode is configured as I2S_MODE_MASTER_RX or I2S_MODE_SLAVE_RX,
 768:Drivers/STM32F4xx_HAL_Driver/Src/stm32f4xx_hal_i2s_ex.c ****       the I2S RXNE interrupt will be generated to manage the full-duplex receive phase. */
 769:Drivers/STM32F4xx_HAL_Driver/Src/stm32f4xx_hal_i2s_ex.c ****       I2SEx_RxISR_I2S(hi2s);
 770:Drivers/STM32F4xx_HAL_Driver/Src/stm32f4xx_hal_i2s_ex.c ****     }
 771:Drivers/STM32F4xx_HAL_Driver/Src/stm32f4xx_hal_i2s_ex.c **** 
ARM GAS  /tmp/cc74GRYw.s 			page 15


 772:Drivers/STM32F4xx_HAL_Driver/Src/stm32f4xx_hal_i2s_ex.c ****     /* I2S Overrun error interrupt occurred -------------------------------------*/
 773:Drivers/STM32F4xx_HAL_Driver/Src/stm32f4xx_hal_i2s_ex.c ****     if (((i2ssr & I2S_FLAG_OVR) == I2S_FLAG_OVR) && ((i2scr2 & I2S_IT_ERR) != RESET))
 774:Drivers/STM32F4xx_HAL_Driver/Src/stm32f4xx_hal_i2s_ex.c ****     {
 775:Drivers/STM32F4xx_HAL_Driver/Src/stm32f4xx_hal_i2s_ex.c ****       /* Disable RXNE and ERR interrupt */
 776:Drivers/STM32F4xx_HAL_Driver/Src/stm32f4xx_hal_i2s_ex.c ****       __HAL_I2S_DISABLE_IT(hi2s, (I2S_IT_RXNE | I2S_IT_ERR));
 777:Drivers/STM32F4xx_HAL_Driver/Src/stm32f4xx_hal_i2s_ex.c **** 
 778:Drivers/STM32F4xx_HAL_Driver/Src/stm32f4xx_hal_i2s_ex.c ****       /* Disable TXE and ERR interrupt */
 779:Drivers/STM32F4xx_HAL_Driver/Src/stm32f4xx_hal_i2s_ex.c ****       __HAL_I2SEXT_DISABLE_IT(hi2s, (I2S_IT_TXE | I2S_IT_ERR));
 780:Drivers/STM32F4xx_HAL_Driver/Src/stm32f4xx_hal_i2s_ex.c **** 
 781:Drivers/STM32F4xx_HAL_Driver/Src/stm32f4xx_hal_i2s_ex.c ****       /* Set the I2S State ready */
 782:Drivers/STM32F4xx_HAL_Driver/Src/stm32f4xx_hal_i2s_ex.c ****       hi2s->State = HAL_I2S_STATE_READY;
 783:Drivers/STM32F4xx_HAL_Driver/Src/stm32f4xx_hal_i2s_ex.c **** 
 784:Drivers/STM32F4xx_HAL_Driver/Src/stm32f4xx_hal_i2s_ex.c ****       /* Set the error code and execute error callback*/
 785:Drivers/STM32F4xx_HAL_Driver/Src/stm32f4xx_hal_i2s_ex.c ****       SET_BIT(hi2s->ErrorCode, HAL_I2S_ERROR_OVR);
 786:Drivers/STM32F4xx_HAL_Driver/Src/stm32f4xx_hal_i2s_ex.c ****       /* Call user error callback */
 787:Drivers/STM32F4xx_HAL_Driver/Src/stm32f4xx_hal_i2s_ex.c **** #if (USE_HAL_I2S_REGISTER_CALLBACKS == 1U)
 788:Drivers/STM32F4xx_HAL_Driver/Src/stm32f4xx_hal_i2s_ex.c ****       hi2s->ErrorCallback(hi2s);
 789:Drivers/STM32F4xx_HAL_Driver/Src/stm32f4xx_hal_i2s_ex.c **** #else
 790:Drivers/STM32F4xx_HAL_Driver/Src/stm32f4xx_hal_i2s_ex.c ****       HAL_I2S_ErrorCallback(hi2s);
 791:Drivers/STM32F4xx_HAL_Driver/Src/stm32f4xx_hal_i2s_ex.c **** #endif /* USE_HAL_I2S_REGISTER_CALLBACKS */
 792:Drivers/STM32F4xx_HAL_Driver/Src/stm32f4xx_hal_i2s_ex.c ****     }
 793:Drivers/STM32F4xx_HAL_Driver/Src/stm32f4xx_hal_i2s_ex.c **** 
 794:Drivers/STM32F4xx_HAL_Driver/Src/stm32f4xx_hal_i2s_ex.c ****     /* I2Sext Underrun error interrupt occurred -------------------------------*/
 795:Drivers/STM32F4xx_HAL_Driver/Src/stm32f4xx_hal_i2s_ex.c ****     if (((i2sextsr & I2S_FLAG_UDR) == I2S_FLAG_UDR) && ((i2sextcr2 & I2S_IT_ERR) != RESET))
 796:Drivers/STM32F4xx_HAL_Driver/Src/stm32f4xx_hal_i2s_ex.c ****     {
 797:Drivers/STM32F4xx_HAL_Driver/Src/stm32f4xx_hal_i2s_ex.c ****       /* Disable TXE and ERR interrupt */
 798:Drivers/STM32F4xx_HAL_Driver/Src/stm32f4xx_hal_i2s_ex.c ****       __HAL_I2SEXT_DISABLE_IT(hi2s, (I2S_IT_TXE | I2S_IT_ERR));
 799:Drivers/STM32F4xx_HAL_Driver/Src/stm32f4xx_hal_i2s_ex.c **** 
 800:Drivers/STM32F4xx_HAL_Driver/Src/stm32f4xx_hal_i2s_ex.c ****       /* Disable RXNE and ERR interrupt */
 801:Drivers/STM32F4xx_HAL_Driver/Src/stm32f4xx_hal_i2s_ex.c ****       __HAL_I2S_DISABLE_IT(hi2s, (I2S_IT_RXNE | I2S_IT_ERR));
 802:Drivers/STM32F4xx_HAL_Driver/Src/stm32f4xx_hal_i2s_ex.c **** 
 803:Drivers/STM32F4xx_HAL_Driver/Src/stm32f4xx_hal_i2s_ex.c ****       /* Set the I2S State ready */
 804:Drivers/STM32F4xx_HAL_Driver/Src/stm32f4xx_hal_i2s_ex.c ****       hi2s->State = HAL_I2S_STATE_READY;
 805:Drivers/STM32F4xx_HAL_Driver/Src/stm32f4xx_hal_i2s_ex.c **** 
 806:Drivers/STM32F4xx_HAL_Driver/Src/stm32f4xx_hal_i2s_ex.c ****       /* Set the error code and execute error callback*/
 807:Drivers/STM32F4xx_HAL_Driver/Src/stm32f4xx_hal_i2s_ex.c ****       SET_BIT(hi2s->ErrorCode, HAL_I2S_ERROR_UDR);
 808:Drivers/STM32F4xx_HAL_Driver/Src/stm32f4xx_hal_i2s_ex.c ****       /* Call user error callback */
 809:Drivers/STM32F4xx_HAL_Driver/Src/stm32f4xx_hal_i2s_ex.c **** #if (USE_HAL_I2S_REGISTER_CALLBACKS == 1U)
 810:Drivers/STM32F4xx_HAL_Driver/Src/stm32f4xx_hal_i2s_ex.c ****       hi2s->ErrorCallback(hi2s);
 811:Drivers/STM32F4xx_HAL_Driver/Src/stm32f4xx_hal_i2s_ex.c **** #else
 812:Drivers/STM32F4xx_HAL_Driver/Src/stm32f4xx_hal_i2s_ex.c ****       HAL_I2S_ErrorCallback(hi2s);
 813:Drivers/STM32F4xx_HAL_Driver/Src/stm32f4xx_hal_i2s_ex.c **** #endif /* USE_HAL_I2S_REGISTER_CALLBACKS */
 814:Drivers/STM32F4xx_HAL_Driver/Src/stm32f4xx_hal_i2s_ex.c ****     }
 815:Drivers/STM32F4xx_HAL_Driver/Src/stm32f4xx_hal_i2s_ex.c ****   }
 816:Drivers/STM32F4xx_HAL_Driver/Src/stm32f4xx_hal_i2s_ex.c **** }
 817:Drivers/STM32F4xx_HAL_Driver/Src/stm32f4xx_hal_i2s_ex.c **** 
 818:Drivers/STM32F4xx_HAL_Driver/Src/stm32f4xx_hal_i2s_ex.c **** /**
 819:Drivers/STM32F4xx_HAL_Driver/Src/stm32f4xx_hal_i2s_ex.c ****   * @brief  Tx and Rx Transfer half completed callback
 820:Drivers/STM32F4xx_HAL_Driver/Src/stm32f4xx_hal_i2s_ex.c ****   * @param  hi2s I2S handle
 821:Drivers/STM32F4xx_HAL_Driver/Src/stm32f4xx_hal_i2s_ex.c ****   * @retval None
 822:Drivers/STM32F4xx_HAL_Driver/Src/stm32f4xx_hal_i2s_ex.c ****   */
 823:Drivers/STM32F4xx_HAL_Driver/Src/stm32f4xx_hal_i2s_ex.c **** __weak void HAL_I2SEx_TxRxHalfCpltCallback(I2S_HandleTypeDef *hi2s)
 824:Drivers/STM32F4xx_HAL_Driver/Src/stm32f4xx_hal_i2s_ex.c **** {
 825:Drivers/STM32F4xx_HAL_Driver/Src/stm32f4xx_hal_i2s_ex.c ****   /* Prevent unused argument(s) compilation warning */
 826:Drivers/STM32F4xx_HAL_Driver/Src/stm32f4xx_hal_i2s_ex.c ****   UNUSED(hi2s);
 827:Drivers/STM32F4xx_HAL_Driver/Src/stm32f4xx_hal_i2s_ex.c **** 
 828:Drivers/STM32F4xx_HAL_Driver/Src/stm32f4xx_hal_i2s_ex.c ****   /* NOTE : This function Should not be modified, when the callback is needed,
ARM GAS  /tmp/cc74GRYw.s 			page 16


 829:Drivers/STM32F4xx_HAL_Driver/Src/stm32f4xx_hal_i2s_ex.c ****             the HAL_I2SEx_TxRxHalfCpltCallback could be implemented in the user file
 830:Drivers/STM32F4xx_HAL_Driver/Src/stm32f4xx_hal_i2s_ex.c ****    */
 831:Drivers/STM32F4xx_HAL_Driver/Src/stm32f4xx_hal_i2s_ex.c **** }
 832:Drivers/STM32F4xx_HAL_Driver/Src/stm32f4xx_hal_i2s_ex.c **** 
 833:Drivers/STM32F4xx_HAL_Driver/Src/stm32f4xx_hal_i2s_ex.c **** /**
 834:Drivers/STM32F4xx_HAL_Driver/Src/stm32f4xx_hal_i2s_ex.c ****   * @brief  Tx and Rx Transfer completed callback
 835:Drivers/STM32F4xx_HAL_Driver/Src/stm32f4xx_hal_i2s_ex.c ****   * @param  hi2s I2S handle
 836:Drivers/STM32F4xx_HAL_Driver/Src/stm32f4xx_hal_i2s_ex.c ****   * @retval None
 837:Drivers/STM32F4xx_HAL_Driver/Src/stm32f4xx_hal_i2s_ex.c ****   */
 838:Drivers/STM32F4xx_HAL_Driver/Src/stm32f4xx_hal_i2s_ex.c **** __weak void HAL_I2SEx_TxRxCpltCallback(I2S_HandleTypeDef *hi2s)
 839:Drivers/STM32F4xx_HAL_Driver/Src/stm32f4xx_hal_i2s_ex.c **** {
 840:Drivers/STM32F4xx_HAL_Driver/Src/stm32f4xx_hal_i2s_ex.c ****   /* Prevent unused argument(s) compilation warning */
 841:Drivers/STM32F4xx_HAL_Driver/Src/stm32f4xx_hal_i2s_ex.c ****   UNUSED(hi2s);
 842:Drivers/STM32F4xx_HAL_Driver/Src/stm32f4xx_hal_i2s_ex.c **** 
 843:Drivers/STM32F4xx_HAL_Driver/Src/stm32f4xx_hal_i2s_ex.c ****   /* NOTE : This function should not be modified, when the callback is needed,
 844:Drivers/STM32F4xx_HAL_Driver/Src/stm32f4xx_hal_i2s_ex.c ****             the HAL_I2SEx_TxRxCpltCallback could be implemented in the user file
 845:Drivers/STM32F4xx_HAL_Driver/Src/stm32f4xx_hal_i2s_ex.c ****    */
 846:Drivers/STM32F4xx_HAL_Driver/Src/stm32f4xx_hal_i2s_ex.c **** }
 847:Drivers/STM32F4xx_HAL_Driver/Src/stm32f4xx_hal_i2s_ex.c **** 
 848:Drivers/STM32F4xx_HAL_Driver/Src/stm32f4xx_hal_i2s_ex.c **** /**
 849:Drivers/STM32F4xx_HAL_Driver/Src/stm32f4xx_hal_i2s_ex.c ****   * @}
 850:Drivers/STM32F4xx_HAL_Driver/Src/stm32f4xx_hal_i2s_ex.c ****   */
 851:Drivers/STM32F4xx_HAL_Driver/Src/stm32f4xx_hal_i2s_ex.c **** 
 852:Drivers/STM32F4xx_HAL_Driver/Src/stm32f4xx_hal_i2s_ex.c **** /**
 853:Drivers/STM32F4xx_HAL_Driver/Src/stm32f4xx_hal_i2s_ex.c ****   * @}
 854:Drivers/STM32F4xx_HAL_Driver/Src/stm32f4xx_hal_i2s_ex.c ****   */
 855:Drivers/STM32F4xx_HAL_Driver/Src/stm32f4xx_hal_i2s_ex.c **** 
 856:Drivers/STM32F4xx_HAL_Driver/Src/stm32f4xx_hal_i2s_ex.c **** /** @addtogroup I2SEx_Private_Functions I2S Extended Private Functions
 857:Drivers/STM32F4xx_HAL_Driver/Src/stm32f4xx_hal_i2s_ex.c ****   * @{
 858:Drivers/STM32F4xx_HAL_Driver/Src/stm32f4xx_hal_i2s_ex.c ****   */
 859:Drivers/STM32F4xx_HAL_Driver/Src/stm32f4xx_hal_i2s_ex.c **** 
 860:Drivers/STM32F4xx_HAL_Driver/Src/stm32f4xx_hal_i2s_ex.c **** /**
 861:Drivers/STM32F4xx_HAL_Driver/Src/stm32f4xx_hal_i2s_ex.c ****   * @brief  DMA I2S transmit receive process half complete callback
 862:Drivers/STM32F4xx_HAL_Driver/Src/stm32f4xx_hal_i2s_ex.c ****   * @param  hdma pointer to a DMA_HandleTypeDef structure that contains
 863:Drivers/STM32F4xx_HAL_Driver/Src/stm32f4xx_hal_i2s_ex.c ****   *               the configuration information for the specified DMA module.
 864:Drivers/STM32F4xx_HAL_Driver/Src/stm32f4xx_hal_i2s_ex.c ****   * @retval None
 865:Drivers/STM32F4xx_HAL_Driver/Src/stm32f4xx_hal_i2s_ex.c ****   */
 866:Drivers/STM32F4xx_HAL_Driver/Src/stm32f4xx_hal_i2s_ex.c **** static void I2SEx_TxRxDMAHalfCplt(DMA_HandleTypeDef *hdma)
 867:Drivers/STM32F4xx_HAL_Driver/Src/stm32f4xx_hal_i2s_ex.c **** {
 868:Drivers/STM32F4xx_HAL_Driver/Src/stm32f4xx_hal_i2s_ex.c ****   I2S_HandleTypeDef *hi2s = (I2S_HandleTypeDef *)((DMA_HandleTypeDef *)hdma)->Parent;
 869:Drivers/STM32F4xx_HAL_Driver/Src/stm32f4xx_hal_i2s_ex.c **** 
 870:Drivers/STM32F4xx_HAL_Driver/Src/stm32f4xx_hal_i2s_ex.c ****   /* Call user TxRx Half complete callback */
 871:Drivers/STM32F4xx_HAL_Driver/Src/stm32f4xx_hal_i2s_ex.c **** #if (USE_HAL_I2S_REGISTER_CALLBACKS == 1U)
 872:Drivers/STM32F4xx_HAL_Driver/Src/stm32f4xx_hal_i2s_ex.c ****   hi2s->TxRxHalfCpltCallback(hi2s);
 873:Drivers/STM32F4xx_HAL_Driver/Src/stm32f4xx_hal_i2s_ex.c **** #else
 874:Drivers/STM32F4xx_HAL_Driver/Src/stm32f4xx_hal_i2s_ex.c ****   HAL_I2SEx_TxRxHalfCpltCallback(hi2s);
 875:Drivers/STM32F4xx_HAL_Driver/Src/stm32f4xx_hal_i2s_ex.c **** #endif /* USE_HAL_I2S_REGISTER_CALLBACKS */
 876:Drivers/STM32F4xx_HAL_Driver/Src/stm32f4xx_hal_i2s_ex.c **** }
 877:Drivers/STM32F4xx_HAL_Driver/Src/stm32f4xx_hal_i2s_ex.c **** 
 878:Drivers/STM32F4xx_HAL_Driver/Src/stm32f4xx_hal_i2s_ex.c **** /**
 879:Drivers/STM32F4xx_HAL_Driver/Src/stm32f4xx_hal_i2s_ex.c ****   * @brief  DMA I2S transmit receive process complete callback
 880:Drivers/STM32F4xx_HAL_Driver/Src/stm32f4xx_hal_i2s_ex.c ****   * @param  hdma pointer to a DMA_HandleTypeDef structure that contains
 881:Drivers/STM32F4xx_HAL_Driver/Src/stm32f4xx_hal_i2s_ex.c ****   *               the configuration information for the specified DMA module.
 882:Drivers/STM32F4xx_HAL_Driver/Src/stm32f4xx_hal_i2s_ex.c ****   * @retval None
 883:Drivers/STM32F4xx_HAL_Driver/Src/stm32f4xx_hal_i2s_ex.c ****   */
 884:Drivers/STM32F4xx_HAL_Driver/Src/stm32f4xx_hal_i2s_ex.c **** static void I2SEx_TxRxDMACplt(DMA_HandleTypeDef *hdma)
 885:Drivers/STM32F4xx_HAL_Driver/Src/stm32f4xx_hal_i2s_ex.c **** {
ARM GAS  /tmp/cc74GRYw.s 			page 17


 886:Drivers/STM32F4xx_HAL_Driver/Src/stm32f4xx_hal_i2s_ex.c ****   I2S_HandleTypeDef *hi2s = (I2S_HandleTypeDef *)((DMA_HandleTypeDef *)hdma)->Parent;
 887:Drivers/STM32F4xx_HAL_Driver/Src/stm32f4xx_hal_i2s_ex.c **** 
 888:Drivers/STM32F4xx_HAL_Driver/Src/stm32f4xx_hal_i2s_ex.c ****   /* If DMA is configured in DMA_NORMAL mode */
 889:Drivers/STM32F4xx_HAL_Driver/Src/stm32f4xx_hal_i2s_ex.c ****   if (hdma->Init.Mode == DMA_NORMAL)
 890:Drivers/STM32F4xx_HAL_Driver/Src/stm32f4xx_hal_i2s_ex.c ****   {
 891:Drivers/STM32F4xx_HAL_Driver/Src/stm32f4xx_hal_i2s_ex.c ****     if (((hi2s->Instance->I2SCFGR & SPI_I2SCFGR_I2SCFG) == I2S_MODE_MASTER_TX) || \
 892:Drivers/STM32F4xx_HAL_Driver/Src/stm32f4xx_hal_i2s_ex.c ****         ((hi2s->Instance->I2SCFGR & SPI_I2SCFGR_I2SCFG) == I2S_MODE_SLAVE_TX))
 893:Drivers/STM32F4xx_HAL_Driver/Src/stm32f4xx_hal_i2s_ex.c ****     /* Disable Tx & Rx DMA Requests */
 894:Drivers/STM32F4xx_HAL_Driver/Src/stm32f4xx_hal_i2s_ex.c ****     {
 895:Drivers/STM32F4xx_HAL_Driver/Src/stm32f4xx_hal_i2s_ex.c ****       CLEAR_BIT(I2SxEXT(hi2s->Instance)->CR2, SPI_CR2_RXDMAEN);
 896:Drivers/STM32F4xx_HAL_Driver/Src/stm32f4xx_hal_i2s_ex.c ****       CLEAR_BIT(hi2s->Instance->CR2, SPI_CR2_TXDMAEN);
 897:Drivers/STM32F4xx_HAL_Driver/Src/stm32f4xx_hal_i2s_ex.c ****     }
 898:Drivers/STM32F4xx_HAL_Driver/Src/stm32f4xx_hal_i2s_ex.c ****     else
 899:Drivers/STM32F4xx_HAL_Driver/Src/stm32f4xx_hal_i2s_ex.c ****     {
 900:Drivers/STM32F4xx_HAL_Driver/Src/stm32f4xx_hal_i2s_ex.c ****       CLEAR_BIT(hi2s->Instance->CR2, SPI_CR2_RXDMAEN);
 901:Drivers/STM32F4xx_HAL_Driver/Src/stm32f4xx_hal_i2s_ex.c ****       CLEAR_BIT(I2SxEXT(hi2s->Instance)->CR2, SPI_CR2_TXDMAEN);
 902:Drivers/STM32F4xx_HAL_Driver/Src/stm32f4xx_hal_i2s_ex.c ****     }
 903:Drivers/STM32F4xx_HAL_Driver/Src/stm32f4xx_hal_i2s_ex.c **** 
 904:Drivers/STM32F4xx_HAL_Driver/Src/stm32f4xx_hal_i2s_ex.c ****     hi2s->RxXferCount = 0U;
 905:Drivers/STM32F4xx_HAL_Driver/Src/stm32f4xx_hal_i2s_ex.c ****     hi2s->TxXferCount = 0U;
 906:Drivers/STM32F4xx_HAL_Driver/Src/stm32f4xx_hal_i2s_ex.c **** 
 907:Drivers/STM32F4xx_HAL_Driver/Src/stm32f4xx_hal_i2s_ex.c ****     hi2s->State = HAL_I2S_STATE_READY;
 908:Drivers/STM32F4xx_HAL_Driver/Src/stm32f4xx_hal_i2s_ex.c ****   }
 909:Drivers/STM32F4xx_HAL_Driver/Src/stm32f4xx_hal_i2s_ex.c **** 
 910:Drivers/STM32F4xx_HAL_Driver/Src/stm32f4xx_hal_i2s_ex.c ****   /* Call user TxRx complete callback */
 911:Drivers/STM32F4xx_HAL_Driver/Src/stm32f4xx_hal_i2s_ex.c **** #if (USE_HAL_I2S_REGISTER_CALLBACKS == 1U)
 912:Drivers/STM32F4xx_HAL_Driver/Src/stm32f4xx_hal_i2s_ex.c ****   hi2s->TxRxCpltCallback(hi2s);
 913:Drivers/STM32F4xx_HAL_Driver/Src/stm32f4xx_hal_i2s_ex.c **** #else
 914:Drivers/STM32F4xx_HAL_Driver/Src/stm32f4xx_hal_i2s_ex.c ****   HAL_I2SEx_TxRxCpltCallback(hi2s);
 915:Drivers/STM32F4xx_HAL_Driver/Src/stm32f4xx_hal_i2s_ex.c **** #endif /* USE_HAL_I2S_REGISTER_CALLBACKS */
 916:Drivers/STM32F4xx_HAL_Driver/Src/stm32f4xx_hal_i2s_ex.c **** }
 917:Drivers/STM32F4xx_HAL_Driver/Src/stm32f4xx_hal_i2s_ex.c **** 
 918:Drivers/STM32F4xx_HAL_Driver/Src/stm32f4xx_hal_i2s_ex.c **** /**
 919:Drivers/STM32F4xx_HAL_Driver/Src/stm32f4xx_hal_i2s_ex.c ****   * @brief  DMA I2S communication error callback
 920:Drivers/STM32F4xx_HAL_Driver/Src/stm32f4xx_hal_i2s_ex.c ****   * @param  hdma DMA handle
 921:Drivers/STM32F4xx_HAL_Driver/Src/stm32f4xx_hal_i2s_ex.c ****   * @retval None
 922:Drivers/STM32F4xx_HAL_Driver/Src/stm32f4xx_hal_i2s_ex.c ****   */
 923:Drivers/STM32F4xx_HAL_Driver/Src/stm32f4xx_hal_i2s_ex.c **** static void I2SEx_TxRxDMAError(DMA_HandleTypeDef *hdma)
 924:Drivers/STM32F4xx_HAL_Driver/Src/stm32f4xx_hal_i2s_ex.c **** {
 925:Drivers/STM32F4xx_HAL_Driver/Src/stm32f4xx_hal_i2s_ex.c ****   I2S_HandleTypeDef *hi2s = (I2S_HandleTypeDef *)((DMA_HandleTypeDef *)hdma)->Parent;
 926:Drivers/STM32F4xx_HAL_Driver/Src/stm32f4xx_hal_i2s_ex.c **** 
 927:Drivers/STM32F4xx_HAL_Driver/Src/stm32f4xx_hal_i2s_ex.c ****   /* Disable Rx and Tx DMA Request */
 928:Drivers/STM32F4xx_HAL_Driver/Src/stm32f4xx_hal_i2s_ex.c ****   CLEAR_BIT(hi2s->Instance->CR2, (SPI_CR2_RXDMAEN | SPI_CR2_TXDMAEN));
 929:Drivers/STM32F4xx_HAL_Driver/Src/stm32f4xx_hal_i2s_ex.c ****   CLEAR_BIT(I2SxEXT(hi2s->Instance)->CR2, (SPI_CR2_RXDMAEN | SPI_CR2_TXDMAEN));
 930:Drivers/STM32F4xx_HAL_Driver/Src/stm32f4xx_hal_i2s_ex.c **** 
 931:Drivers/STM32F4xx_HAL_Driver/Src/stm32f4xx_hal_i2s_ex.c ****   hi2s->TxXferCount = 0U;
 932:Drivers/STM32F4xx_HAL_Driver/Src/stm32f4xx_hal_i2s_ex.c ****   hi2s->RxXferCount = 0U;
 933:Drivers/STM32F4xx_HAL_Driver/Src/stm32f4xx_hal_i2s_ex.c **** 
 934:Drivers/STM32F4xx_HAL_Driver/Src/stm32f4xx_hal_i2s_ex.c ****   hi2s->State = HAL_I2S_STATE_READY;
 935:Drivers/STM32F4xx_HAL_Driver/Src/stm32f4xx_hal_i2s_ex.c **** 
 936:Drivers/STM32F4xx_HAL_Driver/Src/stm32f4xx_hal_i2s_ex.c ****   /* Set the error code and execute error callback*/
 937:Drivers/STM32F4xx_HAL_Driver/Src/stm32f4xx_hal_i2s_ex.c ****   SET_BIT(hi2s->ErrorCode, HAL_I2S_ERROR_DMA);
 938:Drivers/STM32F4xx_HAL_Driver/Src/stm32f4xx_hal_i2s_ex.c ****   /* Call user error callback */
 939:Drivers/STM32F4xx_HAL_Driver/Src/stm32f4xx_hal_i2s_ex.c **** #if (USE_HAL_I2S_REGISTER_CALLBACKS == 1U)
 940:Drivers/STM32F4xx_HAL_Driver/Src/stm32f4xx_hal_i2s_ex.c ****   hi2s->ErrorCallback(hi2s);
 941:Drivers/STM32F4xx_HAL_Driver/Src/stm32f4xx_hal_i2s_ex.c **** #else
 942:Drivers/STM32F4xx_HAL_Driver/Src/stm32f4xx_hal_i2s_ex.c ****   HAL_I2S_ErrorCallback(hi2s);
ARM GAS  /tmp/cc74GRYw.s 			page 18


 943:Drivers/STM32F4xx_HAL_Driver/Src/stm32f4xx_hal_i2s_ex.c **** #endif /* USE_HAL_I2S_REGISTER_CALLBACKS */
 944:Drivers/STM32F4xx_HAL_Driver/Src/stm32f4xx_hal_i2s_ex.c **** }
 945:Drivers/STM32F4xx_HAL_Driver/Src/stm32f4xx_hal_i2s_ex.c **** 
 946:Drivers/STM32F4xx_HAL_Driver/Src/stm32f4xx_hal_i2s_ex.c **** /**
 947:Drivers/STM32F4xx_HAL_Driver/Src/stm32f4xx_hal_i2s_ex.c ****   * @brief  I2S Full-Duplex IT handler transmit function
 948:Drivers/STM32F4xx_HAL_Driver/Src/stm32f4xx_hal_i2s_ex.c ****   * @param  hi2s I2S handle
 949:Drivers/STM32F4xx_HAL_Driver/Src/stm32f4xx_hal_i2s_ex.c ****   * @retval None
 950:Drivers/STM32F4xx_HAL_Driver/Src/stm32f4xx_hal_i2s_ex.c ****   */
 951:Drivers/STM32F4xx_HAL_Driver/Src/stm32f4xx_hal_i2s_ex.c **** static void I2SEx_TxISR_I2S(I2S_HandleTypeDef *hi2s)
 952:Drivers/STM32F4xx_HAL_Driver/Src/stm32f4xx_hal_i2s_ex.c **** {
 953:Drivers/STM32F4xx_HAL_Driver/Src/stm32f4xx_hal_i2s_ex.c ****   /* Write Data on DR register */
 954:Drivers/STM32F4xx_HAL_Driver/Src/stm32f4xx_hal_i2s_ex.c ****   hi2s->Instance->DR = (*hi2s->pTxBuffPtr++);
 955:Drivers/STM32F4xx_HAL_Driver/Src/stm32f4xx_hal_i2s_ex.c ****   hi2s->TxXferCount--;
 956:Drivers/STM32F4xx_HAL_Driver/Src/stm32f4xx_hal_i2s_ex.c **** 
 957:Drivers/STM32F4xx_HAL_Driver/Src/stm32f4xx_hal_i2s_ex.c ****   if (hi2s->TxXferCount == 0U)
 958:Drivers/STM32F4xx_HAL_Driver/Src/stm32f4xx_hal_i2s_ex.c ****   {
 959:Drivers/STM32F4xx_HAL_Driver/Src/stm32f4xx_hal_i2s_ex.c ****     /* Disable TXE and ERR interrupt */
 960:Drivers/STM32F4xx_HAL_Driver/Src/stm32f4xx_hal_i2s_ex.c ****     __HAL_I2S_DISABLE_IT(hi2s, (I2S_IT_TXE | I2S_IT_ERR));
 961:Drivers/STM32F4xx_HAL_Driver/Src/stm32f4xx_hal_i2s_ex.c **** 
 962:Drivers/STM32F4xx_HAL_Driver/Src/stm32f4xx_hal_i2s_ex.c ****     if (hi2s->RxXferCount == 0U)
 963:Drivers/STM32F4xx_HAL_Driver/Src/stm32f4xx_hal_i2s_ex.c ****     {
 964:Drivers/STM32F4xx_HAL_Driver/Src/stm32f4xx_hal_i2s_ex.c ****       hi2s->State = HAL_I2S_STATE_READY;
 965:Drivers/STM32F4xx_HAL_Driver/Src/stm32f4xx_hal_i2s_ex.c ****       /* Call user TxRx complete callback */
 966:Drivers/STM32F4xx_HAL_Driver/Src/stm32f4xx_hal_i2s_ex.c **** #if (USE_HAL_I2S_REGISTER_CALLBACKS == 1U)
 967:Drivers/STM32F4xx_HAL_Driver/Src/stm32f4xx_hal_i2s_ex.c ****       hi2s->TxRxCpltCallback(hi2s);
 968:Drivers/STM32F4xx_HAL_Driver/Src/stm32f4xx_hal_i2s_ex.c **** #else
 969:Drivers/STM32F4xx_HAL_Driver/Src/stm32f4xx_hal_i2s_ex.c ****       HAL_I2SEx_TxRxCpltCallback(hi2s);
 970:Drivers/STM32F4xx_HAL_Driver/Src/stm32f4xx_hal_i2s_ex.c **** #endif /* USE_HAL_I2S_REGISTER_CALLBACKS */
 971:Drivers/STM32F4xx_HAL_Driver/Src/stm32f4xx_hal_i2s_ex.c ****     }
 972:Drivers/STM32F4xx_HAL_Driver/Src/stm32f4xx_hal_i2s_ex.c ****   }
 973:Drivers/STM32F4xx_HAL_Driver/Src/stm32f4xx_hal_i2s_ex.c **** }
 974:Drivers/STM32F4xx_HAL_Driver/Src/stm32f4xx_hal_i2s_ex.c **** 
 975:Drivers/STM32F4xx_HAL_Driver/Src/stm32f4xx_hal_i2s_ex.c **** /**
 976:Drivers/STM32F4xx_HAL_Driver/Src/stm32f4xx_hal_i2s_ex.c ****   * @brief  I2SExt Full-Duplex IT handler transmit function
 977:Drivers/STM32F4xx_HAL_Driver/Src/stm32f4xx_hal_i2s_ex.c ****   * @param  hi2s I2S handle
 978:Drivers/STM32F4xx_HAL_Driver/Src/stm32f4xx_hal_i2s_ex.c ****   * @retval None
 979:Drivers/STM32F4xx_HAL_Driver/Src/stm32f4xx_hal_i2s_ex.c ****   */
 980:Drivers/STM32F4xx_HAL_Driver/Src/stm32f4xx_hal_i2s_ex.c **** static void I2SEx_TxISR_I2SExt(I2S_HandleTypeDef *hi2s)
 981:Drivers/STM32F4xx_HAL_Driver/Src/stm32f4xx_hal_i2s_ex.c **** {
 982:Drivers/STM32F4xx_HAL_Driver/Src/stm32f4xx_hal_i2s_ex.c ****   /* Write Data on DR register */
 983:Drivers/STM32F4xx_HAL_Driver/Src/stm32f4xx_hal_i2s_ex.c ****   I2SxEXT(hi2s->Instance)->DR = (*hi2s->pTxBuffPtr++);
 984:Drivers/STM32F4xx_HAL_Driver/Src/stm32f4xx_hal_i2s_ex.c ****   hi2s->TxXferCount--;
 985:Drivers/STM32F4xx_HAL_Driver/Src/stm32f4xx_hal_i2s_ex.c **** 
 986:Drivers/STM32F4xx_HAL_Driver/Src/stm32f4xx_hal_i2s_ex.c ****   if (hi2s->TxXferCount == 0U)
 987:Drivers/STM32F4xx_HAL_Driver/Src/stm32f4xx_hal_i2s_ex.c ****   {
 988:Drivers/STM32F4xx_HAL_Driver/Src/stm32f4xx_hal_i2s_ex.c ****     /* Disable I2Sext TXE and ERR interrupt */
 989:Drivers/STM32F4xx_HAL_Driver/Src/stm32f4xx_hal_i2s_ex.c ****     __HAL_I2SEXT_DISABLE_IT(hi2s, (I2S_IT_TXE | I2S_IT_ERR));
 990:Drivers/STM32F4xx_HAL_Driver/Src/stm32f4xx_hal_i2s_ex.c **** 
 991:Drivers/STM32F4xx_HAL_Driver/Src/stm32f4xx_hal_i2s_ex.c ****     if (hi2s->RxXferCount == 0U)
 992:Drivers/STM32F4xx_HAL_Driver/Src/stm32f4xx_hal_i2s_ex.c ****     {
 993:Drivers/STM32F4xx_HAL_Driver/Src/stm32f4xx_hal_i2s_ex.c ****       hi2s->State = HAL_I2S_STATE_READY;
 994:Drivers/STM32F4xx_HAL_Driver/Src/stm32f4xx_hal_i2s_ex.c ****       /* Call user TxRx complete callback */
 995:Drivers/STM32F4xx_HAL_Driver/Src/stm32f4xx_hal_i2s_ex.c **** #if (USE_HAL_I2S_REGISTER_CALLBACKS == 1U)
 996:Drivers/STM32F4xx_HAL_Driver/Src/stm32f4xx_hal_i2s_ex.c ****       hi2s->TxRxCpltCallback(hi2s);
 997:Drivers/STM32F4xx_HAL_Driver/Src/stm32f4xx_hal_i2s_ex.c **** #else
 998:Drivers/STM32F4xx_HAL_Driver/Src/stm32f4xx_hal_i2s_ex.c ****       HAL_I2SEx_TxRxCpltCallback(hi2s);
 999:Drivers/STM32F4xx_HAL_Driver/Src/stm32f4xx_hal_i2s_ex.c **** #endif /* USE_HAL_I2S_REGISTER_CALLBACKS */
ARM GAS  /tmp/cc74GRYw.s 			page 19


1000:Drivers/STM32F4xx_HAL_Driver/Src/stm32f4xx_hal_i2s_ex.c ****     }
1001:Drivers/STM32F4xx_HAL_Driver/Src/stm32f4xx_hal_i2s_ex.c ****   }
1002:Drivers/STM32F4xx_HAL_Driver/Src/stm32f4xx_hal_i2s_ex.c **** }
1003:Drivers/STM32F4xx_HAL_Driver/Src/stm32f4xx_hal_i2s_ex.c **** 
1004:Drivers/STM32F4xx_HAL_Driver/Src/stm32f4xx_hal_i2s_ex.c **** /**
1005:Drivers/STM32F4xx_HAL_Driver/Src/stm32f4xx_hal_i2s_ex.c ****   * @brief  I2S Full-Duplex IT handler receive function
1006:Drivers/STM32F4xx_HAL_Driver/Src/stm32f4xx_hal_i2s_ex.c ****   * @param  hi2s I2S handle
1007:Drivers/STM32F4xx_HAL_Driver/Src/stm32f4xx_hal_i2s_ex.c ****   * @retval None
1008:Drivers/STM32F4xx_HAL_Driver/Src/stm32f4xx_hal_i2s_ex.c ****   */
1009:Drivers/STM32F4xx_HAL_Driver/Src/stm32f4xx_hal_i2s_ex.c **** static void I2SEx_RxISR_I2S(I2S_HandleTypeDef *hi2s)
1010:Drivers/STM32F4xx_HAL_Driver/Src/stm32f4xx_hal_i2s_ex.c **** {
1011:Drivers/STM32F4xx_HAL_Driver/Src/stm32f4xx_hal_i2s_ex.c ****   /* Read Data from DR register */
1012:Drivers/STM32F4xx_HAL_Driver/Src/stm32f4xx_hal_i2s_ex.c ****   (*hi2s->pRxBuffPtr++) = hi2s->Instance->DR;
1013:Drivers/STM32F4xx_HAL_Driver/Src/stm32f4xx_hal_i2s_ex.c ****   hi2s->RxXferCount--;
1014:Drivers/STM32F4xx_HAL_Driver/Src/stm32f4xx_hal_i2s_ex.c **** 
1015:Drivers/STM32F4xx_HAL_Driver/Src/stm32f4xx_hal_i2s_ex.c ****   if (hi2s->RxXferCount == 0U)
1016:Drivers/STM32F4xx_HAL_Driver/Src/stm32f4xx_hal_i2s_ex.c ****   {
1017:Drivers/STM32F4xx_HAL_Driver/Src/stm32f4xx_hal_i2s_ex.c ****     /* Disable RXNE and ERR interrupt */
1018:Drivers/STM32F4xx_HAL_Driver/Src/stm32f4xx_hal_i2s_ex.c ****     __HAL_I2S_DISABLE_IT(hi2s, (I2S_IT_RXNE | I2S_IT_ERR));
1019:Drivers/STM32F4xx_HAL_Driver/Src/stm32f4xx_hal_i2s_ex.c **** 
1020:Drivers/STM32F4xx_HAL_Driver/Src/stm32f4xx_hal_i2s_ex.c ****     if (hi2s->TxXferCount == 0U)
1021:Drivers/STM32F4xx_HAL_Driver/Src/stm32f4xx_hal_i2s_ex.c ****     {
1022:Drivers/STM32F4xx_HAL_Driver/Src/stm32f4xx_hal_i2s_ex.c ****       hi2s->State = HAL_I2S_STATE_READY;
1023:Drivers/STM32F4xx_HAL_Driver/Src/stm32f4xx_hal_i2s_ex.c ****       /* Call user TxRx complete callback */
1024:Drivers/STM32F4xx_HAL_Driver/Src/stm32f4xx_hal_i2s_ex.c **** #if (USE_HAL_I2S_REGISTER_CALLBACKS == 1U)
1025:Drivers/STM32F4xx_HAL_Driver/Src/stm32f4xx_hal_i2s_ex.c ****       hi2s->TxRxCpltCallback(hi2s);
1026:Drivers/STM32F4xx_HAL_Driver/Src/stm32f4xx_hal_i2s_ex.c **** #else
1027:Drivers/STM32F4xx_HAL_Driver/Src/stm32f4xx_hal_i2s_ex.c ****       HAL_I2SEx_TxRxCpltCallback(hi2s);
1028:Drivers/STM32F4xx_HAL_Driver/Src/stm32f4xx_hal_i2s_ex.c **** #endif /* USE_HAL_I2S_REGISTER_CALLBACKS */
1029:Drivers/STM32F4xx_HAL_Driver/Src/stm32f4xx_hal_i2s_ex.c ****     }
1030:Drivers/STM32F4xx_HAL_Driver/Src/stm32f4xx_hal_i2s_ex.c ****   }
1031:Drivers/STM32F4xx_HAL_Driver/Src/stm32f4xx_hal_i2s_ex.c **** }
1032:Drivers/STM32F4xx_HAL_Driver/Src/stm32f4xx_hal_i2s_ex.c **** 
1033:Drivers/STM32F4xx_HAL_Driver/Src/stm32f4xx_hal_i2s_ex.c **** /**
1034:Drivers/STM32F4xx_HAL_Driver/Src/stm32f4xx_hal_i2s_ex.c ****   * @brief  I2SExt Full-Duplex IT handler receive function
1035:Drivers/STM32F4xx_HAL_Driver/Src/stm32f4xx_hal_i2s_ex.c ****   * @param  hi2s I2S handle
1036:Drivers/STM32F4xx_HAL_Driver/Src/stm32f4xx_hal_i2s_ex.c ****   * @retval None
1037:Drivers/STM32F4xx_HAL_Driver/Src/stm32f4xx_hal_i2s_ex.c ****   */
1038:Drivers/STM32F4xx_HAL_Driver/Src/stm32f4xx_hal_i2s_ex.c **** static void I2SEx_RxISR_I2SExt(I2S_HandleTypeDef *hi2s)
1039:Drivers/STM32F4xx_HAL_Driver/Src/stm32f4xx_hal_i2s_ex.c **** {
1040:Drivers/STM32F4xx_HAL_Driver/Src/stm32f4xx_hal_i2s_ex.c ****   /* Read Data from DR register */
1041:Drivers/STM32F4xx_HAL_Driver/Src/stm32f4xx_hal_i2s_ex.c ****   (*hi2s->pRxBuffPtr++) = I2SxEXT(hi2s->Instance)->DR;
1042:Drivers/STM32F4xx_HAL_Driver/Src/stm32f4xx_hal_i2s_ex.c ****   hi2s->RxXferCount--;
1043:Drivers/STM32F4xx_HAL_Driver/Src/stm32f4xx_hal_i2s_ex.c **** 
1044:Drivers/STM32F4xx_HAL_Driver/Src/stm32f4xx_hal_i2s_ex.c ****   if (hi2s->RxXferCount == 0U)
1045:Drivers/STM32F4xx_HAL_Driver/Src/stm32f4xx_hal_i2s_ex.c ****   {
1046:Drivers/STM32F4xx_HAL_Driver/Src/stm32f4xx_hal_i2s_ex.c ****     /* Disable I2Sext RXNE and ERR interrupt */
1047:Drivers/STM32F4xx_HAL_Driver/Src/stm32f4xx_hal_i2s_ex.c ****     __HAL_I2SEXT_DISABLE_IT(hi2s, (I2S_IT_RXNE | I2S_IT_ERR));
1048:Drivers/STM32F4xx_HAL_Driver/Src/stm32f4xx_hal_i2s_ex.c **** 
1049:Drivers/STM32F4xx_HAL_Driver/Src/stm32f4xx_hal_i2s_ex.c ****     if (hi2s->TxXferCount == 0U)
1050:Drivers/STM32F4xx_HAL_Driver/Src/stm32f4xx_hal_i2s_ex.c ****     {
1051:Drivers/STM32F4xx_HAL_Driver/Src/stm32f4xx_hal_i2s_ex.c ****       hi2s->State = HAL_I2S_STATE_READY;
1052:Drivers/STM32F4xx_HAL_Driver/Src/stm32f4xx_hal_i2s_ex.c ****       /* Call user TxRx complete callback */
1053:Drivers/STM32F4xx_HAL_Driver/Src/stm32f4xx_hal_i2s_ex.c **** #if (USE_HAL_I2S_REGISTER_CALLBACKS == 1U)
1054:Drivers/STM32F4xx_HAL_Driver/Src/stm32f4xx_hal_i2s_ex.c ****       hi2s->TxRxCpltCallback(hi2s);
1055:Drivers/STM32F4xx_HAL_Driver/Src/stm32f4xx_hal_i2s_ex.c **** #else
1056:Drivers/STM32F4xx_HAL_Driver/Src/stm32f4xx_hal_i2s_ex.c ****       HAL_I2SEx_TxRxCpltCallback(hi2s);
ARM GAS  /tmp/cc74GRYw.s 			page 20


1057:Drivers/STM32F4xx_HAL_Driver/Src/stm32f4xx_hal_i2s_ex.c **** #endif /* USE_HAL_I2S_REGISTER_CALLBACKS */
1058:Drivers/STM32F4xx_HAL_Driver/Src/stm32f4xx_hal_i2s_ex.c ****     }
1059:Drivers/STM32F4xx_HAL_Driver/Src/stm32f4xx_hal_i2s_ex.c ****   }
1060:Drivers/STM32F4xx_HAL_Driver/Src/stm32f4xx_hal_i2s_ex.c **** }
1061:Drivers/STM32F4xx_HAL_Driver/Src/stm32f4xx_hal_i2s_ex.c **** 
1062:Drivers/STM32F4xx_HAL_Driver/Src/stm32f4xx_hal_i2s_ex.c **** /**
1063:Drivers/STM32F4xx_HAL_Driver/Src/stm32f4xx_hal_i2s_ex.c ****   * @brief This function handles I2S Communication Timeout.
1064:Drivers/STM32F4xx_HAL_Driver/Src/stm32f4xx_hal_i2s_ex.c ****   * @param hi2s I2S handle
1065:Drivers/STM32F4xx_HAL_Driver/Src/stm32f4xx_hal_i2s_ex.c ****   * @param Flag Flag checked
1066:Drivers/STM32F4xx_HAL_Driver/Src/stm32f4xx_hal_i2s_ex.c ****   * @param State Value of the flag expected
1067:Drivers/STM32F4xx_HAL_Driver/Src/stm32f4xx_hal_i2s_ex.c ****   * @param Timeout Duration of the timeout
1068:Drivers/STM32F4xx_HAL_Driver/Src/stm32f4xx_hal_i2s_ex.c ****   * @param i2sUsed I2S instance reference
1069:Drivers/STM32F4xx_HAL_Driver/Src/stm32f4xx_hal_i2s_ex.c ****   * @retval HAL status
1070:Drivers/STM32F4xx_HAL_Driver/Src/stm32f4xx_hal_i2s_ex.c ****   */
1071:Drivers/STM32F4xx_HAL_Driver/Src/stm32f4xx_hal_i2s_ex.c **** static HAL_StatusTypeDef I2SEx_FullDuplexWaitFlagStateUntilTimeout(I2S_HandleTypeDef *hi2s,
1072:Drivers/STM32F4xx_HAL_Driver/Src/stm32f4xx_hal_i2s_ex.c ****                                                                    uint32_t Flag,
1073:Drivers/STM32F4xx_HAL_Driver/Src/stm32f4xx_hal_i2s_ex.c ****                                                                    uint32_t State,
1074:Drivers/STM32F4xx_HAL_Driver/Src/stm32f4xx_hal_i2s_ex.c ****                                                                    uint32_t Timeout,
1075:Drivers/STM32F4xx_HAL_Driver/Src/stm32f4xx_hal_i2s_ex.c ****                                                                    I2S_UseTypeDef i2sUsed)
1076:Drivers/STM32F4xx_HAL_Driver/Src/stm32f4xx_hal_i2s_ex.c **** {
  29              		.loc 1 1076 1 view -0
  30              		.cfi_startproc
  31              		@ args = 4, pretend = 0, frame = 0
  32              		@ frame_needed = 0, uses_anonymous_args = 0
  33              		.loc 1 1076 1 is_stmt 0 view .LVU1
  34 0000 2DE9F047 		push	{r4, r5, r6, r7, r8, r9, r10, lr}
  35              		.cfi_def_cfa_offset 32
  36              		.cfi_offset 4, -32
  37              		.cfi_offset 5, -28
  38              		.cfi_offset 6, -24
  39              		.cfi_offset 7, -20
  40              		.cfi_offset 8, -16
  41              		.cfi_offset 9, -12
  42              		.cfi_offset 10, -8
  43              		.cfi_offset 14, -4
  44 0004 0646     		mov	r6, r0
  45 0006 0F46     		mov	r7, r1
  46 0008 9046     		mov	r8, r2
  47 000a 1D46     		mov	r5, r3
  48 000c 9DF820A0 		ldrb	r10, [sp, #32]	@ zero_extendqisi2
1077:Drivers/STM32F4xx_HAL_Driver/Src/stm32f4xx_hal_i2s_ex.c ****   uint32_t tickstart = HAL_GetTick();
  49              		.loc 1 1077 3 is_stmt 1 view .LVU2
  50              		.loc 1 1077 24 is_stmt 0 view .LVU3
  51 0010 FFF7FEFF 		bl	HAL_GetTick
  52              	.LVL1:
  53              		.loc 1 1077 24 view .LVU4
  54 0014 8146     		mov	r9, r0
  55              	.LVL2:
1078:Drivers/STM32F4xx_HAL_Driver/Src/stm32f4xx_hal_i2s_ex.c **** 
1079:Drivers/STM32F4xx_HAL_Driver/Src/stm32f4xx_hal_i2s_ex.c ****   if (i2sUsed == I2S_USE_I2S)
  56              		.loc 1 1079 3 is_stmt 1 view .LVU5
  57              		.loc 1 1079 6 is_stmt 0 view .LVU6
  58 0016 BAF1000F 		cmp	r10, #0
  59 001a 15D0     		beq	.L4
  60 001c 36E0     		b	.L9
  61              	.LVL3:
  62              	.L19:
ARM GAS  /tmp/cc74GRYw.s 			page 21


1080:Drivers/STM32F4xx_HAL_Driver/Src/stm32f4xx_hal_i2s_ex.c ****   {
1081:Drivers/STM32F4xx_HAL_Driver/Src/stm32f4xx_hal_i2s_ex.c ****     /* Wait until flag is reset */
1082:Drivers/STM32F4xx_HAL_Driver/Src/stm32f4xx_hal_i2s_ex.c ****     while (((__HAL_I2S_GET_FLAG(hi2s, Flag)) ? SET : RESET) != State)
1083:Drivers/STM32F4xx_HAL_Driver/Src/stm32f4xx_hal_i2s_ex.c ****     {
1084:Drivers/STM32F4xx_HAL_Driver/Src/stm32f4xx_hal_i2s_ex.c ****       if (Timeout != HAL_MAX_DELAY)
1085:Drivers/STM32F4xx_HAL_Driver/Src/stm32f4xx_hal_i2s_ex.c ****       {
1086:Drivers/STM32F4xx_HAL_Driver/Src/stm32f4xx_hal_i2s_ex.c ****         if ((Timeout == 0U) || ((HAL_GetTick() - tickstart) > Timeout))
  63              		.loc 1 1086 9 is_stmt 1 view .LVU7
  64              		.loc 1 1086 12 is_stmt 0 view .LVU8
  65 001e 2DB1     		cbz	r5, .L5
  66              		.loc 1 1086 34 discriminator 1 view .LVU9
  67 0020 FFF7FEFF 		bl	HAL_GetTick
  68              	.LVL4:
  69              		.loc 1 1086 48 discriminator 1 view .LVU10
  70 0024 A0EB0900 		sub	r0, r0, r9
  71              		.loc 1 1086 29 discriminator 1 view .LVU11
  72 0028 A842     		cmp	r0, r5
  73 002a 0DD9     		bls	.L4
  74              	.L5:
1087:Drivers/STM32F4xx_HAL_Driver/Src/stm32f4xx_hal_i2s_ex.c ****         {
1088:Drivers/STM32F4xx_HAL_Driver/Src/stm32f4xx_hal_i2s_ex.c ****           /* Set the I2S State ready */
1089:Drivers/STM32F4xx_HAL_Driver/Src/stm32f4xx_hal_i2s_ex.c ****           hi2s->State = HAL_I2S_STATE_READY;
  75              		.loc 1 1089 11 is_stmt 1 view .LVU12
  76              		.loc 1 1089 23 is_stmt 0 view .LVU13
  77 002c 0123     		movs	r3, #1
  78 002e 86F84130 		strb	r3, [r6, #65]
1090:Drivers/STM32F4xx_HAL_Driver/Src/stm32f4xx_hal_i2s_ex.c **** 
1091:Drivers/STM32F4xx_HAL_Driver/Src/stm32f4xx_hal_i2s_ex.c ****           /* Process Unlocked */
1092:Drivers/STM32F4xx_HAL_Driver/Src/stm32f4xx_hal_i2s_ex.c ****           __HAL_UNLOCK(hi2s);
  79              		.loc 1 1092 11 is_stmt 1 view .LVU14
  80              		.loc 1 1092 11 view .LVU15
  81 0032 0023     		movs	r3, #0
  82 0034 86F84030 		strb	r3, [r6, #64]
  83              		.loc 1 1092 11 view .LVU16
1093:Drivers/STM32F4xx_HAL_Driver/Src/stm32f4xx_hal_i2s_ex.c **** 
1094:Drivers/STM32F4xx_HAL_Driver/Src/stm32f4xx_hal_i2s_ex.c ****           return HAL_TIMEOUT;
  84              		.loc 1 1094 11 view .LVU17
  85              		.loc 1 1094 18 is_stmt 0 view .LVU18
  86 0038 0320     		movs	r0, #3
  87 003a 0DE0     		b	.L6
  88              	.L20:
1082:Drivers/STM32F4xx_HAL_Driver/Src/stm32f4xx_hal_i2s_ex.c ****     {
  89              		.loc 1 1082 52 discriminator 1 view .LVU19
  90 003c 0123     		movs	r3, #1
  91              	.L7:
1082:Drivers/STM32F4xx_HAL_Driver/Src/stm32f4xx_hal_i2s_ex.c ****     {
  92              		.loc 1 1082 61 discriminator 4 view .LVU20
  93 003e 4345     		cmp	r3, r8
  94 0040 09D0     		beq	.L18
1084:Drivers/STM32F4xx_HAL_Driver/Src/stm32f4xx_hal_i2s_ex.c ****       {
  95              		.loc 1 1084 7 is_stmt 1 view .LVU21
1084:Drivers/STM32F4xx_HAL_Driver/Src/stm32f4xx_hal_i2s_ex.c ****       {
  96              		.loc 1 1084 10 is_stmt 0 view .LVU22
  97 0042 B5F1FF3F 		cmp	r5, #-1
  98 0046 EAD1     		bne	.L19
  99              	.L4:
1082:Drivers/STM32F4xx_HAL_Driver/Src/stm32f4xx_hal_i2s_ex.c ****     {
ARM GAS  /tmp/cc74GRYw.s 			page 22


 100              		.loc 1 1082 61 is_stmt 1 view .LVU23
1082:Drivers/STM32F4xx_HAL_Driver/Src/stm32f4xx_hal_i2s_ex.c ****     {
 101              		.loc 1 1082 14 is_stmt 0 view .LVU24
 102 0048 3368     		ldr	r3, [r6]
 103 004a 9C68     		ldr	r4, [r3, #8]
1082:Drivers/STM32F4xx_HAL_Driver/Src/stm32f4xx_hal_i2s_ex.c ****     {
 104              		.loc 1 1082 52 view .LVU25
 105 004c 37EA0404 		bics	r4, r7, r4
 106 0050 F4D0     		beq	.L20
1082:Drivers/STM32F4xx_HAL_Driver/Src/stm32f4xx_hal_i2s_ex.c ****     {
 107              		.loc 1 1082 52 discriminator 2 view .LVU26
 108 0052 0023     		movs	r3, #0
 109 0054 F3E7     		b	.L7
 110              	.L18:
1095:Drivers/STM32F4xx_HAL_Driver/Src/stm32f4xx_hal_i2s_ex.c ****         }
1096:Drivers/STM32F4xx_HAL_Driver/Src/stm32f4xx_hal_i2s_ex.c ****       }
1097:Drivers/STM32F4xx_HAL_Driver/Src/stm32f4xx_hal_i2s_ex.c ****     }
1098:Drivers/STM32F4xx_HAL_Driver/Src/stm32f4xx_hal_i2s_ex.c ****   }
1099:Drivers/STM32F4xx_HAL_Driver/Src/stm32f4xx_hal_i2s_ex.c ****   else /* i2sUsed == I2S_USE_I2SEXT */
1100:Drivers/STM32F4xx_HAL_Driver/Src/stm32f4xx_hal_i2s_ex.c ****   {
1101:Drivers/STM32F4xx_HAL_Driver/Src/stm32f4xx_hal_i2s_ex.c ****     /* Wait until flag is reset */
1102:Drivers/STM32F4xx_HAL_Driver/Src/stm32f4xx_hal_i2s_ex.c ****     while (((__HAL_I2SEXT_GET_FLAG(hi2s, Flag)) ? SET : RESET) != State)
1103:Drivers/STM32F4xx_HAL_Driver/Src/stm32f4xx_hal_i2s_ex.c ****     {
1104:Drivers/STM32F4xx_HAL_Driver/Src/stm32f4xx_hal_i2s_ex.c ****       if (Timeout != HAL_MAX_DELAY)
1105:Drivers/STM32F4xx_HAL_Driver/Src/stm32f4xx_hal_i2s_ex.c ****       {
1106:Drivers/STM32F4xx_HAL_Driver/Src/stm32f4xx_hal_i2s_ex.c ****         if ((Timeout == 0U) || ((HAL_GetTick() - tickstart) > Timeout))
1107:Drivers/STM32F4xx_HAL_Driver/Src/stm32f4xx_hal_i2s_ex.c ****         {
1108:Drivers/STM32F4xx_HAL_Driver/Src/stm32f4xx_hal_i2s_ex.c ****           /* Set the I2S State ready */
1109:Drivers/STM32F4xx_HAL_Driver/Src/stm32f4xx_hal_i2s_ex.c ****           hi2s->State = HAL_I2S_STATE_READY;
1110:Drivers/STM32F4xx_HAL_Driver/Src/stm32f4xx_hal_i2s_ex.c **** 
1111:Drivers/STM32F4xx_HAL_Driver/Src/stm32f4xx_hal_i2s_ex.c ****           /* Process Unlocked */
1112:Drivers/STM32F4xx_HAL_Driver/Src/stm32f4xx_hal_i2s_ex.c ****           __HAL_UNLOCK(hi2s);
1113:Drivers/STM32F4xx_HAL_Driver/Src/stm32f4xx_hal_i2s_ex.c **** 
1114:Drivers/STM32F4xx_HAL_Driver/Src/stm32f4xx_hal_i2s_ex.c ****           return HAL_TIMEOUT;
1115:Drivers/STM32F4xx_HAL_Driver/Src/stm32f4xx_hal_i2s_ex.c ****         }
1116:Drivers/STM32F4xx_HAL_Driver/Src/stm32f4xx_hal_i2s_ex.c ****       }
1117:Drivers/STM32F4xx_HAL_Driver/Src/stm32f4xx_hal_i2s_ex.c ****     }
1118:Drivers/STM32F4xx_HAL_Driver/Src/stm32f4xx_hal_i2s_ex.c ****   }
1119:Drivers/STM32F4xx_HAL_Driver/Src/stm32f4xx_hal_i2s_ex.c ****   return HAL_OK;
 111              		.loc 1 1119 10 view .LVU27
 112 0056 5046     		mov	r0, r10
 113              	.L6:
1120:Drivers/STM32F4xx_HAL_Driver/Src/stm32f4xx_hal_i2s_ex.c **** }
 114              		.loc 1 1120 1 view .LVU28
 115 0058 BDE8F087 		pop	{r4, r5, r6, r7, r8, r9, r10, pc}
 116              	.LVL5:
 117              	.L22:
1106:Drivers/STM32F4xx_HAL_Driver/Src/stm32f4xx_hal_i2s_ex.c ****         {
 118              		.loc 1 1106 9 is_stmt 1 view .LVU29
1106:Drivers/STM32F4xx_HAL_Driver/Src/stm32f4xx_hal_i2s_ex.c ****         {
 119              		.loc 1 1106 12 is_stmt 0 view .LVU30
 120 005c 2DB1     		cbz	r5, .L10
1106:Drivers/STM32F4xx_HAL_Driver/Src/stm32f4xx_hal_i2s_ex.c ****         {
 121              		.loc 1 1106 34 discriminator 1 view .LVU31
 122 005e FFF7FEFF 		bl	HAL_GetTick
 123              	.LVL6:
1106:Drivers/STM32F4xx_HAL_Driver/Src/stm32f4xx_hal_i2s_ex.c ****         {
ARM GAS  /tmp/cc74GRYw.s 			page 23


 124              		.loc 1 1106 48 discriminator 1 view .LVU32
 125 0062 A0EB0900 		sub	r0, r0, r9
1106:Drivers/STM32F4xx_HAL_Driver/Src/stm32f4xx_hal_i2s_ex.c ****         {
 126              		.loc 1 1106 29 discriminator 1 view .LVU33
 127 0066 A842     		cmp	r0, r5
 128 0068 10D9     		bls	.L9
 129              	.L10:
1109:Drivers/STM32F4xx_HAL_Driver/Src/stm32f4xx_hal_i2s_ex.c **** 
 130              		.loc 1 1109 11 is_stmt 1 view .LVU34
1109:Drivers/STM32F4xx_HAL_Driver/Src/stm32f4xx_hal_i2s_ex.c **** 
 131              		.loc 1 1109 23 is_stmt 0 view .LVU35
 132 006a 0123     		movs	r3, #1
 133 006c 86F84130 		strb	r3, [r6, #65]
1112:Drivers/STM32F4xx_HAL_Driver/Src/stm32f4xx_hal_i2s_ex.c **** 
 134              		.loc 1 1112 11 is_stmt 1 view .LVU36
1112:Drivers/STM32F4xx_HAL_Driver/Src/stm32f4xx_hal_i2s_ex.c **** 
 135              		.loc 1 1112 11 view .LVU37
 136 0070 0023     		movs	r3, #0
 137 0072 86F84030 		strb	r3, [r6, #64]
1112:Drivers/STM32F4xx_HAL_Driver/Src/stm32f4xx_hal_i2s_ex.c **** 
 138              		.loc 1 1112 11 view .LVU38
1114:Drivers/STM32F4xx_HAL_Driver/Src/stm32f4xx_hal_i2s_ex.c ****         }
 139              		.loc 1 1114 11 view .LVU39
1114:Drivers/STM32F4xx_HAL_Driver/Src/stm32f4xx_hal_i2s_ex.c ****         }
 140              		.loc 1 1114 18 is_stmt 0 view .LVU40
 141 0076 0320     		movs	r0, #3
 142 0078 EEE7     		b	.L6
 143              	.L23:
1102:Drivers/STM32F4xx_HAL_Driver/Src/stm32f4xx_hal_i2s_ex.c ****     {
 144              		.loc 1 1102 14 discriminator 1 view .LVU41
 145 007a A3F58063 		sub	r3, r3, #1024
 146 007e 0BE0     		b	.L11
 147              	.L24:
1102:Drivers/STM32F4xx_HAL_Driver/Src/stm32f4xx_hal_i2s_ex.c ****     {
 148              		.loc 1 1102 55 discriminator 5 view .LVU42
 149 0080 0123     		movs	r3, #1
 150              	.L12:
1102:Drivers/STM32F4xx_HAL_Driver/Src/stm32f4xx_hal_i2s_ex.c ****     {
 151              		.loc 1 1102 64 discriminator 8 view .LVU43
 152 0082 4345     		cmp	r3, r8
 153 0084 0ED0     		beq	.L21
1104:Drivers/STM32F4xx_HAL_Driver/Src/stm32f4xx_hal_i2s_ex.c ****       {
 154              		.loc 1 1104 7 is_stmt 1 view .LVU44
1104:Drivers/STM32F4xx_HAL_Driver/Src/stm32f4xx_hal_i2s_ex.c ****       {
 155              		.loc 1 1104 10 is_stmt 0 view .LVU45
 156 0086 B5F1FF3F 		cmp	r5, #-1
 157 008a E7D1     		bne	.L22
 158              	.L9:
1102:Drivers/STM32F4xx_HAL_Driver/Src/stm32f4xx_hal_i2s_ex.c ****     {
 159              		.loc 1 1102 64 is_stmt 1 view .LVU46
1102:Drivers/STM32F4xx_HAL_Driver/Src/stm32f4xx_hal_i2s_ex.c ****     {
 160              		.loc 1 1102 14 is_stmt 0 view .LVU47
 161 008c 3268     		ldr	r2, [r6]
 162 008e 064B     		ldr	r3, .L25
 163 0090 9A42     		cmp	r2, r3
 164 0092 F2D0     		beq	.L23
1102:Drivers/STM32F4xx_HAL_Driver/Src/stm32f4xx_hal_i2s_ex.c ****     {
ARM GAS  /tmp/cc74GRYw.s 			page 24


 165              		.loc 1 1102 14 discriminator 2 view .LVU48
 166 0094 4FF04023 		mov	r3, #1073758208
 167              	.L11:
1102:Drivers/STM32F4xx_HAL_Driver/Src/stm32f4xx_hal_i2s_ex.c ****     {
 168              		.loc 1 1102 14 discriminator 4 view .LVU49
 169 0098 9C68     		ldr	r4, [r3, #8]
1102:Drivers/STM32F4xx_HAL_Driver/Src/stm32f4xx_hal_i2s_ex.c ****     {
 170              		.loc 1 1102 55 discriminator 4 view .LVU50
 171 009a 37EA0404 		bics	r4, r7, r4
 172 009e EFD0     		beq	.L24
1102:Drivers/STM32F4xx_HAL_Driver/Src/stm32f4xx_hal_i2s_ex.c ****     {
 173              		.loc 1 1102 55 discriminator 6 view .LVU51
 174 00a0 0023     		movs	r3, #0
 175 00a2 EEE7     		b	.L12
 176              	.L21:
1119:Drivers/STM32F4xx_HAL_Driver/Src/stm32f4xx_hal_i2s_ex.c **** }
 177              		.loc 1 1119 10 view .LVU52
 178 00a4 0020     		movs	r0, #0
 179 00a6 D7E7     		b	.L6
 180              	.L26:
 181              		.align	2
 182              	.L25:
 183 00a8 00380040 		.word	1073756160
 184              		.cfi_endproc
 185              	.LFE143:
 187              		.section	.text.I2SEx_TxRxDMAError,"ax",%progbits
 188              		.align	1
 189              		.syntax unified
 190              		.thumb
 191              		.thumb_func
 193              	I2SEx_TxRxDMAError:
 194              	.LVL7:
 195              	.LFB138:
 924:Drivers/STM32F4xx_HAL_Driver/Src/stm32f4xx_hal_i2s_ex.c ****   I2S_HandleTypeDef *hi2s = (I2S_HandleTypeDef *)((DMA_HandleTypeDef *)hdma)->Parent;
 196              		.loc 1 924 1 is_stmt 1 view -0
 197              		.cfi_startproc
 198              		@ args = 0, pretend = 0, frame = 0
 199              		@ frame_needed = 0, uses_anonymous_args = 0
 924:Drivers/STM32F4xx_HAL_Driver/Src/stm32f4xx_hal_i2s_ex.c ****   I2S_HandleTypeDef *hi2s = (I2S_HandleTypeDef *)((DMA_HandleTypeDef *)hdma)->Parent;
 200              		.loc 1 924 1 is_stmt 0 view .LVU54
 201 0000 08B5     		push	{r3, lr}
 202              		.cfi_def_cfa_offset 8
 203              		.cfi_offset 3, -8
 204              		.cfi_offset 14, -4
 925:Drivers/STM32F4xx_HAL_Driver/Src/stm32f4xx_hal_i2s_ex.c **** 
 205              		.loc 1 925 3 is_stmt 1 view .LVU55
 925:Drivers/STM32F4xx_HAL_Driver/Src/stm32f4xx_hal_i2s_ex.c **** 
 206              		.loc 1 925 22 is_stmt 0 view .LVU56
 207 0002 806B     		ldr	r0, [r0, #56]
 208              	.LVL8:
 928:Drivers/STM32F4xx_HAL_Driver/Src/stm32f4xx_hal_i2s_ex.c ****   CLEAR_BIT(I2SxEXT(hi2s->Instance)->CR2, (SPI_CR2_RXDMAEN | SPI_CR2_TXDMAEN));
 209              		.loc 1 928 3 is_stmt 1 view .LVU57
 210 0004 0268     		ldr	r2, [r0]
 211 0006 5368     		ldr	r3, [r2, #4]
 212 0008 23F00303 		bic	r3, r3, #3
 213 000c 5360     		str	r3, [r2, #4]
 929:Drivers/STM32F4xx_HAL_Driver/Src/stm32f4xx_hal_i2s_ex.c **** 
ARM GAS  /tmp/cc74GRYw.s 			page 25


 214              		.loc 1 929 3 view .LVU58
 215 000e 0268     		ldr	r2, [r0]
 216 0010 0B4B     		ldr	r3, .L32
 217 0012 9A42     		cmp	r2, r3
 218 0014 12D0     		beq	.L31
 929:Drivers/STM32F4xx_HAL_Driver/Src/stm32f4xx_hal_i2s_ex.c **** 
 219              		.loc 1 929 3 is_stmt 0 discriminator 2 view .LVU59
 220 0016 4FF04022 		mov	r2, #1073758208
 221              	.L28:
 929:Drivers/STM32F4xx_HAL_Driver/Src/stm32f4xx_hal_i2s_ex.c **** 
 222              		.loc 1 929 3 discriminator 4 view .LVU60
 223 001a 5368     		ldr	r3, [r2, #4]
 929:Drivers/STM32F4xx_HAL_Driver/Src/stm32f4xx_hal_i2s_ex.c **** 
 224              		.loc 1 929 3 discriminator 8 view .LVU61
 225 001c 23F00303 		bic	r3, r3, #3
 226 0020 5360     		str	r3, [r2, #4]
 931:Drivers/STM32F4xx_HAL_Driver/Src/stm32f4xx_hal_i2s_ex.c ****   hi2s->RxXferCount = 0U;
 227              		.loc 1 931 3 is_stmt 1 view .LVU62
 931:Drivers/STM32F4xx_HAL_Driver/Src/stm32f4xx_hal_i2s_ex.c ****   hi2s->RxXferCount = 0U;
 228              		.loc 1 931 21 is_stmt 0 view .LVU63
 229 0022 0023     		movs	r3, #0
 230 0024 4385     		strh	r3, [r0, #42]	@ movhi
 932:Drivers/STM32F4xx_HAL_Driver/Src/stm32f4xx_hal_i2s_ex.c **** 
 231              		.loc 1 932 3 is_stmt 1 view .LVU64
 932:Drivers/STM32F4xx_HAL_Driver/Src/stm32f4xx_hal_i2s_ex.c **** 
 232              		.loc 1 932 21 is_stmt 0 view .LVU65
 233 0026 4386     		strh	r3, [r0, #50]	@ movhi
 934:Drivers/STM32F4xx_HAL_Driver/Src/stm32f4xx_hal_i2s_ex.c **** 
 234              		.loc 1 934 3 is_stmt 1 view .LVU66
 934:Drivers/STM32F4xx_HAL_Driver/Src/stm32f4xx_hal_i2s_ex.c **** 
 235              		.loc 1 934 15 is_stmt 0 view .LVU67
 236 0028 0123     		movs	r3, #1
 237 002a 80F84130 		strb	r3, [r0, #65]
 937:Drivers/STM32F4xx_HAL_Driver/Src/stm32f4xx_hal_i2s_ex.c ****   /* Call user error callback */
 238              		.loc 1 937 3 is_stmt 1 view .LVU68
 239 002e 436C     		ldr	r3, [r0, #68]
 240 0030 43F00803 		orr	r3, r3, #8
 241 0034 4364     		str	r3, [r0, #68]
 942:Drivers/STM32F4xx_HAL_Driver/Src/stm32f4xx_hal_i2s_ex.c **** #endif /* USE_HAL_I2S_REGISTER_CALLBACKS */
 242              		.loc 1 942 3 view .LVU69
 243 0036 FFF7FEFF 		bl	HAL_I2S_ErrorCallback
 244              	.LVL9:
 944:Drivers/STM32F4xx_HAL_Driver/Src/stm32f4xx_hal_i2s_ex.c **** 
 245              		.loc 1 944 1 is_stmt 0 view .LVU70
 246 003a 08BD     		pop	{r3, pc}
 247              	.LVL10:
 248              	.L31:
 929:Drivers/STM32F4xx_HAL_Driver/Src/stm32f4xx_hal_i2s_ex.c **** 
 249              		.loc 1 929 3 discriminator 1 view .LVU71
 250 003c 014A     		ldr	r2, .L32+4
 251 003e ECE7     		b	.L28
 252              	.L33:
 253              		.align	2
 254              	.L32:
 255 0040 00380040 		.word	1073756160
 256 0044 00340040 		.word	1073755136
 257              		.cfi_endproc
ARM GAS  /tmp/cc74GRYw.s 			page 26


 258              	.LFE138:
 260              		.section	.text.HAL_I2SEx_TransmitReceive,"ax",%progbits
 261              		.align	1
 262              		.global	HAL_I2SEx_TransmitReceive
 263              		.syntax unified
 264              		.thumb
 265              		.thumb_func
 267              	HAL_I2SEx_TransmitReceive:
 268              	.LVL11:
 269              	.LFB130:
 211:Drivers/STM32F4xx_HAL_Driver/Src/stm32f4xx_hal_i2s_ex.c ****   uint32_t tmp1 = 0U;
 270              		.loc 1 211 1 is_stmt 1 view -0
 271              		.cfi_startproc
 272              		@ args = 4, pretend = 0, frame = 24
 273              		@ frame_needed = 0, uses_anonymous_args = 0
 211:Drivers/STM32F4xx_HAL_Driver/Src/stm32f4xx_hal_i2s_ex.c ****   uint32_t tmp1 = 0U;
 274              		.loc 1 211 1 is_stmt 0 view .LVU73
 275 0000 2DE9F043 		push	{r4, r5, r6, r7, r8, r9, lr}
 276              		.cfi_def_cfa_offset 28
 277              		.cfi_offset 4, -28
 278              		.cfi_offset 5, -24
 279              		.cfi_offset 6, -20
 280              		.cfi_offset 7, -16
 281              		.cfi_offset 8, -12
 282              		.cfi_offset 9, -8
 283              		.cfi_offset 14, -4
 284 0004 89B0     		sub	sp, sp, #36
 285              		.cfi_def_cfa_offset 64
 286 0006 0446     		mov	r4, r0
 287 0008 1646     		mov	r6, r2
 288 000a 109F     		ldr	r7, [sp, #64]
 212:Drivers/STM32F4xx_HAL_Driver/Src/stm32f4xx_hal_i2s_ex.c ****   HAL_StatusTypeDef errorcode = HAL_OK;
 289              		.loc 1 212 3 is_stmt 1 view .LVU74
 290              	.LVL12:
 213:Drivers/STM32F4xx_HAL_Driver/Src/stm32f4xx_hal_i2s_ex.c **** 
 291              		.loc 1 213 3 view .LVU75
 215:Drivers/STM32F4xx_HAL_Driver/Src/stm32f4xx_hal_i2s_ex.c ****   {
 292              		.loc 1 215 3 view .LVU76
 215:Drivers/STM32F4xx_HAL_Driver/Src/stm32f4xx_hal_i2s_ex.c ****   {
 293              		.loc 1 215 11 is_stmt 0 view .LVU77
 294 000c 90F84120 		ldrb	r2, [r0, #65]	@ zero_extendqisi2
 295              	.LVL13:
 215:Drivers/STM32F4xx_HAL_Driver/Src/stm32f4xx_hal_i2s_ex.c ****   {
 296              		.loc 1 215 6 view .LVU78
 297 0010 012A     		cmp	r2, #1
 298 0012 40F08181 		bne	.L65
 299 0016 5FFA82F8 		uxtb	r8, r2
 221:Drivers/STM32F4xx_HAL_Driver/Src/stm32f4xx_hal_i2s_ex.c ****   {
 300              		.loc 1 221 3 is_stmt 1 view .LVU79
 221:Drivers/STM32F4xx_HAL_Driver/Src/stm32f4xx_hal_i2s_ex.c ****   {
 301              		.loc 1 221 6 is_stmt 0 view .LVU80
 302 001a 0029     		cmp	r1, #0
 303 001c 00F08481 		beq	.L36
 221:Drivers/STM32F4xx_HAL_Driver/Src/stm32f4xx_hal_i2s_ex.c ****   {
 304              		.loc 1 221 25 discriminator 1 view .LVU81
 305 0020 002E     		cmp	r6, #0
 306 0022 00F08181 		beq	.L36
ARM GAS  /tmp/cc74GRYw.s 			page 27


 221:Drivers/STM32F4xx_HAL_Driver/Src/stm32f4xx_hal_i2s_ex.c ****   {
 307              		.loc 1 221 46 discriminator 2 view .LVU82
 308 0026 002B     		cmp	r3, #0
 309 0028 00F07E81 		beq	.L36
 227:Drivers/STM32F4xx_HAL_Driver/Src/stm32f4xx_hal_i2s_ex.c **** 
 310              		.loc 1 227 3 is_stmt 1 view .LVU83
 227:Drivers/STM32F4xx_HAL_Driver/Src/stm32f4xx_hal_i2s_ex.c **** 
 311              		.loc 1 227 3 view .LVU84
 312 002c 90F84020 		ldrb	r2, [r0, #64]	@ zero_extendqisi2
 313 0030 012A     		cmp	r2, #1
 314 0032 00F07D81 		beq	.L66
 227:Drivers/STM32F4xx_HAL_Driver/Src/stm32f4xx_hal_i2s_ex.c **** 
 315              		.loc 1 227 3 discriminator 2 view .LVU85
 316 0036 0122     		movs	r2, #1
 317 0038 80F84020 		strb	r2, [r0, #64]
 227:Drivers/STM32F4xx_HAL_Driver/Src/stm32f4xx_hal_i2s_ex.c **** 
 318              		.loc 1 227 3 view .LVU86
 229:Drivers/STM32F4xx_HAL_Driver/Src/stm32f4xx_hal_i2s_ex.c ****   /* Check the Data format: When a 16-bit data frame or a 16-bit data frame extended
 319              		.loc 1 229 3 view .LVU87
 229:Drivers/STM32F4xx_HAL_Driver/Src/stm32f4xx_hal_i2s_ex.c ****   /* Check the Data format: When a 16-bit data frame or a 16-bit data frame extended
 320              		.loc 1 229 14 is_stmt 0 view .LVU88
 321 003c 0068     		ldr	r0, [r0]
 322              	.LVL14:
 229:Drivers/STM32F4xx_HAL_Driver/Src/stm32f4xx_hal_i2s_ex.c ****   /* Check the Data format: When a 16-bit data frame or a 16-bit data frame extended
 323              		.loc 1 229 24 view .LVU89
 324 003e C269     		ldr	r2, [r0, #28]
 229:Drivers/STM32F4xx_HAL_Driver/Src/stm32f4xx_hal_i2s_ex.c ****   /* Check the Data format: When a 16-bit data frame or a 16-bit data frame extended
 325              		.loc 1 229 8 view .LVU90
 326 0040 02F00702 		and	r2, r2, #7
 327              	.LVL15:
 234:Drivers/STM32F4xx_HAL_Driver/Src/stm32f4xx_hal_i2s_ex.c ****   {
 328              		.loc 1 234 3 is_stmt 1 view .LVU91
 234:Drivers/STM32F4xx_HAL_Driver/Src/stm32f4xx_hal_i2s_ex.c ****   {
 329              		.loc 1 234 6 is_stmt 0 view .LVU92
 330 0044 032A     		cmp	r2, #3
 331 0046 06D0     		beq	.L37
 234:Drivers/STM32F4xx_HAL_Driver/Src/stm32f4xx_hal_i2s_ex.c ****   {
 332              		.loc 1 234 36 discriminator 1 view .LVU93
 333 0048 052A     		cmp	r2, #5
 334 004a 04D0     		beq	.L37
 243:Drivers/STM32F4xx_HAL_Driver/Src/stm32f4xx_hal_i2s_ex.c ****     hi2s->TxXferCount = Size;
 335              		.loc 1 243 5 is_stmt 1 view .LVU94
 243:Drivers/STM32F4xx_HAL_Driver/Src/stm32f4xx_hal_i2s_ex.c ****     hi2s->TxXferCount = Size;
 336              		.loc 1 243 23 is_stmt 0 view .LVU95
 337 004c 2385     		strh	r3, [r4, #40]	@ movhi
 244:Drivers/STM32F4xx_HAL_Driver/Src/stm32f4xx_hal_i2s_ex.c ****     hi2s->RxXferSize  = Size;
 338              		.loc 1 244 5 is_stmt 1 view .LVU96
 244:Drivers/STM32F4xx_HAL_Driver/Src/stm32f4xx_hal_i2s_ex.c ****     hi2s->RxXferSize  = Size;
 339              		.loc 1 244 23 is_stmt 0 view .LVU97
 340 004e 6385     		strh	r3, [r4, #42]	@ movhi
 245:Drivers/STM32F4xx_HAL_Driver/Src/stm32f4xx_hal_i2s_ex.c ****     hi2s->RxXferCount = Size;
 341              		.loc 1 245 5 is_stmt 1 view .LVU98
 245:Drivers/STM32F4xx_HAL_Driver/Src/stm32f4xx_hal_i2s_ex.c ****     hi2s->RxXferCount = Size;
 342              		.loc 1 245 23 is_stmt 0 view .LVU99
 343 0050 2386     		strh	r3, [r4, #48]	@ movhi
 246:Drivers/STM32F4xx_HAL_Driver/Src/stm32f4xx_hal_i2s_ex.c ****   }
 344              		.loc 1 246 5 is_stmt 1 view .LVU100
ARM GAS  /tmp/cc74GRYw.s 			page 28


 246:Drivers/STM32F4xx_HAL_Driver/Src/stm32f4xx_hal_i2s_ex.c ****   }
 345              		.loc 1 246 23 is_stmt 0 view .LVU101
 346 0052 6386     		strh	r3, [r4, #50]	@ movhi
 347 0054 05E0     		b	.L39
 348              	.L37:
 236:Drivers/STM32F4xx_HAL_Driver/Src/stm32f4xx_hal_i2s_ex.c ****     hi2s->TxXferCount = (Size << 1U);
 349              		.loc 1 236 5 is_stmt 1 view .LVU102
 236:Drivers/STM32F4xx_HAL_Driver/Src/stm32f4xx_hal_i2s_ex.c ****     hi2s->TxXferCount = (Size << 1U);
 350              		.loc 1 236 31 is_stmt 0 view .LVU103
 351 0056 5B00     		lsls	r3, r3, #1
 352              	.LVL16:
 236:Drivers/STM32F4xx_HAL_Driver/Src/stm32f4xx_hal_i2s_ex.c ****     hi2s->TxXferCount = (Size << 1U);
 353              		.loc 1 236 31 view .LVU104
 354 0058 9BB2     		uxth	r3, r3
 236:Drivers/STM32F4xx_HAL_Driver/Src/stm32f4xx_hal_i2s_ex.c ****     hi2s->TxXferCount = (Size << 1U);
 355              		.loc 1 236 23 view .LVU105
 356 005a 2385     		strh	r3, [r4, #40]	@ movhi
 237:Drivers/STM32F4xx_HAL_Driver/Src/stm32f4xx_hal_i2s_ex.c ****     hi2s->RxXferSize  = (Size << 1U);
 357              		.loc 1 237 5 is_stmt 1 view .LVU106
 237:Drivers/STM32F4xx_HAL_Driver/Src/stm32f4xx_hal_i2s_ex.c ****     hi2s->RxXferSize  = (Size << 1U);
 358              		.loc 1 237 23 is_stmt 0 view .LVU107
 359 005c 6385     		strh	r3, [r4, #42]	@ movhi
 238:Drivers/STM32F4xx_HAL_Driver/Src/stm32f4xx_hal_i2s_ex.c ****     hi2s->RxXferCount = (Size << 1U);
 360              		.loc 1 238 5 is_stmt 1 view .LVU108
 238:Drivers/STM32F4xx_HAL_Driver/Src/stm32f4xx_hal_i2s_ex.c ****     hi2s->RxXferCount = (Size << 1U);
 361              		.loc 1 238 23 is_stmt 0 view .LVU109
 362 005e 2386     		strh	r3, [r4, #48]	@ movhi
 239:Drivers/STM32F4xx_HAL_Driver/Src/stm32f4xx_hal_i2s_ex.c ****   }
 363              		.loc 1 239 5 is_stmt 1 view .LVU110
 239:Drivers/STM32F4xx_HAL_Driver/Src/stm32f4xx_hal_i2s_ex.c ****   }
 364              		.loc 1 239 23 is_stmt 0 view .LVU111
 365 0060 6386     		strh	r3, [r4, #50]	@ movhi
 366              	.L39:
 250:Drivers/STM32F4xx_HAL_Driver/Src/stm32f4xx_hal_i2s_ex.c ****   hi2s->State = HAL_I2S_STATE_BUSY_TX_RX;
 367              		.loc 1 250 3 is_stmt 1 view .LVU112
 250:Drivers/STM32F4xx_HAL_Driver/Src/stm32f4xx_hal_i2s_ex.c ****   hi2s->State = HAL_I2S_STATE_BUSY_TX_RX;
 368              		.loc 1 250 19 is_stmt 0 view .LVU113
 369 0062 0023     		movs	r3, #0
 370 0064 6364     		str	r3, [r4, #68]
 251:Drivers/STM32F4xx_HAL_Driver/Src/stm32f4xx_hal_i2s_ex.c **** 
 371              		.loc 1 251 3 is_stmt 1 view .LVU114
 251:Drivers/STM32F4xx_HAL_Driver/Src/stm32f4xx_hal_i2s_ex.c **** 
 372              		.loc 1 251 15 is_stmt 0 view .LVU115
 373 0066 0523     		movs	r3, #5
 374 0068 84F84130 		strb	r3, [r4, #65]
 253:Drivers/STM32F4xx_HAL_Driver/Src/stm32f4xx_hal_i2s_ex.c ****   /* Check if the I2S_MODE_MASTER_TX or I2S_MODE_SLAVE_TX Mode is selected */
 375              		.loc 1 253 3 is_stmt 1 view .LVU116
 253:Drivers/STM32F4xx_HAL_Driver/Src/stm32f4xx_hal_i2s_ex.c ****   /* Check if the I2S_MODE_MASTER_TX or I2S_MODE_SLAVE_TX Mode is selected */
 376              		.loc 1 253 24 is_stmt 0 view .LVU117
 377 006c C369     		ldr	r3, [r0, #28]
 253:Drivers/STM32F4xx_HAL_Driver/Src/stm32f4xx_hal_i2s_ex.c ****   /* Check if the I2S_MODE_MASTER_TX or I2S_MODE_SLAVE_TX Mode is selected */
 378              		.loc 1 253 8 view .LVU118
 379 006e 03F44079 		and	r9, r3, #768
 380              	.LVL17:
 255:Drivers/STM32F4xx_HAL_Driver/Src/stm32f4xx_hal_i2s_ex.c ****   {
 381              		.loc 1 255 3 is_stmt 1 view .LVU119
 255:Drivers/STM32F4xx_HAL_Driver/Src/stm32f4xx_hal_i2s_ex.c ****   {
ARM GAS  /tmp/cc74GRYw.s 			page 29


 382              		.loc 1 255 6 is_stmt 0 view .LVU120
 383 0072 B9F5007F 		cmp	r9, #512
 384 0076 03D0     		beq	.L40
 255:Drivers/STM32F4xx_HAL_Driver/Src/stm32f4xx_hal_i2s_ex.c ****   {
 385              		.loc 1 255 36 discriminator 1 view .LVU121
 386 0078 B9F1000F 		cmp	r9, #0
 387 007c 40F0A780 		bne	.L41
 388              	.L40:
 258:Drivers/STM32F4xx_HAL_Driver/Src/stm32f4xx_hal_i2s_ex.c ****     hi2s->TxXferCount--;
 389              		.loc 1 258 5 is_stmt 1 view .LVU122
 258:Drivers/STM32F4xx_HAL_Driver/Src/stm32f4xx_hal_i2s_ex.c ****     hi2s->TxXferCount--;
 390              		.loc 1 258 35 is_stmt 0 view .LVU123
 391 0080 0D46     		mov	r5, r1
 392              	.LVL18:
 258:Drivers/STM32F4xx_HAL_Driver/Src/stm32f4xx_hal_i2s_ex.c ****     hi2s->TxXferCount--;
 393              		.loc 1 258 27 view .LVU124
 394 0082 35F8023B 		ldrh	r3, [r5], #2
 395              	.LVL19:
 258:Drivers/STM32F4xx_HAL_Driver/Src/stm32f4xx_hal_i2s_ex.c ****     hi2s->TxXferCount--;
 396              		.loc 1 258 24 view .LVU125
 397 0086 C360     		str	r3, [r0, #12]
 259:Drivers/STM32F4xx_HAL_Driver/Src/stm32f4xx_hal_i2s_ex.c **** 
 398              		.loc 1 259 5 is_stmt 1 view .LVU126
 259:Drivers/STM32F4xx_HAL_Driver/Src/stm32f4xx_hal_i2s_ex.c **** 
 399              		.loc 1 259 9 is_stmt 0 view .LVU127
 400 0088 638D     		ldrh	r3, [r4, #42]
 401 008a 9BB2     		uxth	r3, r3
 259:Drivers/STM32F4xx_HAL_Driver/Src/stm32f4xx_hal_i2s_ex.c **** 
 402              		.loc 1 259 22 view .LVU128
 403 008c 013B     		subs	r3, r3, #1
 404 008e 9BB2     		uxth	r3, r3
 405 0090 6385     		strh	r3, [r4, #42]	@ movhi
 262:Drivers/STM32F4xx_HAL_Driver/Src/stm32f4xx_hal_i2s_ex.c **** 
 406              		.loc 1 262 5 is_stmt 1 view .LVU129
 407 0092 2268     		ldr	r2, [r4]
 408 0094 8A4B     		ldr	r3, .L98
 409 0096 9A42     		cmp	r2, r3
 410 0098 1ED0     		beq	.L82
 262:Drivers/STM32F4xx_HAL_Driver/Src/stm32f4xx_hal_i2s_ex.c **** 
 411              		.loc 1 262 5 is_stmt 0 discriminator 2 view .LVU130
 412 009a 4FF04022 		mov	r2, #1073758208
 413              	.L42:
 262:Drivers/STM32F4xx_HAL_Driver/Src/stm32f4xx_hal_i2s_ex.c **** 
 414              		.loc 1 262 5 discriminator 4 view .LVU131
 415 009e D369     		ldr	r3, [r2, #28]
 262:Drivers/STM32F4xx_HAL_Driver/Src/stm32f4xx_hal_i2s_ex.c **** 
 416              		.loc 1 262 5 discriminator 8 view .LVU132
 417 00a0 43F48063 		orr	r3, r3, #1024
 418 00a4 D361     		str	r3, [r2, #28]
 265:Drivers/STM32F4xx_HAL_Driver/Src/stm32f4xx_hal_i2s_ex.c **** 
 419              		.loc 1 265 5 is_stmt 1 view .LVU133
 420 00a6 2268     		ldr	r2, [r4]
 421 00a8 D369     		ldr	r3, [r2, #28]
 422 00aa 43F48063 		orr	r3, r3, #1024
 423 00ae D361     		str	r3, [r2, #28]
 268:Drivers/STM32F4xx_HAL_Driver/Src/stm32f4xx_hal_i2s_ex.c ****     {
 424              		.loc 1 268 5 view .LVU134
ARM GAS  /tmp/cc74GRYw.s 			page 30


 268:Drivers/STM32F4xx_HAL_Driver/Src/stm32f4xx_hal_i2s_ex.c ****     {
 425              		.loc 1 268 14 is_stmt 0 view .LVU135
 426 00b0 2268     		ldr	r2, [r4]
 268:Drivers/STM32F4xx_HAL_Driver/Src/stm32f4xx_hal_i2s_ex.c ****     {
 427              		.loc 1 268 24 view .LVU136
 428 00b2 D369     		ldr	r3, [r2, #28]
 268:Drivers/STM32F4xx_HAL_Driver/Src/stm32f4xx_hal_i2s_ex.c ****     {
 429              		.loc 1 268 34 view .LVU137
 430 00b4 03F44073 		and	r3, r3, #768
 268:Drivers/STM32F4xx_HAL_Driver/Src/stm32f4xx_hal_i2s_ex.c ****     {
 431              		.loc 1 268 8 view .LVU138
 432 00b8 B3F5007F 		cmp	r3, #512
 433 00bc 18D1     		bne	.L51
 272:Drivers/STM32F4xx_HAL_Driver/Src/stm32f4xx_hal_i2s_ex.c ****     }
 434              		.loc 1 272 7 is_stmt 1 view .LVU139
 435              	.LBB2:
 272:Drivers/STM32F4xx_HAL_Driver/Src/stm32f4xx_hal_i2s_ex.c ****     }
 436              		.loc 1 272 7 view .LVU140
 437 00be 0023     		movs	r3, #0
 438 00c0 0293     		str	r3, [sp, #8]
 272:Drivers/STM32F4xx_HAL_Driver/Src/stm32f4xx_hal_i2s_ex.c ****     }
 439              		.loc 1 272 7 view .LVU141
 440 00c2 7F4B     		ldr	r3, .L98
 441 00c4 9A42     		cmp	r2, r3
 442 00c6 09D0     		beq	.L83
 272:Drivers/STM32F4xx_HAL_Driver/Src/stm32f4xx_hal_i2s_ex.c ****     }
 443              		.loc 1 272 7 is_stmt 0 discriminator 2 view .LVU142
 444 00c8 4FF04023 		mov	r3, #1073758208
 445              	.L44:
 272:Drivers/STM32F4xx_HAL_Driver/Src/stm32f4xx_hal_i2s_ex.c ****     }
 446              		.loc 1 272 7 discriminator 4 view .LVU143
 447 00cc DA68     		ldr	r2, [r3, #12]
 448 00ce 0292     		str	r2, [sp, #8]
 272:Drivers/STM32F4xx_HAL_Driver/Src/stm32f4xx_hal_i2s_ex.c ****     }
 449              		.loc 1 272 7 is_stmt 1 view .LVU144
 272:Drivers/STM32F4xx_HAL_Driver/Src/stm32f4xx_hal_i2s_ex.c ****     }
 450              		.loc 1 272 7 is_stmt 0 discriminator 8 view .LVU145
 451 00d0 9B68     		ldr	r3, [r3, #8]
 452 00d2 0293     		str	r3, [sp, #8]
 272:Drivers/STM32F4xx_HAL_Driver/Src/stm32f4xx_hal_i2s_ex.c ****     }
 453              		.loc 1 272 7 is_stmt 1 view .LVU146
 272:Drivers/STM32F4xx_HAL_Driver/Src/stm32f4xx_hal_i2s_ex.c ****     }
 454              		.loc 1 272 7 is_stmt 0 discriminator 8 view .LVU147
 455 00d4 029B     		ldr	r3, [sp, #8]
 456 00d6 0BE0     		b	.L51
 457              	.L82:
 272:Drivers/STM32F4xx_HAL_Driver/Src/stm32f4xx_hal_i2s_ex.c ****     }
 458              		.loc 1 272 7 discriminator 8 view .LVU148
 459              	.LBE2:
 262:Drivers/STM32F4xx_HAL_Driver/Src/stm32f4xx_hal_i2s_ex.c **** 
 460              		.loc 1 262 5 discriminator 1 view .LVU149
 461 00d8 7A4A     		ldr	r2, .L98+4
 462 00da E0E7     		b	.L42
 463              	.L83:
 464              	.LBB3:
 272:Drivers/STM32F4xx_HAL_Driver/Src/stm32f4xx_hal_i2s_ex.c ****     }
 465              		.loc 1 272 7 discriminator 1 view .LVU150
ARM GAS  /tmp/cc74GRYw.s 			page 31


 466 00dc A3F58063 		sub	r3, r3, #1024
 467 00e0 F4E7     		b	.L44
 468              	.L52:
 272:Drivers/STM32F4xx_HAL_Driver/Src/stm32f4xx_hal_i2s_ex.c ****     }
 469              		.loc 1 272 7 discriminator 1 view .LVU151
 470              	.LBE3:
 277:Drivers/STM32F4xx_HAL_Driver/Src/stm32f4xx_hal_i2s_ex.c ****       {
 471              		.loc 1 277 7 is_stmt 1 view .LVU152
 277:Drivers/STM32F4xx_HAL_Driver/Src/stm32f4xx_hal_i2s_ex.c ****       {
 472              		.loc 1 277 15 is_stmt 0 view .LVU153
 473 00e2 638D     		ldrh	r3, [r4, #42]
 474 00e4 9BB2     		uxth	r3, r3
 277:Drivers/STM32F4xx_HAL_Driver/Src/stm32f4xx_hal_i2s_ex.c ****       {
 475              		.loc 1 277 10 view .LVU154
 476 00e6 93B9     		cbnz	r3, .L84
 477              	.L45:
 301:Drivers/STM32F4xx_HAL_Driver/Src/stm32f4xx_hal_i2s_ex.c ****       {
 478              		.loc 1 301 7 is_stmt 1 view .LVU155
 301:Drivers/STM32F4xx_HAL_Driver/Src/stm32f4xx_hal_i2s_ex.c ****       {
 479              		.loc 1 301 15 is_stmt 0 view .LVU156
 480 00e8 638E     		ldrh	r3, [r4, #50]
 481 00ea 9BB2     		uxth	r3, r3
 301:Drivers/STM32F4xx_HAL_Driver/Src/stm32f4xx_hal_i2s_ex.c ****       {
 482              		.loc 1 301 10 view .LVU157
 483 00ec 002B     		cmp	r3, #0
 484 00ee 37D1     		bne	.L85
 485              	.L51:
 275:Drivers/STM32F4xx_HAL_Driver/Src/stm32f4xx_hal_i2s_ex.c ****     {
 486              		.loc 1 275 37 is_stmt 1 view .LVU158
 275:Drivers/STM32F4xx_HAL_Driver/Src/stm32f4xx_hal_i2s_ex.c ****     {
 487              		.loc 1 275 17 is_stmt 0 view .LVU159
 488 00f0 638E     		ldrh	r3, [r4, #50]
 489 00f2 9BB2     		uxth	r3, r3
 275:Drivers/STM32F4xx_HAL_Driver/Src/stm32f4xx_hal_i2s_ex.c ****     {
 490              		.loc 1 275 37 view .LVU160
 491 00f4 002B     		cmp	r3, #0
 492 00f6 F4D1     		bne	.L52
 275:Drivers/STM32F4xx_HAL_Driver/Src/stm32f4xx_hal_i2s_ex.c ****     {
 493              		.loc 1 275 45 discriminator 1 view .LVU161
 494 00f8 638D     		ldrh	r3, [r4, #42]
 495 00fa 9BB2     		uxth	r3, r3
 275:Drivers/STM32F4xx_HAL_Driver/Src/stm32f4xx_hal_i2s_ex.c ****     {
 496              		.loc 1 275 37 discriminator 1 view .LVU162
 497 00fc 002B     		cmp	r3, #0
 498 00fe F0D1     		bne	.L52
 499              	.L53:
 401:Drivers/STM32F4xx_HAL_Driver/Src/stm32f4xx_hal_i2s_ex.c ****   {
 500              		.loc 1 401 3 is_stmt 1 view .LVU163
 401:Drivers/STM32F4xx_HAL_Driver/Src/stm32f4xx_hal_i2s_ex.c ****   {
 501              		.loc 1 401 11 is_stmt 0 view .LVU164
 502 0100 636C     		ldr	r3, [r4, #68]
 401:Drivers/STM32F4xx_HAL_Driver/Src/stm32f4xx_hal_i2s_ex.c ****   {
 503              		.loc 1 401 6 view .LVU165
 504 0102 002B     		cmp	r3, #0
 505 0104 40F00A81 		bne	.L35
 213:Drivers/STM32F4xx_HAL_Driver/Src/stm32f4xx_hal_i2s_ex.c **** 
 506              		.loc 1 213 21 view .LVU166
ARM GAS  /tmp/cc74GRYw.s 			page 32


 507 0108 4FF00008 		mov	r8, #0
 508 010c 06E1     		b	.L35
 509              	.L84:
 280:Drivers/STM32F4xx_HAL_Driver/Src/stm32f4xx_hal_i2s_ex.c ****         {
 510              		.loc 1 280 9 is_stmt 1 view .LVU167
 280:Drivers/STM32F4xx_HAL_Driver/Src/stm32f4xx_hal_i2s_ex.c ****         {
 511              		.loc 1 280 13 is_stmt 0 view .LVU168
 512 010e 0023     		movs	r3, #0
 513 0110 0093     		str	r3, [sp]
 514 0112 3B46     		mov	r3, r7
 515 0114 0122     		movs	r2, #1
 516 0116 0221     		movs	r1, #2
 517 0118 2046     		mov	r0, r4
 518 011a FFF7FEFF 		bl	I2SEx_FullDuplexWaitFlagStateUntilTimeout
 519              	.LVL20:
 280:Drivers/STM32F4xx_HAL_Driver/Src/stm32f4xx_hal_i2s_ex.c ****         {
 520              		.loc 1 280 12 discriminator 1 view .LVU169
 521 011e D0B9     		cbnz	r0, .L86
 288:Drivers/STM32F4xx_HAL_Driver/Src/stm32f4xx_hal_i2s_ex.c ****         hi2s->TxXferCount--;
 522              		.loc 1 288 9 is_stmt 1 view .LVU170
 523              	.LVL21:
 288:Drivers/STM32F4xx_HAL_Driver/Src/stm32f4xx_hal_i2s_ex.c ****         hi2s->TxXferCount--;
 524              		.loc 1 288 13 is_stmt 0 view .LVU171
 525 0120 2368     		ldr	r3, [r4]
 288:Drivers/STM32F4xx_HAL_Driver/Src/stm32f4xx_hal_i2s_ex.c ****         hi2s->TxXferCount--;
 526              		.loc 1 288 31 view .LVU172
 527 0122 35F8022B 		ldrh	r2, [r5], #2
 528              	.LVL22:
 288:Drivers/STM32F4xx_HAL_Driver/Src/stm32f4xx_hal_i2s_ex.c ****         hi2s->TxXferCount--;
 529              		.loc 1 288 28 view .LVU173
 530 0126 DA60     		str	r2, [r3, #12]
 289:Drivers/STM32F4xx_HAL_Driver/Src/stm32f4xx_hal_i2s_ex.c **** 
 531              		.loc 1 289 9 is_stmt 1 view .LVU174
 289:Drivers/STM32F4xx_HAL_Driver/Src/stm32f4xx_hal_i2s_ex.c **** 
 532              		.loc 1 289 13 is_stmt 0 view .LVU175
 533 0128 638D     		ldrh	r3, [r4, #42]
 534 012a 9BB2     		uxth	r3, r3
 289:Drivers/STM32F4xx_HAL_Driver/Src/stm32f4xx_hal_i2s_ex.c **** 
 535              		.loc 1 289 26 view .LVU176
 536 012c 013B     		subs	r3, r3, #1
 537 012e 9BB2     		uxth	r3, r3
 538 0130 6385     		strh	r3, [r4, #42]	@ movhi
 292:Drivers/STM32F4xx_HAL_Driver/Src/stm32f4xx_hal_i2s_ex.c ****         {
 539              		.loc 1 292 9 is_stmt 1 view .LVU177
 292:Drivers/STM32F4xx_HAL_Driver/Src/stm32f4xx_hal_i2s_ex.c ****         {
 540              		.loc 1 292 14 is_stmt 0 view .LVU178
 541 0132 2368     		ldr	r3, [r4]
 542 0134 9A68     		ldr	r2, [r3, #8]
 292:Drivers/STM32F4xx_HAL_Driver/Src/stm32f4xx_hal_i2s_ex.c ****         {
 543              		.loc 1 292 12 view .LVU179
 544 0136 12F0080F 		tst	r2, #8
 545 013a D5D0     		beq	.L45
 292:Drivers/STM32F4xx_HAL_Driver/Src/stm32f4xx_hal_i2s_ex.c ****         {
 546              		.loc 1 292 61 discriminator 1 view .LVU180
 547 013c B9F1000F 		cmp	r9, #0
 548 0140 D2D1     		bne	.L45
 295:Drivers/STM32F4xx_HAL_Driver/Src/stm32f4xx_hal_i2s_ex.c **** 
ARM GAS  /tmp/cc74GRYw.s 			page 33


 549              		.loc 1 295 11 is_stmt 1 view .LVU181
 550              	.LBB4:
 295:Drivers/STM32F4xx_HAL_Driver/Src/stm32f4xx_hal_i2s_ex.c **** 
 551              		.loc 1 295 11 view .LVU182
 552 0142 0022     		movs	r2, #0
 553 0144 0392     		str	r2, [sp, #12]
 295:Drivers/STM32F4xx_HAL_Driver/Src/stm32f4xx_hal_i2s_ex.c **** 
 554              		.loc 1 295 11 view .LVU183
 555 0146 9B68     		ldr	r3, [r3, #8]
 556 0148 0393     		str	r3, [sp, #12]
 295:Drivers/STM32F4xx_HAL_Driver/Src/stm32f4xx_hal_i2s_ex.c **** 
 557              		.loc 1 295 11 view .LVU184
 558 014a 039B     		ldr	r3, [sp, #12]
 559              	.LBE4:
 295:Drivers/STM32F4xx_HAL_Driver/Src/stm32f4xx_hal_i2s_ex.c **** 
 560              		.loc 1 295 11 view .LVU185
 298:Drivers/STM32F4xx_HAL_Driver/Src/stm32f4xx_hal_i2s_ex.c ****         }
 561              		.loc 1 298 11 view .LVU186
 562 014c 636C     		ldr	r3, [r4, #68]
 563 014e 43F00403 		orr	r3, r3, #4
 564 0152 6364     		str	r3, [r4, #68]
 565 0154 C8E7     		b	.L45
 566              	.L86:
 283:Drivers/STM32F4xx_HAL_Driver/Src/stm32f4xx_hal_i2s_ex.c ****           errorcode = HAL_ERROR;
 567              		.loc 1 283 11 view .LVU187
 568 0156 636C     		ldr	r3, [r4, #68]
 569 0158 43F00103 		orr	r3, r3, #1
 570 015c 6364     		str	r3, [r4, #68]
 284:Drivers/STM32F4xx_HAL_Driver/Src/stm32f4xx_hal_i2s_ex.c ****           goto error;
 571              		.loc 1 284 11 view .LVU188
 572              	.LVL23:
 285:Drivers/STM32F4xx_HAL_Driver/Src/stm32f4xx_hal_i2s_ex.c ****         }
 573              		.loc 1 285 11 view .LVU189
 574 015e DDE0     		b	.L35
 575              	.LVL24:
 576              	.L85:
 304:Drivers/STM32F4xx_HAL_Driver/Src/stm32f4xx_hal_i2s_ex.c ****         {
 577              		.loc 1 304 9 view .LVU190
 304:Drivers/STM32F4xx_HAL_Driver/Src/stm32f4xx_hal_i2s_ex.c ****         {
 578              		.loc 1 304 13 is_stmt 0 view .LVU191
 579 0160 0121     		movs	r1, #1
 580 0162 0091     		str	r1, [sp]
 581 0164 3B46     		mov	r3, r7
 582 0166 0A46     		mov	r2, r1
 583 0168 2046     		mov	r0, r4
 584 016a FFF7FEFF 		bl	I2SEx_FullDuplexWaitFlagStateUntilTimeout
 585              	.LVL25:
 304:Drivers/STM32F4xx_HAL_Driver/Src/stm32f4xx_hal_i2s_ex.c ****         {
 586              		.loc 1 304 12 discriminator 1 view .LVU192
 587 016e 18BB     		cbnz	r0, .L87
 312:Drivers/STM32F4xx_HAL_Driver/Src/stm32f4xx_hal_i2s_ex.c ****         hi2s->RxXferCount--;
 588              		.loc 1 312 9 is_stmt 1 view .LVU193
 312:Drivers/STM32F4xx_HAL_Driver/Src/stm32f4xx_hal_i2s_ex.c ****         hi2s->RxXferCount--;
 589              		.loc 1 312 24 is_stmt 0 view .LVU194
 590 0170 2268     		ldr	r2, [r4]
 591 0172 534B     		ldr	r3, .L98
 592 0174 9A42     		cmp	r2, r3
ARM GAS  /tmp/cc74GRYw.s 			page 34


 593 0176 24D0     		beq	.L88
 312:Drivers/STM32F4xx_HAL_Driver/Src/stm32f4xx_hal_i2s_ex.c ****         hi2s->RxXferCount--;
 594              		.loc 1 312 24 discriminator 2 view .LVU195
 595 0178 4FF04023 		mov	r3, #1073758208
 596              	.L49:
 312:Drivers/STM32F4xx_HAL_Driver/Src/stm32f4xx_hal_i2s_ex.c ****         hi2s->RxXferCount--;
 597              		.loc 1 312 47 discriminator 4 view .LVU196
 598 017c DB68     		ldr	r3, [r3, #12]
 599              	.LVL26:
 312:Drivers/STM32F4xx_HAL_Driver/Src/stm32f4xx_hal_i2s_ex.c ****         hi2s->RxXferCount--;
 600              		.loc 1 312 22 discriminator 4 view .LVU197
 601 017e 26F8023B 		strh	r3, [r6], #2	@ movhi
 602              	.LVL27:
 313:Drivers/STM32F4xx_HAL_Driver/Src/stm32f4xx_hal_i2s_ex.c **** 
 603              		.loc 1 313 9 is_stmt 1 view .LVU198
 313:Drivers/STM32F4xx_HAL_Driver/Src/stm32f4xx_hal_i2s_ex.c **** 
 604              		.loc 1 313 13 is_stmt 0 view .LVU199
 605 0182 638E     		ldrh	r3, [r4, #50]
 606 0184 9BB2     		uxth	r3, r3
 313:Drivers/STM32F4xx_HAL_Driver/Src/stm32f4xx_hal_i2s_ex.c **** 
 607              		.loc 1 313 26 view .LVU200
 608 0186 013B     		subs	r3, r3, #1
 609 0188 9BB2     		uxth	r3, r3
 610 018a 6386     		strh	r3, [r4, #50]	@ movhi
 316:Drivers/STM32F4xx_HAL_Driver/Src/stm32f4xx_hal_i2s_ex.c ****         {
 611              		.loc 1 316 9 is_stmt 1 view .LVU201
 316:Drivers/STM32F4xx_HAL_Driver/Src/stm32f4xx_hal_i2s_ex.c ****         {
 612              		.loc 1 316 13 is_stmt 0 view .LVU202
 613 018c 2368     		ldr	r3, [r4]
 614 018e 4C4A     		ldr	r2, .L98
 615 0190 9342     		cmp	r3, r2
 616 0192 19D0     		beq	.L89
 316:Drivers/STM32F4xx_HAL_Driver/Src/stm32f4xx_hal_i2s_ex.c ****         {
 617              		.loc 1 316 13 discriminator 2 view .LVU203
 618 0194 4FF04022 		mov	r2, #1073758208
 619              	.L50:
 316:Drivers/STM32F4xx_HAL_Driver/Src/stm32f4xx_hal_i2s_ex.c ****         {
 620              		.loc 1 316 13 discriminator 4 view .LVU204
 621 0198 9268     		ldr	r2, [r2, #8]
 316:Drivers/STM32F4xx_HAL_Driver/Src/stm32f4xx_hal_i2s_ex.c ****         {
 622              		.loc 1 316 12 discriminator 4 view .LVU205
 623 019a 12F0400F 		tst	r2, #64
 624 019e A7D0     		beq	.L51
 319:Drivers/STM32F4xx_HAL_Driver/Src/stm32f4xx_hal_i2s_ex.c **** 
 625              		.loc 1 319 11 is_stmt 1 view .LVU206
 626              	.LBB5:
 319:Drivers/STM32F4xx_HAL_Driver/Src/stm32f4xx_hal_i2s_ex.c **** 
 627              		.loc 1 319 11 view .LVU207
 628 01a0 0022     		movs	r2, #0
 629 01a2 0492     		str	r2, [sp, #16]
 319:Drivers/STM32F4xx_HAL_Driver/Src/stm32f4xx_hal_i2s_ex.c **** 
 630              		.loc 1 319 11 view .LVU208
 631 01a4 DA68     		ldr	r2, [r3, #12]
 632 01a6 0492     		str	r2, [sp, #16]
 319:Drivers/STM32F4xx_HAL_Driver/Src/stm32f4xx_hal_i2s_ex.c **** 
 633              		.loc 1 319 11 view .LVU209
 634 01a8 9B68     		ldr	r3, [r3, #8]
ARM GAS  /tmp/cc74GRYw.s 			page 35


 635 01aa 0493     		str	r3, [sp, #16]
 319:Drivers/STM32F4xx_HAL_Driver/Src/stm32f4xx_hal_i2s_ex.c **** 
 636              		.loc 1 319 11 view .LVU210
 637 01ac 049B     		ldr	r3, [sp, #16]
 638              	.LBE5:
 319:Drivers/STM32F4xx_HAL_Driver/Src/stm32f4xx_hal_i2s_ex.c **** 
 639              		.loc 1 319 11 view .LVU211
 322:Drivers/STM32F4xx_HAL_Driver/Src/stm32f4xx_hal_i2s_ex.c ****         }
 640              		.loc 1 322 11 view .LVU212
 641 01ae 636C     		ldr	r3, [r4, #68]
 642 01b0 43F00203 		orr	r3, r3, #2
 643 01b4 6364     		str	r3, [r4, #68]
 644 01b6 9BE7     		b	.L51
 645              	.L87:
 307:Drivers/STM32F4xx_HAL_Driver/Src/stm32f4xx_hal_i2s_ex.c ****           errorcode = HAL_ERROR;
 646              		.loc 1 307 11 view .LVU213
 647 01b8 636C     		ldr	r3, [r4, #68]
 648 01ba 43F00103 		orr	r3, r3, #1
 649 01be 6364     		str	r3, [r4, #68]
 308:Drivers/STM32F4xx_HAL_Driver/Src/stm32f4xx_hal_i2s_ex.c ****           goto error;
 650              		.loc 1 308 11 view .LVU214
 651              	.LVL28:
 309:Drivers/STM32F4xx_HAL_Driver/Src/stm32f4xx_hal_i2s_ex.c ****         }
 652              		.loc 1 309 11 view .LVU215
 653 01c0 ACE0     		b	.L35
 654              	.LVL29:
 655              	.L88:
 312:Drivers/STM32F4xx_HAL_Driver/Src/stm32f4xx_hal_i2s_ex.c ****         hi2s->RxXferCount--;
 656              		.loc 1 312 24 is_stmt 0 discriminator 1 view .LVU216
 657 01c2 A3F58063 		sub	r3, r3, #1024
 658 01c6 D9E7     		b	.L49
 659              	.L89:
 316:Drivers/STM32F4xx_HAL_Driver/Src/stm32f4xx_hal_i2s_ex.c ****         {
 660              		.loc 1 316 13 discriminator 1 view .LVU217
 661 01c8 A2F58062 		sub	r2, r2, #1024
 662 01cc E4E7     		b	.L50
 663              	.LVL30:
 664              	.L41:
 331:Drivers/STM32F4xx_HAL_Driver/Src/stm32f4xx_hal_i2s_ex.c ****     hi2s->TxXferCount--;
 665              		.loc 1 331 5 is_stmt 1 view .LVU218
 331:Drivers/STM32F4xx_HAL_Driver/Src/stm32f4xx_hal_i2s_ex.c ****     hi2s->TxXferCount--;
 666              		.loc 1 331 44 is_stmt 0 view .LVU219
 667 01ce 0D46     		mov	r5, r1
 668              	.LVL31:
 331:Drivers/STM32F4xx_HAL_Driver/Src/stm32f4xx_hal_i2s_ex.c ****     hi2s->TxXferCount--;
 669              		.loc 1 331 36 view .LVU220
 670 01d0 35F8022B 		ldrh	r2, [r5], #2
 671              	.LVL32:
 331:Drivers/STM32F4xx_HAL_Driver/Src/stm32f4xx_hal_i2s_ex.c ****     hi2s->TxXferCount--;
 672              		.loc 1 331 5 view .LVU221
 673 01d4 3A4B     		ldr	r3, .L98
 674 01d6 9842     		cmp	r0, r3
 675 01d8 25D0     		beq	.L90
 331:Drivers/STM32F4xx_HAL_Driver/Src/stm32f4xx_hal_i2s_ex.c ****     hi2s->TxXferCount--;
 676              		.loc 1 331 5 discriminator 2 view .LVU222
 677 01da 4FF04023 		mov	r3, #1073758208
 678              	.L54:
ARM GAS  /tmp/cc74GRYw.s 			page 36


 331:Drivers/STM32F4xx_HAL_Driver/Src/stm32f4xx_hal_i2s_ex.c ****     hi2s->TxXferCount--;
 679              		.loc 1 331 33 discriminator 4 view .LVU223
 680 01de DA60     		str	r2, [r3, #12]
 332:Drivers/STM32F4xx_HAL_Driver/Src/stm32f4xx_hal_i2s_ex.c **** 
 681              		.loc 1 332 5 is_stmt 1 view .LVU224
 332:Drivers/STM32F4xx_HAL_Driver/Src/stm32f4xx_hal_i2s_ex.c **** 
 682              		.loc 1 332 9 is_stmt 0 view .LVU225
 683 01e0 638D     		ldrh	r3, [r4, #42]
 684 01e2 9BB2     		uxth	r3, r3
 332:Drivers/STM32F4xx_HAL_Driver/Src/stm32f4xx_hal_i2s_ex.c **** 
 685              		.loc 1 332 22 view .LVU226
 686 01e4 013B     		subs	r3, r3, #1
 687 01e6 9BB2     		uxth	r3, r3
 688 01e8 6385     		strh	r3, [r4, #42]	@ movhi
 335:Drivers/STM32F4xx_HAL_Driver/Src/stm32f4xx_hal_i2s_ex.c **** 
 689              		.loc 1 335 5 is_stmt 1 view .LVU227
 690 01ea 2268     		ldr	r2, [r4]
 691 01ec 344B     		ldr	r3, .L98
 692 01ee 9A42     		cmp	r2, r3
 693 01f0 1CD0     		beq	.L91
 335:Drivers/STM32F4xx_HAL_Driver/Src/stm32f4xx_hal_i2s_ex.c **** 
 694              		.loc 1 335 5 is_stmt 0 discriminator 2 view .LVU228
 695 01f2 4FF04022 		mov	r2, #1073758208
 696              	.L55:
 335:Drivers/STM32F4xx_HAL_Driver/Src/stm32f4xx_hal_i2s_ex.c **** 
 697              		.loc 1 335 5 discriminator 4 view .LVU229
 698 01f6 D369     		ldr	r3, [r2, #28]
 335:Drivers/STM32F4xx_HAL_Driver/Src/stm32f4xx_hal_i2s_ex.c **** 
 699              		.loc 1 335 5 discriminator 8 view .LVU230
 700 01f8 43F48063 		orr	r3, r3, #1024
 701 01fc D361     		str	r3, [r2, #28]
 338:Drivers/STM32F4xx_HAL_Driver/Src/stm32f4xx_hal_i2s_ex.c **** 
 702              		.loc 1 338 5 is_stmt 1 view .LVU231
 703 01fe 2268     		ldr	r2, [r4]
 704 0200 D369     		ldr	r3, [r2, #28]
 705 0202 43F48063 		orr	r3, r3, #1024
 706 0206 D361     		str	r3, [r2, #28]
 341:Drivers/STM32F4xx_HAL_Driver/Src/stm32f4xx_hal_i2s_ex.c ****     {
 707              		.loc 1 341 5 view .LVU232
 341:Drivers/STM32F4xx_HAL_Driver/Src/stm32f4xx_hal_i2s_ex.c ****     {
 708              		.loc 1 341 14 is_stmt 0 view .LVU233
 709 0208 2268     		ldr	r2, [r4]
 341:Drivers/STM32F4xx_HAL_Driver/Src/stm32f4xx_hal_i2s_ex.c ****     {
 710              		.loc 1 341 24 view .LVU234
 711 020a D369     		ldr	r3, [r2, #28]
 341:Drivers/STM32F4xx_HAL_Driver/Src/stm32f4xx_hal_i2s_ex.c ****     {
 712              		.loc 1 341 34 view .LVU235
 713 020c 03F44073 		and	r3, r3, #768
 341:Drivers/STM32F4xx_HAL_Driver/Src/stm32f4xx_hal_i2s_ex.c ****     {
 714              		.loc 1 341 8 view .LVU236
 715 0210 B3F5407F 		cmp	r3, #768
 716 0214 13D1     		bne	.L63
 345:Drivers/STM32F4xx_HAL_Driver/Src/stm32f4xx_hal_i2s_ex.c ****     }
 717              		.loc 1 345 7 is_stmt 1 view .LVU237
 718              	.LBB6:
 345:Drivers/STM32F4xx_HAL_Driver/Src/stm32f4xx_hal_i2s_ex.c ****     }
 719              		.loc 1 345 7 view .LVU238
ARM GAS  /tmp/cc74GRYw.s 			page 37


 720 0216 0023     		movs	r3, #0
 721 0218 0593     		str	r3, [sp, #20]
 345:Drivers/STM32F4xx_HAL_Driver/Src/stm32f4xx_hal_i2s_ex.c ****     }
 722              		.loc 1 345 7 view .LVU239
 723 021a D368     		ldr	r3, [r2, #12]
 724 021c 0593     		str	r3, [sp, #20]
 345:Drivers/STM32F4xx_HAL_Driver/Src/stm32f4xx_hal_i2s_ex.c ****     }
 725              		.loc 1 345 7 view .LVU240
 726 021e 9368     		ldr	r3, [r2, #8]
 727 0220 0593     		str	r3, [sp, #20]
 345:Drivers/STM32F4xx_HAL_Driver/Src/stm32f4xx_hal_i2s_ex.c ****     }
 728              		.loc 1 345 7 view .LVU241
 729 0222 059B     		ldr	r3, [sp, #20]
 730 0224 0BE0     		b	.L63
 731              	.L90:
 345:Drivers/STM32F4xx_HAL_Driver/Src/stm32f4xx_hal_i2s_ex.c ****     }
 732              		.loc 1 345 7 is_stmt 0 view .LVU242
 733              	.LBE6:
 331:Drivers/STM32F4xx_HAL_Driver/Src/stm32f4xx_hal_i2s_ex.c ****     hi2s->TxXferCount--;
 734              		.loc 1 331 5 discriminator 1 view .LVU243
 735 0226 A3F58063 		sub	r3, r3, #1024
 736 022a D8E7     		b	.L54
 737              	.L91:
 335:Drivers/STM32F4xx_HAL_Driver/Src/stm32f4xx_hal_i2s_ex.c **** 
 738              		.loc 1 335 5 discriminator 1 view .LVU244
 739 022c 254A     		ldr	r2, .L98+4
 740 022e E2E7     		b	.L55
 741              	.L64:
 350:Drivers/STM32F4xx_HAL_Driver/Src/stm32f4xx_hal_i2s_ex.c ****       {
 742              		.loc 1 350 7 is_stmt 1 view .LVU245
 350:Drivers/STM32F4xx_HAL_Driver/Src/stm32f4xx_hal_i2s_ex.c ****       {
 743              		.loc 1 350 15 is_stmt 0 view .LVU246
 744 0230 638D     		ldrh	r3, [r4, #42]
 745 0232 9BB2     		uxth	r3, r3
 350:Drivers/STM32F4xx_HAL_Driver/Src/stm32f4xx_hal_i2s_ex.c ****       {
 746              		.loc 1 350 10 view .LVU247
 747 0234 63B9     		cbnz	r3, .L92
 748              	.L57:
 374:Drivers/STM32F4xx_HAL_Driver/Src/stm32f4xx_hal_i2s_ex.c ****       {
 749              		.loc 1 374 7 is_stmt 1 view .LVU248
 374:Drivers/STM32F4xx_HAL_Driver/Src/stm32f4xx_hal_i2s_ex.c ****       {
 750              		.loc 1 374 15 is_stmt 0 view .LVU249
 751 0236 638E     		ldrh	r3, [r4, #50]
 752 0238 9BB2     		uxth	r3, r3
 374:Drivers/STM32F4xx_HAL_Driver/Src/stm32f4xx_hal_i2s_ex.c ****       {
 753              		.loc 1 374 10 view .LVU250
 754 023a 002B     		cmp	r3, #0
 755 023c 44D1     		bne	.L93
 756              	.L63:
 348:Drivers/STM32F4xx_HAL_Driver/Src/stm32f4xx_hal_i2s_ex.c ****     {
 757              		.loc 1 348 37 is_stmt 1 view .LVU251
 348:Drivers/STM32F4xx_HAL_Driver/Src/stm32f4xx_hal_i2s_ex.c ****     {
 758              		.loc 1 348 17 is_stmt 0 view .LVU252
 759 023e 638E     		ldrh	r3, [r4, #50]
 760 0240 9BB2     		uxth	r3, r3
 348:Drivers/STM32F4xx_HAL_Driver/Src/stm32f4xx_hal_i2s_ex.c ****     {
 761              		.loc 1 348 37 view .LVU253
ARM GAS  /tmp/cc74GRYw.s 			page 38


 762 0242 002B     		cmp	r3, #0
 763 0244 F4D1     		bne	.L64
 348:Drivers/STM32F4xx_HAL_Driver/Src/stm32f4xx_hal_i2s_ex.c ****     {
 764              		.loc 1 348 45 discriminator 1 view .LVU254
 765 0246 638D     		ldrh	r3, [r4, #42]
 766 0248 9BB2     		uxth	r3, r3
 348:Drivers/STM32F4xx_HAL_Driver/Src/stm32f4xx_hal_i2s_ex.c ****     {
 767              		.loc 1 348 37 discriminator 1 view .LVU255
 768 024a 002B     		cmp	r3, #0
 769 024c F0D1     		bne	.L64
 770 024e 57E7     		b	.L53
 771              	.L92:
 353:Drivers/STM32F4xx_HAL_Driver/Src/stm32f4xx_hal_i2s_ex.c ****         {
 772              		.loc 1 353 9 is_stmt 1 view .LVU256
 353:Drivers/STM32F4xx_HAL_Driver/Src/stm32f4xx_hal_i2s_ex.c ****         {
 773              		.loc 1 353 13 is_stmt 0 view .LVU257
 774 0250 0122     		movs	r2, #1
 775 0252 0092     		str	r2, [sp]
 776 0254 3B46     		mov	r3, r7
 777 0256 0221     		movs	r1, #2
 778 0258 2046     		mov	r0, r4
 779 025a FFF7FEFF 		bl	I2SEx_FullDuplexWaitFlagStateUntilTimeout
 780              	.LVL33:
 353:Drivers/STM32F4xx_HAL_Driver/Src/stm32f4xx_hal_i2s_ex.c ****         {
 781              		.loc 1 353 12 discriminator 1 view .LVU258
 782 025e 20BB     		cbnz	r0, .L94
 361:Drivers/STM32F4xx_HAL_Driver/Src/stm32f4xx_hal_i2s_ex.c ****         hi2s->TxXferCount--;
 783              		.loc 1 361 9 is_stmt 1 view .LVU259
 784              	.LVL34:
 361:Drivers/STM32F4xx_HAL_Driver/Src/stm32f4xx_hal_i2s_ex.c ****         hi2s->TxXferCount--;
 785              		.loc 1 361 40 is_stmt 0 view .LVU260
 786 0260 35F8022B 		ldrh	r2, [r5], #2
 787              	.LVL35:
 361:Drivers/STM32F4xx_HAL_Driver/Src/stm32f4xx_hal_i2s_ex.c ****         hi2s->TxXferCount--;
 788              		.loc 1 361 9 view .LVU261
 789 0264 2168     		ldr	r1, [r4]
 790 0266 164B     		ldr	r3, .L98
 791 0268 9942     		cmp	r1, r3
 792 026a 23D0     		beq	.L95
 361:Drivers/STM32F4xx_HAL_Driver/Src/stm32f4xx_hal_i2s_ex.c ****         hi2s->TxXferCount--;
 793              		.loc 1 361 9 discriminator 2 view .LVU262
 794 026c 4FF04023 		mov	r3, #1073758208
 795              	.L59:
 361:Drivers/STM32F4xx_HAL_Driver/Src/stm32f4xx_hal_i2s_ex.c ****         hi2s->TxXferCount--;
 796              		.loc 1 361 37 discriminator 4 view .LVU263
 797 0270 DA60     		str	r2, [r3, #12]
 362:Drivers/STM32F4xx_HAL_Driver/Src/stm32f4xx_hal_i2s_ex.c **** 
 798              		.loc 1 362 9 is_stmt 1 view .LVU264
 362:Drivers/STM32F4xx_HAL_Driver/Src/stm32f4xx_hal_i2s_ex.c **** 
 799              		.loc 1 362 13 is_stmt 0 view .LVU265
 800 0272 638D     		ldrh	r3, [r4, #42]
 801 0274 9BB2     		uxth	r3, r3
 362:Drivers/STM32F4xx_HAL_Driver/Src/stm32f4xx_hal_i2s_ex.c **** 
 802              		.loc 1 362 26 view .LVU266
 803 0276 013B     		subs	r3, r3, #1
 804 0278 9BB2     		uxth	r3, r3
 805 027a 6385     		strh	r3, [r4, #42]	@ movhi
ARM GAS  /tmp/cc74GRYw.s 			page 39


 365:Drivers/STM32F4xx_HAL_Driver/Src/stm32f4xx_hal_i2s_ex.c ****         {
 806              		.loc 1 365 9 is_stmt 1 view .LVU267
 365:Drivers/STM32F4xx_HAL_Driver/Src/stm32f4xx_hal_i2s_ex.c ****         {
 807              		.loc 1 365 14 is_stmt 0 view .LVU268
 808 027c 2368     		ldr	r3, [r4]
 809 027e 104A     		ldr	r2, .L98
 810 0280 9342     		cmp	r3, r2
 811 0282 1AD0     		beq	.L96
 365:Drivers/STM32F4xx_HAL_Driver/Src/stm32f4xx_hal_i2s_ex.c ****         {
 812              		.loc 1 365 14 discriminator 2 view .LVU269
 813 0284 4FF04022 		mov	r2, #1073758208
 814              	.L60:
 365:Drivers/STM32F4xx_HAL_Driver/Src/stm32f4xx_hal_i2s_ex.c ****         {
 815              		.loc 1 365 14 discriminator 4 view .LVU270
 816 0288 9268     		ldr	r2, [r2, #8]
 365:Drivers/STM32F4xx_HAL_Driver/Src/stm32f4xx_hal_i2s_ex.c ****         {
 817              		.loc 1 365 12 discriminator 4 view .LVU271
 818 028a 12F0080F 		tst	r2, #8
 819 028e D2D0     		beq	.L57
 365:Drivers/STM32F4xx_HAL_Driver/Src/stm32f4xx_hal_i2s_ex.c ****         {
 820              		.loc 1 365 64 discriminator 5 view .LVU272
 821 0290 B9F5807F 		cmp	r9, #256
 822 0294 CFD1     		bne	.L57
 368:Drivers/STM32F4xx_HAL_Driver/Src/stm32f4xx_hal_i2s_ex.c **** 
 823              		.loc 1 368 11 is_stmt 1 view .LVU273
 824              	.LBB7:
 368:Drivers/STM32F4xx_HAL_Driver/Src/stm32f4xx_hal_i2s_ex.c **** 
 825              		.loc 1 368 11 view .LVU274
 826 0296 0022     		movs	r2, #0
 827 0298 0692     		str	r2, [sp, #24]
 368:Drivers/STM32F4xx_HAL_Driver/Src/stm32f4xx_hal_i2s_ex.c **** 
 828              		.loc 1 368 11 view .LVU275
 829 029a 9B68     		ldr	r3, [r3, #8]
 830 029c 0693     		str	r3, [sp, #24]
 368:Drivers/STM32F4xx_HAL_Driver/Src/stm32f4xx_hal_i2s_ex.c **** 
 831              		.loc 1 368 11 view .LVU276
 832 029e 069B     		ldr	r3, [sp, #24]
 833              	.LBE7:
 368:Drivers/STM32F4xx_HAL_Driver/Src/stm32f4xx_hal_i2s_ex.c **** 
 834              		.loc 1 368 11 view .LVU277
 371:Drivers/STM32F4xx_HAL_Driver/Src/stm32f4xx_hal_i2s_ex.c ****         }
 835              		.loc 1 371 11 view .LVU278
 836 02a0 636C     		ldr	r3, [r4, #68]
 837 02a2 43F00403 		orr	r3, r3, #4
 838 02a6 6364     		str	r3, [r4, #68]
 839 02a8 C5E7     		b	.L57
 840              	.L94:
 356:Drivers/STM32F4xx_HAL_Driver/Src/stm32f4xx_hal_i2s_ex.c ****           errorcode = HAL_ERROR;
 841              		.loc 1 356 11 view .LVU279
 842 02aa 636C     		ldr	r3, [r4, #68]
 843 02ac 43F00103 		orr	r3, r3, #1
 844 02b0 6364     		str	r3, [r4, #68]
 357:Drivers/STM32F4xx_HAL_Driver/Src/stm32f4xx_hal_i2s_ex.c ****           goto error;
 845              		.loc 1 357 11 view .LVU280
 846              	.LVL36:
 358:Drivers/STM32F4xx_HAL_Driver/Src/stm32f4xx_hal_i2s_ex.c ****         }
 847              		.loc 1 358 11 view .LVU281
ARM GAS  /tmp/cc74GRYw.s 			page 40


 848 02b2 33E0     		b	.L35
 849              	.LVL37:
 850              	.L95:
 361:Drivers/STM32F4xx_HAL_Driver/Src/stm32f4xx_hal_i2s_ex.c ****         hi2s->TxXferCount--;
 851              		.loc 1 361 9 is_stmt 0 discriminator 1 view .LVU282
 852 02b4 A3F58063 		sub	r3, r3, #1024
 853 02b8 DAE7     		b	.L59
 854              	.L96:
 365:Drivers/STM32F4xx_HAL_Driver/Src/stm32f4xx_hal_i2s_ex.c ****         {
 855              		.loc 1 365 14 discriminator 1 view .LVU283
 856 02ba A2F58062 		sub	r2, r2, #1024
 857 02be E3E7     		b	.L60
 858              	.L99:
 859              		.align	2
 860              	.L98:
 861 02c0 00380040 		.word	1073756160
 862 02c4 00340040 		.word	1073755136
 863              	.L93:
 377:Drivers/STM32F4xx_HAL_Driver/Src/stm32f4xx_hal_i2s_ex.c ****         {
 864              		.loc 1 377 9 is_stmt 1 view .LVU284
 377:Drivers/STM32F4xx_HAL_Driver/Src/stm32f4xx_hal_i2s_ex.c ****         {
 865              		.loc 1 377 13 is_stmt 0 view .LVU285
 866 02c8 0023     		movs	r3, #0
 867 02ca 0093     		str	r3, [sp]
 868 02cc 3B46     		mov	r3, r7
 869 02ce 0122     		movs	r2, #1
 870 02d0 1146     		mov	r1, r2
 871 02d2 2046     		mov	r0, r4
 872 02d4 FFF7FEFF 		bl	I2SEx_FullDuplexWaitFlagStateUntilTimeout
 873              	.LVL38:
 377:Drivers/STM32F4xx_HAL_Driver/Src/stm32f4xx_hal_i2s_ex.c ****         {
 874              		.loc 1 377 12 discriminator 1 view .LVU286
 875 02d8 C8B9     		cbnz	r0, .L97
 385:Drivers/STM32F4xx_HAL_Driver/Src/stm32f4xx_hal_i2s_ex.c ****         hi2s->RxXferCount--;
 876              		.loc 1 385 9 is_stmt 1 view .LVU287
 385:Drivers/STM32F4xx_HAL_Driver/Src/stm32f4xx_hal_i2s_ex.c ****         hi2s->RxXferCount--;
 877              		.loc 1 385 28 is_stmt 0 view .LVU288
 878 02da 2368     		ldr	r3, [r4]
 385:Drivers/STM32F4xx_HAL_Driver/Src/stm32f4xx_hal_i2s_ex.c ****         hi2s->RxXferCount--;
 879              		.loc 1 385 38 view .LVU289
 880 02dc DB68     		ldr	r3, [r3, #12]
 881              	.LVL39:
 385:Drivers/STM32F4xx_HAL_Driver/Src/stm32f4xx_hal_i2s_ex.c ****         hi2s->RxXferCount--;
 882              		.loc 1 385 22 view .LVU290
 883 02de 26F8023B 		strh	r3, [r6], #2	@ movhi
 884              	.LVL40:
 386:Drivers/STM32F4xx_HAL_Driver/Src/stm32f4xx_hal_i2s_ex.c **** 
 885              		.loc 1 386 9 is_stmt 1 view .LVU291
 386:Drivers/STM32F4xx_HAL_Driver/Src/stm32f4xx_hal_i2s_ex.c **** 
 886              		.loc 1 386 13 is_stmt 0 view .LVU292
 887 02e2 638E     		ldrh	r3, [r4, #50]
 888 02e4 9BB2     		uxth	r3, r3
 386:Drivers/STM32F4xx_HAL_Driver/Src/stm32f4xx_hal_i2s_ex.c **** 
 889              		.loc 1 386 26 view .LVU293
 890 02e6 013B     		subs	r3, r3, #1
 891 02e8 9BB2     		uxth	r3, r3
 892 02ea 6386     		strh	r3, [r4, #50]	@ movhi
ARM GAS  /tmp/cc74GRYw.s 			page 41


 389:Drivers/STM32F4xx_HAL_Driver/Src/stm32f4xx_hal_i2s_ex.c ****         {
 893              		.loc 1 389 9 is_stmt 1 view .LVU294
 389:Drivers/STM32F4xx_HAL_Driver/Src/stm32f4xx_hal_i2s_ex.c ****         {
 894              		.loc 1 389 13 is_stmt 0 view .LVU295
 895 02ec 2368     		ldr	r3, [r4]
 896 02ee 9A68     		ldr	r2, [r3, #8]
 389:Drivers/STM32F4xx_HAL_Driver/Src/stm32f4xx_hal_i2s_ex.c ****         {
 897              		.loc 1 389 12 view .LVU296
 898 02f0 12F0400F 		tst	r2, #64
 899 02f4 A3D0     		beq	.L63
 392:Drivers/STM32F4xx_HAL_Driver/Src/stm32f4xx_hal_i2s_ex.c **** 
 900              		.loc 1 392 11 is_stmt 1 view .LVU297
 901              	.LBB8:
 392:Drivers/STM32F4xx_HAL_Driver/Src/stm32f4xx_hal_i2s_ex.c **** 
 902              		.loc 1 392 11 view .LVU298
 903 02f6 0022     		movs	r2, #0
 904 02f8 0792     		str	r2, [sp, #28]
 392:Drivers/STM32F4xx_HAL_Driver/Src/stm32f4xx_hal_i2s_ex.c **** 
 905              		.loc 1 392 11 view .LVU299
 906 02fa DA68     		ldr	r2, [r3, #12]
 907 02fc 0792     		str	r2, [sp, #28]
 392:Drivers/STM32F4xx_HAL_Driver/Src/stm32f4xx_hal_i2s_ex.c **** 
 908              		.loc 1 392 11 view .LVU300
 909 02fe 9B68     		ldr	r3, [r3, #8]
 910 0300 0793     		str	r3, [sp, #28]
 392:Drivers/STM32F4xx_HAL_Driver/Src/stm32f4xx_hal_i2s_ex.c **** 
 911              		.loc 1 392 11 view .LVU301
 912 0302 079B     		ldr	r3, [sp, #28]
 913              	.LBE8:
 392:Drivers/STM32F4xx_HAL_Driver/Src/stm32f4xx_hal_i2s_ex.c **** 
 914              		.loc 1 392 11 view .LVU302
 395:Drivers/STM32F4xx_HAL_Driver/Src/stm32f4xx_hal_i2s_ex.c ****         }
 915              		.loc 1 395 11 view .LVU303
 916 0304 636C     		ldr	r3, [r4, #68]
 917 0306 43F00203 		orr	r3, r3, #2
 918 030a 6364     		str	r3, [r4, #68]
 919 030c 97E7     		b	.L63
 920              	.L97:
 380:Drivers/STM32F4xx_HAL_Driver/Src/stm32f4xx_hal_i2s_ex.c ****           errorcode = HAL_ERROR;
 921              		.loc 1 380 11 view .LVU304
 922 030e 636C     		ldr	r3, [r4, #68]
 923 0310 43F00103 		orr	r3, r3, #1
 924 0314 6364     		str	r3, [r4, #68]
 381:Drivers/STM32F4xx_HAL_Driver/Src/stm32f4xx_hal_i2s_ex.c ****           goto error;
 925              		.loc 1 381 11 view .LVU305
 926              	.LVL41:
 382:Drivers/STM32F4xx_HAL_Driver/Src/stm32f4xx_hal_i2s_ex.c ****         }
 927              		.loc 1 382 11 view .LVU306
 928 0316 01E0     		b	.L35
 929              	.LVL42:
 930              	.L65:
 217:Drivers/STM32F4xx_HAL_Driver/Src/stm32f4xx_hal_i2s_ex.c ****     goto error;
 931              		.loc 1 217 15 is_stmt 0 view .LVU307
 932 0318 4FF00208 		mov	r8, #2
 933              	.LVL43:
 934              	.L35:
 407:Drivers/STM32F4xx_HAL_Driver/Src/stm32f4xx_hal_i2s_ex.c ****   __HAL_UNLOCK(hi2s);
ARM GAS  /tmp/cc74GRYw.s 			page 42


 935              		.loc 1 407 3 is_stmt 1 view .LVU308
 407:Drivers/STM32F4xx_HAL_Driver/Src/stm32f4xx_hal_i2s_ex.c ****   __HAL_UNLOCK(hi2s);
 936              		.loc 1 407 15 is_stmt 0 view .LVU309
 937 031c 0123     		movs	r3, #1
 938 031e 84F84130 		strb	r3, [r4, #65]
 408:Drivers/STM32F4xx_HAL_Driver/Src/stm32f4xx_hal_i2s_ex.c ****   return errorcode;
 939              		.loc 1 408 3 is_stmt 1 view .LVU310
 408:Drivers/STM32F4xx_HAL_Driver/Src/stm32f4xx_hal_i2s_ex.c ****   return errorcode;
 940              		.loc 1 408 3 view .LVU311
 941 0322 0023     		movs	r3, #0
 942 0324 84F84030 		strb	r3, [r4, #64]
 408:Drivers/STM32F4xx_HAL_Driver/Src/stm32f4xx_hal_i2s_ex.c ****   return errorcode;
 943              		.loc 1 408 3 view .LVU312
 409:Drivers/STM32F4xx_HAL_Driver/Src/stm32f4xx_hal_i2s_ex.c **** }
 944              		.loc 1 409 3 view .LVU313
 945              	.LVL44:
 946              	.L36:
 410:Drivers/STM32F4xx_HAL_Driver/Src/stm32f4xx_hal_i2s_ex.c **** 
 947              		.loc 1 410 1 is_stmt 0 view .LVU314
 948 0328 4046     		mov	r0, r8
 949 032a 09B0     		add	sp, sp, #36
 950              		.cfi_remember_state
 951              		.cfi_def_cfa_offset 28
 952              		@ sp needed
 953 032c BDE8F083 		pop	{r4, r5, r6, r7, r8, r9, pc}
 954              	.LVL45:
 955              	.L66:
 956              		.cfi_restore_state
 227:Drivers/STM32F4xx_HAL_Driver/Src/stm32f4xx_hal_i2s_ex.c **** 
 957              		.loc 1 227 3 discriminator 1 view .LVU315
 958 0330 4FF00208 		mov	r8, #2
 959 0334 F8E7     		b	.L36
 960              		.cfi_endproc
 961              	.LFE130:
 963 0336 00BF     		.section	.text.HAL_I2SEx_TransmitReceive_IT,"ax",%progbits
 964              		.align	1
 965              		.global	HAL_I2SEx_TransmitReceive_IT
 966              		.syntax unified
 967              		.thumb
 968              		.thumb_func
 970              	HAL_I2SEx_TransmitReceive_IT:
 971              	.LVL46:
 972              	.LFB131:
 431:Drivers/STM32F4xx_HAL_Driver/Src/stm32f4xx_hal_i2s_ex.c ****   uint32_t tmp1 = 0U;
 973              		.loc 1 431 1 is_stmt 1 view -0
 974              		.cfi_startproc
 975              		@ args = 0, pretend = 0, frame = 0
 976              		@ frame_needed = 0, uses_anonymous_args = 0
 431:Drivers/STM32F4xx_HAL_Driver/Src/stm32f4xx_hal_i2s_ex.c ****   uint32_t tmp1 = 0U;
 977              		.loc 1 431 1 is_stmt 0 view .LVU317
 978 0000 00B5     		push	{lr}
 979              		.cfi_def_cfa_offset 4
 980              		.cfi_offset 14, -4
 981 0002 8446     		mov	ip, r0
 432:Drivers/STM32F4xx_HAL_Driver/Src/stm32f4xx_hal_i2s_ex.c ****   HAL_StatusTypeDef errorcode = HAL_OK;
 982              		.loc 1 432 3 is_stmt 1 view .LVU318
 983              	.LVL47:
ARM GAS  /tmp/cc74GRYw.s 			page 43


 433:Drivers/STM32F4xx_HAL_Driver/Src/stm32f4xx_hal_i2s_ex.c **** 
 984              		.loc 1 433 3 view .LVU319
 435:Drivers/STM32F4xx_HAL_Driver/Src/stm32f4xx_hal_i2s_ex.c ****   {
 985              		.loc 1 435 3 view .LVU320
 435:Drivers/STM32F4xx_HAL_Driver/Src/stm32f4xx_hal_i2s_ex.c ****   {
 986              		.loc 1 435 11 is_stmt 0 view .LVU321
 987 0004 90F841E0 		ldrb	lr, [r0, #65]	@ zero_extendqisi2
 435:Drivers/STM32F4xx_HAL_Driver/Src/stm32f4xx_hal_i2s_ex.c ****   {
 988              		.loc 1 435 6 view .LVU322
 989 0008 BEF1010F 		cmp	lr, #1
 990 000c 40F0BC80 		bne	.L114
 991 0010 5FFA8EF0 		uxtb	r0, lr
 992              	.LVL48:
 441:Drivers/STM32F4xx_HAL_Driver/Src/stm32f4xx_hal_i2s_ex.c ****   {
 993              		.loc 1 441 3 is_stmt 1 view .LVU323
 441:Drivers/STM32F4xx_HAL_Driver/Src/stm32f4xx_hal_i2s_ex.c ****   {
 994              		.loc 1 441 6 is_stmt 0 view .LVU324
 995 0014 0029     		cmp	r1, #0
 996 0016 00F0BB80 		beq	.L102
 441:Drivers/STM32F4xx_HAL_Driver/Src/stm32f4xx_hal_i2s_ex.c ****   {
 997              		.loc 1 441 25 discriminator 1 view .LVU325
 998 001a 002A     		cmp	r2, #0
 999 001c 00F0B880 		beq	.L102
 441:Drivers/STM32F4xx_HAL_Driver/Src/stm32f4xx_hal_i2s_ex.c ****   {
 1000              		.loc 1 441 46 discriminator 2 view .LVU326
 1001 0020 002B     		cmp	r3, #0
 1002 0022 00F0B580 		beq	.L102
 447:Drivers/STM32F4xx_HAL_Driver/Src/stm32f4xx_hal_i2s_ex.c **** 
 1003              		.loc 1 447 3 is_stmt 1 view .LVU327
 447:Drivers/STM32F4xx_HAL_Driver/Src/stm32f4xx_hal_i2s_ex.c **** 
 1004              		.loc 1 447 3 view .LVU328
 1005 0026 9CF84000 		ldrb	r0, [ip, #64]	@ zero_extendqisi2
 1006 002a 0128     		cmp	r0, #1
 1007 002c 00F0B280 		beq	.L115
 447:Drivers/STM32F4xx_HAL_Driver/Src/stm32f4xx_hal_i2s_ex.c **** 
 1008              		.loc 1 447 3 discriminator 2 view .LVU329
 1009 0030 0120     		movs	r0, #1
 1010 0032 8CF84000 		strb	r0, [ip, #64]
 447:Drivers/STM32F4xx_HAL_Driver/Src/stm32f4xx_hal_i2s_ex.c **** 
 1011              		.loc 1 447 3 view .LVU330
 449:Drivers/STM32F4xx_HAL_Driver/Src/stm32f4xx_hal_i2s_ex.c ****   hi2s->pRxBuffPtr = pRxData;
 1012              		.loc 1 449 3 view .LVU331
 449:Drivers/STM32F4xx_HAL_Driver/Src/stm32f4xx_hal_i2s_ex.c ****   hi2s->pRxBuffPtr = pRxData;
 1013              		.loc 1 449 20 is_stmt 0 view .LVU332
 1014 0036 CCF82410 		str	r1, [ip, #36]
 450:Drivers/STM32F4xx_HAL_Driver/Src/stm32f4xx_hal_i2s_ex.c **** 
 1015              		.loc 1 450 3 is_stmt 1 view .LVU333
 450:Drivers/STM32F4xx_HAL_Driver/Src/stm32f4xx_hal_i2s_ex.c **** 
 1016              		.loc 1 450 20 is_stmt 0 view .LVU334
 1017 003a CCF82C20 		str	r2, [ip, #44]
 452:Drivers/STM32F4xx_HAL_Driver/Src/stm32f4xx_hal_i2s_ex.c ****   /* Check the Data format: When a 16-bit data frame or a 16-bit data frame extended
 1018              		.loc 1 452 3 is_stmt 1 view .LVU335
 452:Drivers/STM32F4xx_HAL_Driver/Src/stm32f4xx_hal_i2s_ex.c ****   /* Check the Data format: When a 16-bit data frame or a 16-bit data frame extended
 1019              		.loc 1 452 14 is_stmt 0 view .LVU336
 1020 003e DCF80010 		ldr	r1, [ip]
 1021              	.LVL49:
 452:Drivers/STM32F4xx_HAL_Driver/Src/stm32f4xx_hal_i2s_ex.c ****   /* Check the Data format: When a 16-bit data frame or a 16-bit data frame extended
ARM GAS  /tmp/cc74GRYw.s 			page 44


 1022              		.loc 1 452 24 view .LVU337
 1023 0042 CA69     		ldr	r2, [r1, #28]
 1024              	.LVL50:
 452:Drivers/STM32F4xx_HAL_Driver/Src/stm32f4xx_hal_i2s_ex.c ****   /* Check the Data format: When a 16-bit data frame or a 16-bit data frame extended
 1025              		.loc 1 452 8 view .LVU338
 1026 0044 02F00702 		and	r2, r2, #7
 1027              	.LVL51:
 457:Drivers/STM32F4xx_HAL_Driver/Src/stm32f4xx_hal_i2s_ex.c ****   {
 1028              		.loc 1 457 3 is_stmt 1 view .LVU339
 457:Drivers/STM32F4xx_HAL_Driver/Src/stm32f4xx_hal_i2s_ex.c ****   {
 1029              		.loc 1 457 6 is_stmt 0 view .LVU340
 1030 0048 032A     		cmp	r2, #3
 1031 004a 0AD0     		beq	.L103
 457:Drivers/STM32F4xx_HAL_Driver/Src/stm32f4xx_hal_i2s_ex.c ****   {
 1032              		.loc 1 457 36 discriminator 1 view .LVU341
 1033 004c 052A     		cmp	r2, #5
 1034 004e 08D0     		beq	.L103
 466:Drivers/STM32F4xx_HAL_Driver/Src/stm32f4xx_hal_i2s_ex.c ****     hi2s->TxXferCount = Size;
 1035              		.loc 1 466 5 is_stmt 1 view .LVU342
 466:Drivers/STM32F4xx_HAL_Driver/Src/stm32f4xx_hal_i2s_ex.c ****     hi2s->TxXferCount = Size;
 1036              		.loc 1 466 23 is_stmt 0 view .LVU343
 1037 0050 ACF82830 		strh	r3, [ip, #40]	@ movhi
 467:Drivers/STM32F4xx_HAL_Driver/Src/stm32f4xx_hal_i2s_ex.c ****     hi2s->RxXferSize  = Size;
 1038              		.loc 1 467 5 is_stmt 1 view .LVU344
 467:Drivers/STM32F4xx_HAL_Driver/Src/stm32f4xx_hal_i2s_ex.c ****     hi2s->RxXferSize  = Size;
 1039              		.loc 1 467 23 is_stmt 0 view .LVU345
 1040 0054 ACF82A30 		strh	r3, [ip, #42]	@ movhi
 468:Drivers/STM32F4xx_HAL_Driver/Src/stm32f4xx_hal_i2s_ex.c ****     hi2s->RxXferCount = Size;
 1041              		.loc 1 468 5 is_stmt 1 view .LVU346
 468:Drivers/STM32F4xx_HAL_Driver/Src/stm32f4xx_hal_i2s_ex.c ****     hi2s->RxXferCount = Size;
 1042              		.loc 1 468 23 is_stmt 0 view .LVU347
 1043 0058 ACF83030 		strh	r3, [ip, #48]	@ movhi
 469:Drivers/STM32F4xx_HAL_Driver/Src/stm32f4xx_hal_i2s_ex.c ****   }
 1044              		.loc 1 469 5 is_stmt 1 view .LVU348
 469:Drivers/STM32F4xx_HAL_Driver/Src/stm32f4xx_hal_i2s_ex.c ****   }
 1045              		.loc 1 469 23 is_stmt 0 view .LVU349
 1046 005c ACF83230 		strh	r3, [ip, #50]	@ movhi
 1047 0060 09E0     		b	.L105
 1048              	.L103:
 459:Drivers/STM32F4xx_HAL_Driver/Src/stm32f4xx_hal_i2s_ex.c ****     hi2s->TxXferCount = (Size << 1U);
 1049              		.loc 1 459 5 is_stmt 1 view .LVU350
 459:Drivers/STM32F4xx_HAL_Driver/Src/stm32f4xx_hal_i2s_ex.c ****     hi2s->TxXferCount = (Size << 1U);
 1050              		.loc 1 459 31 is_stmt 0 view .LVU351
 1051 0062 5B00     		lsls	r3, r3, #1
 1052              	.LVL52:
 459:Drivers/STM32F4xx_HAL_Driver/Src/stm32f4xx_hal_i2s_ex.c ****     hi2s->TxXferCount = (Size << 1U);
 1053              		.loc 1 459 31 view .LVU352
 1054 0064 9BB2     		uxth	r3, r3
 459:Drivers/STM32F4xx_HAL_Driver/Src/stm32f4xx_hal_i2s_ex.c ****     hi2s->TxXferCount = (Size << 1U);
 1055              		.loc 1 459 23 view .LVU353
 1056 0066 ACF82830 		strh	r3, [ip, #40]	@ movhi
 460:Drivers/STM32F4xx_HAL_Driver/Src/stm32f4xx_hal_i2s_ex.c ****     hi2s->RxXferSize  = (Size << 1U);
 1057              		.loc 1 460 5 is_stmt 1 view .LVU354
 460:Drivers/STM32F4xx_HAL_Driver/Src/stm32f4xx_hal_i2s_ex.c ****     hi2s->RxXferSize  = (Size << 1U);
 1058              		.loc 1 460 23 is_stmt 0 view .LVU355
 1059 006a ACF82A30 		strh	r3, [ip, #42]	@ movhi
 461:Drivers/STM32F4xx_HAL_Driver/Src/stm32f4xx_hal_i2s_ex.c ****     hi2s->RxXferCount = (Size << 1U);
ARM GAS  /tmp/cc74GRYw.s 			page 45


 1060              		.loc 1 461 5 is_stmt 1 view .LVU356
 461:Drivers/STM32F4xx_HAL_Driver/Src/stm32f4xx_hal_i2s_ex.c ****     hi2s->RxXferCount = (Size << 1U);
 1061              		.loc 1 461 23 is_stmt 0 view .LVU357
 1062 006e ACF83030 		strh	r3, [ip, #48]	@ movhi
 462:Drivers/STM32F4xx_HAL_Driver/Src/stm32f4xx_hal_i2s_ex.c ****   }
 1063              		.loc 1 462 5 is_stmt 1 view .LVU358
 462:Drivers/STM32F4xx_HAL_Driver/Src/stm32f4xx_hal_i2s_ex.c ****   }
 1064              		.loc 1 462 23 is_stmt 0 view .LVU359
 1065 0072 ACF83230 		strh	r3, [ip, #50]	@ movhi
 1066              	.L105:
 472:Drivers/STM32F4xx_HAL_Driver/Src/stm32f4xx_hal_i2s_ex.c ****   hi2s->State     = HAL_I2S_STATE_BUSY_TX_RX;
 1067              		.loc 1 472 3 is_stmt 1 view .LVU360
 472:Drivers/STM32F4xx_HAL_Driver/Src/stm32f4xx_hal_i2s_ex.c ****   hi2s->State     = HAL_I2S_STATE_BUSY_TX_RX;
 1068              		.loc 1 472 19 is_stmt 0 view .LVU361
 1069 0076 0023     		movs	r3, #0
 1070 0078 CCF84430 		str	r3, [ip, #68]
 473:Drivers/STM32F4xx_HAL_Driver/Src/stm32f4xx_hal_i2s_ex.c **** 
 1071              		.loc 1 473 3 is_stmt 1 view .LVU362
 473:Drivers/STM32F4xx_HAL_Driver/Src/stm32f4xx_hal_i2s_ex.c **** 
 1072              		.loc 1 473 19 is_stmt 0 view .LVU363
 1073 007c 0523     		movs	r3, #5
 1074 007e 8CF84130 		strb	r3, [ip, #65]
 476:Drivers/STM32F4xx_HAL_Driver/Src/stm32f4xx_hal_i2s_ex.c ****   {
 1075              		.loc 1 476 3 is_stmt 1 view .LVU364
 476:Drivers/STM32F4xx_HAL_Driver/Src/stm32f4xx_hal_i2s_ex.c ****   {
 1076              		.loc 1 476 18 is_stmt 0 view .LVU365
 1077 0082 DCF80430 		ldr	r3, [ip, #4]
 476:Drivers/STM32F4xx_HAL_Driver/Src/stm32f4xx_hal_i2s_ex.c ****   {
 1078              		.loc 1 476 6 view .LVU366
 1079 0086 B3F5007F 		cmp	r3, #512
 1080 008a 01D0     		beq	.L106
 476:Drivers/STM32F4xx_HAL_Driver/Src/stm32f4xx_hal_i2s_ex.c ****   {
 1081              		.loc 1 476 47 discriminator 1 view .LVU367
 1082 008c 002B     		cmp	r3, #0
 1083 008e 3DD1     		bne	.L107
 1084              	.L106:
 479:Drivers/STM32F4xx_HAL_Driver/Src/stm32f4xx_hal_i2s_ex.c **** 
 1085              		.loc 1 479 5 is_stmt 1 view .LVU368
 1086 0090 414B     		ldr	r3, .L127
 1087 0092 9942     		cmp	r1, r3
 1088 0094 38D0     		beq	.L122
 479:Drivers/STM32F4xx_HAL_Driver/Src/stm32f4xx_hal_i2s_ex.c **** 
 1089              		.loc 1 479 5 is_stmt 0 discriminator 2 view .LVU369
 1090 0096 4FF04022 		mov	r2, #1073758208
 1091              	.LVL53:
 1092              	.L108:
 479:Drivers/STM32F4xx_HAL_Driver/Src/stm32f4xx_hal_i2s_ex.c **** 
 1093              		.loc 1 479 5 discriminator 4 view .LVU370
 1094 009a 5368     		ldr	r3, [r2, #4]
 479:Drivers/STM32F4xx_HAL_Driver/Src/stm32f4xx_hal_i2s_ex.c **** 
 1095              		.loc 1 479 5 discriminator 8 view .LVU371
 1096 009c 43F06003 		orr	r3, r3, #96
 1097 00a0 5360     		str	r3, [r2, #4]
 1098              	.LVL54:
 482:Drivers/STM32F4xx_HAL_Driver/Src/stm32f4xx_hal_i2s_ex.c **** 
 1099              		.loc 1 482 5 is_stmt 1 view .LVU372
 1100 00a2 DCF80020 		ldr	r2, [ip]
ARM GAS  /tmp/cc74GRYw.s 			page 46


 1101 00a6 5368     		ldr	r3, [r2, #4]
 1102 00a8 43F0A003 		orr	r3, r3, #160
 1103 00ac 5360     		str	r3, [r2, #4]
 485:Drivers/STM32F4xx_HAL_Driver/Src/stm32f4xx_hal_i2s_ex.c ****     hi2s->TxXferCount--;
 1104              		.loc 1 485 5 view .LVU373
 485:Drivers/STM32F4xx_HAL_Driver/Src/stm32f4xx_hal_i2s_ex.c ****     hi2s->TxXferCount--;
 1105              		.loc 1 485 32 is_stmt 0 view .LVU374
 1106 00ae DCF82430 		ldr	r3, [ip, #36]
 485:Drivers/STM32F4xx_HAL_Driver/Src/stm32f4xx_hal_i2s_ex.c ****     hi2s->TxXferCount--;
 1107              		.loc 1 485 44 view .LVU375
 1108 00b2 9A1C     		adds	r2, r3, #2
 1109 00b4 CCF82420 		str	r2, [ip, #36]
 485:Drivers/STM32F4xx_HAL_Driver/Src/stm32f4xx_hal_i2s_ex.c ****     hi2s->TxXferCount--;
 1110              		.loc 1 485 9 view .LVU376
 1111 00b8 DCF80020 		ldr	r2, [ip]
 485:Drivers/STM32F4xx_HAL_Driver/Src/stm32f4xx_hal_i2s_ex.c ****     hi2s->TxXferCount--;
 1112              		.loc 1 485 27 view .LVU377
 1113 00bc 1B88     		ldrh	r3, [r3]
 485:Drivers/STM32F4xx_HAL_Driver/Src/stm32f4xx_hal_i2s_ex.c ****     hi2s->TxXferCount--;
 1114              		.loc 1 485 24 view .LVU378
 1115 00be D360     		str	r3, [r2, #12]
 486:Drivers/STM32F4xx_HAL_Driver/Src/stm32f4xx_hal_i2s_ex.c **** 
 1116              		.loc 1 486 5 is_stmt 1 view .LVU379
 486:Drivers/STM32F4xx_HAL_Driver/Src/stm32f4xx_hal_i2s_ex.c **** 
 1117              		.loc 1 486 9 is_stmt 0 view .LVU380
 1118 00c0 BCF82A30 		ldrh	r3, [ip, #42]
 1119 00c4 9BB2     		uxth	r3, r3
 486:Drivers/STM32F4xx_HAL_Driver/Src/stm32f4xx_hal_i2s_ex.c **** 
 1120              		.loc 1 486 22 view .LVU381
 1121 00c6 013B     		subs	r3, r3, #1
 1122 00c8 9BB2     		uxth	r3, r3
 1123 00ca ACF82A30 		strh	r3, [ip, #42]	@ movhi
 488:Drivers/STM32F4xx_HAL_Driver/Src/stm32f4xx_hal_i2s_ex.c ****     {
 1124              		.loc 1 488 5 is_stmt 1 view .LVU382
 488:Drivers/STM32F4xx_HAL_Driver/Src/stm32f4xx_hal_i2s_ex.c ****     {
 1125              		.loc 1 488 13 is_stmt 0 view .LVU383
 1126 00ce BCF82A30 		ldrh	r3, [ip, #42]
 1127 00d2 9BB2     		uxth	r3, r3
 488:Drivers/STM32F4xx_HAL_Driver/Src/stm32f4xx_hal_i2s_ex.c ****     {
 1128              		.loc 1 488 8 view .LVU384
 1129 00d4 2BB9     		cbnz	r3, .L109
 491:Drivers/STM32F4xx_HAL_Driver/Src/stm32f4xx_hal_i2s_ex.c ****     }
 1130              		.loc 1 491 7 is_stmt 1 view .LVU385
 1131 00d6 DCF80020 		ldr	r2, [ip]
 1132 00da 5368     		ldr	r3, [r2, #4]
 1133 00dc 23F0A003 		bic	r3, r3, #160
 1134 00e0 5360     		str	r3, [r2, #4]
 1135              	.L109:
 514:Drivers/STM32F4xx_HAL_Driver/Src/stm32f4xx_hal_i2s_ex.c **** 
 1136              		.loc 1 514 3 view .LVU386
 1137 00e2 DCF80020 		ldr	r2, [ip]
 1138 00e6 2C4B     		ldr	r3, .L127
 1139 00e8 9A42     		cmp	r2, r3
 1140 00ea 4BD0     		beq	.L123
 514:Drivers/STM32F4xx_HAL_Driver/Src/stm32f4xx_hal_i2s_ex.c **** 
 1141              		.loc 1 514 3 is_stmt 0 discriminator 2 view .LVU387
 1142 00ec 4FF04022 		mov	r2, #1073758208
ARM GAS  /tmp/cc74GRYw.s 			page 47


 1143              	.L113:
 514:Drivers/STM32F4xx_HAL_Driver/Src/stm32f4xx_hal_i2s_ex.c **** 
 1144              		.loc 1 514 3 discriminator 4 view .LVU388
 1145 00f0 D369     		ldr	r3, [r2, #28]
 514:Drivers/STM32F4xx_HAL_Driver/Src/stm32f4xx_hal_i2s_ex.c **** 
 1146              		.loc 1 514 3 discriminator 8 view .LVU389
 1147 00f2 43F48063 		orr	r3, r3, #1024
 1148 00f6 D361     		str	r3, [r2, #28]
 517:Drivers/STM32F4xx_HAL_Driver/Src/stm32f4xx_hal_i2s_ex.c **** 
 1149              		.loc 1 517 3 is_stmt 1 view .LVU390
 1150 00f8 DCF80020 		ldr	r2, [ip]
 1151 00fc D369     		ldr	r3, [r2, #28]
 1152 00fe 43F48063 		orr	r3, r3, #1024
 1153 0102 D361     		str	r3, [r2, #28]
 433:Drivers/STM32F4xx_HAL_Driver/Src/stm32f4xx_hal_i2s_ex.c **** 
 1154              		.loc 1 433 21 is_stmt 0 view .LVU391
 1155 0104 0020     		movs	r0, #0
 1156 0106 40E0     		b	.L101
 1157              	.LVL55:
 1158              	.L122:
 479:Drivers/STM32F4xx_HAL_Driver/Src/stm32f4xx_hal_i2s_ex.c **** 
 1159              		.loc 1 479 5 discriminator 1 view .LVU392
 1160 0108 244A     		ldr	r2, .L127+4
 1161              	.LVL56:
 479:Drivers/STM32F4xx_HAL_Driver/Src/stm32f4xx_hal_i2s_ex.c **** 
 1162              		.loc 1 479 5 discriminator 1 view .LVU393
 1163 010a C6E7     		b	.L108
 1164              	.LVL57:
 1165              	.L107:
 497:Drivers/STM32F4xx_HAL_Driver/Src/stm32f4xx_hal_i2s_ex.c **** 
 1166              		.loc 1 497 5 is_stmt 1 view .LVU394
 1167 010c 224B     		ldr	r3, .L127
 1168 010e 9942     		cmp	r1, r3
 1169 0110 31D0     		beq	.L124
 497:Drivers/STM32F4xx_HAL_Driver/Src/stm32f4xx_hal_i2s_ex.c **** 
 1170              		.loc 1 497 5 is_stmt 0 discriminator 2 view .LVU395
 1171 0112 4FF04022 		mov	r2, #1073758208
 1172              	.LVL58:
 1173              	.L110:
 497:Drivers/STM32F4xx_HAL_Driver/Src/stm32f4xx_hal_i2s_ex.c **** 
 1174              		.loc 1 497 5 discriminator 4 view .LVU396
 1175 0116 5368     		ldr	r3, [r2, #4]
 497:Drivers/STM32F4xx_HAL_Driver/Src/stm32f4xx_hal_i2s_ex.c **** 
 1176              		.loc 1 497 5 discriminator 8 view .LVU397
 1177 0118 43F0A003 		orr	r3, r3, #160
 1178 011c 5360     		str	r3, [r2, #4]
 1179              	.LVL59:
 500:Drivers/STM32F4xx_HAL_Driver/Src/stm32f4xx_hal_i2s_ex.c **** 
 1180              		.loc 1 500 5 is_stmt 1 view .LVU398
 1181 011e DCF80020 		ldr	r2, [ip]
 1182 0122 5368     		ldr	r3, [r2, #4]
 1183 0124 43F06003 		orr	r3, r3, #96
 1184 0128 5360     		str	r3, [r2, #4]
 503:Drivers/STM32F4xx_HAL_Driver/Src/stm32f4xx_hal_i2s_ex.c ****     hi2s->TxXferCount--;
 1185              		.loc 1 503 5 view .LVU399
 503:Drivers/STM32F4xx_HAL_Driver/Src/stm32f4xx_hal_i2s_ex.c ****     hi2s->TxXferCount--;
 1186              		.loc 1 503 41 is_stmt 0 view .LVU400
ARM GAS  /tmp/cc74GRYw.s 			page 48


 1187 012a DCF82430 		ldr	r3, [ip, #36]
 503:Drivers/STM32F4xx_HAL_Driver/Src/stm32f4xx_hal_i2s_ex.c ****     hi2s->TxXferCount--;
 1188              		.loc 1 503 53 view .LVU401
 1189 012e 9A1C     		adds	r2, r3, #2
 1190 0130 CCF82420 		str	r2, [ip, #36]
 503:Drivers/STM32F4xx_HAL_Driver/Src/stm32f4xx_hal_i2s_ex.c ****     hi2s->TxXferCount--;
 1191              		.loc 1 503 36 view .LVU402
 1192 0134 1A88     		ldrh	r2, [r3]
 503:Drivers/STM32F4xx_HAL_Driver/Src/stm32f4xx_hal_i2s_ex.c ****     hi2s->TxXferCount--;
 1193              		.loc 1 503 5 view .LVU403
 1194 0136 DCF80010 		ldr	r1, [ip]
 1195 013a 174B     		ldr	r3, .L127
 1196 013c 9942     		cmp	r1, r3
 1197 013e 1CD0     		beq	.L125
 503:Drivers/STM32F4xx_HAL_Driver/Src/stm32f4xx_hal_i2s_ex.c ****     hi2s->TxXferCount--;
 1198              		.loc 1 503 5 discriminator 2 view .LVU404
 1199 0140 4FF04023 		mov	r3, #1073758208
 1200              	.L111:
 503:Drivers/STM32F4xx_HAL_Driver/Src/stm32f4xx_hal_i2s_ex.c ****     hi2s->TxXferCount--;
 1201              		.loc 1 503 33 discriminator 4 view .LVU405
 1202 0144 DA60     		str	r2, [r3, #12]
 504:Drivers/STM32F4xx_HAL_Driver/Src/stm32f4xx_hal_i2s_ex.c **** 
 1203              		.loc 1 504 5 is_stmt 1 view .LVU406
 504:Drivers/STM32F4xx_HAL_Driver/Src/stm32f4xx_hal_i2s_ex.c **** 
 1204              		.loc 1 504 9 is_stmt 0 view .LVU407
 1205 0146 BCF82A30 		ldrh	r3, [ip, #42]
 1206 014a 9BB2     		uxth	r3, r3
 504:Drivers/STM32F4xx_HAL_Driver/Src/stm32f4xx_hal_i2s_ex.c **** 
 1207              		.loc 1 504 22 view .LVU408
 1208 014c 013B     		subs	r3, r3, #1
 1209 014e 9BB2     		uxth	r3, r3
 1210 0150 ACF82A30 		strh	r3, [ip, #42]	@ movhi
 506:Drivers/STM32F4xx_HAL_Driver/Src/stm32f4xx_hal_i2s_ex.c ****     {
 1211              		.loc 1 506 5 is_stmt 1 view .LVU409
 506:Drivers/STM32F4xx_HAL_Driver/Src/stm32f4xx_hal_i2s_ex.c ****     {
 1212              		.loc 1 506 13 is_stmt 0 view .LVU410
 1213 0154 BCF82A30 		ldrh	r3, [ip, #42]
 1214 0158 9BB2     		uxth	r3, r3
 506:Drivers/STM32F4xx_HAL_Driver/Src/stm32f4xx_hal_i2s_ex.c ****     {
 1215              		.loc 1 506 8 view .LVU411
 1216 015a 002B     		cmp	r3, #0
 1217 015c C1D1     		bne	.L109
 509:Drivers/STM32F4xx_HAL_Driver/Src/stm32f4xx_hal_i2s_ex.c ****     }
 1218              		.loc 1 509 7 is_stmt 1 view .LVU412
 1219 015e DCF80020 		ldr	r2, [ip]
 1220 0162 0D4B     		ldr	r3, .L127
 1221 0164 9A42     		cmp	r2, r3
 1222 0166 0BD0     		beq	.L126
 509:Drivers/STM32F4xx_HAL_Driver/Src/stm32f4xx_hal_i2s_ex.c ****     }
 1223              		.loc 1 509 7 is_stmt 0 discriminator 2 view .LVU413
 1224 0168 4FF04022 		mov	r2, #1073758208
 1225              	.L112:
 509:Drivers/STM32F4xx_HAL_Driver/Src/stm32f4xx_hal_i2s_ex.c ****     }
 1226              		.loc 1 509 7 discriminator 4 view .LVU414
 1227 016c 5368     		ldr	r3, [r2, #4]
 509:Drivers/STM32F4xx_HAL_Driver/Src/stm32f4xx_hal_i2s_ex.c ****     }
 1228              		.loc 1 509 7 discriminator 8 view .LVU415
ARM GAS  /tmp/cc74GRYw.s 			page 49


 1229 016e 23F0A003 		bic	r3, r3, #160
 1230 0172 5360     		str	r3, [r2, #4]
 1231 0174 B5E7     		b	.L109
 1232              	.LVL60:
 1233              	.L124:
 497:Drivers/STM32F4xx_HAL_Driver/Src/stm32f4xx_hal_i2s_ex.c **** 
 1234              		.loc 1 497 5 discriminator 1 view .LVU416
 1235 0176 094A     		ldr	r2, .L127+4
 1236              	.LVL61:
 497:Drivers/STM32F4xx_HAL_Driver/Src/stm32f4xx_hal_i2s_ex.c **** 
 1237              		.loc 1 497 5 discriminator 1 view .LVU417
 1238 0178 CDE7     		b	.L110
 1239              	.LVL62:
 1240              	.L125:
 503:Drivers/STM32F4xx_HAL_Driver/Src/stm32f4xx_hal_i2s_ex.c ****     hi2s->TxXferCount--;
 1241              		.loc 1 503 5 discriminator 1 view .LVU418
 1242 017a A3F58063 		sub	r3, r3, #1024
 1243 017e E1E7     		b	.L111
 1244              	.L126:
 509:Drivers/STM32F4xx_HAL_Driver/Src/stm32f4xx_hal_i2s_ex.c ****     }
 1245              		.loc 1 509 7 discriminator 1 view .LVU419
 1246 0180 064A     		ldr	r2, .L127+4
 1247 0182 F3E7     		b	.L112
 1248              	.L123:
 514:Drivers/STM32F4xx_HAL_Driver/Src/stm32f4xx_hal_i2s_ex.c **** 
 1249              		.loc 1 514 3 discriminator 1 view .LVU420
 1250 0184 054A     		ldr	r2, .L127+4
 1251 0186 B3E7     		b	.L113
 1252              	.LVL63:
 1253              	.L114:
 437:Drivers/STM32F4xx_HAL_Driver/Src/stm32f4xx_hal_i2s_ex.c ****     goto error;
 1254              		.loc 1 437 15 view .LVU421
 1255 0188 0220     		movs	r0, #2
 1256              	.LVL64:
 1257              	.L101:
 520:Drivers/STM32F4xx_HAL_Driver/Src/stm32f4xx_hal_i2s_ex.c ****   return errorcode;
 1258              		.loc 1 520 3 is_stmt 1 view .LVU422
 520:Drivers/STM32F4xx_HAL_Driver/Src/stm32f4xx_hal_i2s_ex.c ****   return errorcode;
 1259              		.loc 1 520 3 view .LVU423
 1260 018a 0023     		movs	r3, #0
 1261 018c 8CF84030 		strb	r3, [ip, #64]
 520:Drivers/STM32F4xx_HAL_Driver/Src/stm32f4xx_hal_i2s_ex.c ****   return errorcode;
 1262              		.loc 1 520 3 view .LVU424
 521:Drivers/STM32F4xx_HAL_Driver/Src/stm32f4xx_hal_i2s_ex.c **** }
 1263              		.loc 1 521 3 view .LVU425
 1264              	.LVL65:
 1265              	.L102:
 522:Drivers/STM32F4xx_HAL_Driver/Src/stm32f4xx_hal_i2s_ex.c **** 
 1266              		.loc 1 522 1 is_stmt 0 view .LVU426
 1267 0190 5DF804FB 		ldr	pc, [sp], #4
 1268              	.LVL66:
 1269              	.L115:
 447:Drivers/STM32F4xx_HAL_Driver/Src/stm32f4xx_hal_i2s_ex.c **** 
 1270              		.loc 1 447 3 discriminator 1 view .LVU427
 1271 0194 0220     		movs	r0, #2
 1272 0196 FBE7     		b	.L102
 1273              	.L128:
ARM GAS  /tmp/cc74GRYw.s 			page 50


 1274              		.align	2
 1275              	.L127:
 1276 0198 00380040 		.word	1073756160
 1277 019c 00340040 		.word	1073755136
 1278              		.cfi_endproc
 1279              	.LFE131:
 1281              		.section	.text.HAL_I2SEx_TransmitReceive_DMA,"ax",%progbits
 1282              		.align	1
 1283              		.global	HAL_I2SEx_TransmitReceive_DMA
 1284              		.syntax unified
 1285              		.thumb
 1286              		.thumb_func
 1288              	HAL_I2SEx_TransmitReceive_DMA:
 1289              	.LVL67:
 1290              	.LFB132:
 543:Drivers/STM32F4xx_HAL_Driver/Src/stm32f4xx_hal_i2s_ex.c ****   uint32_t *tmp = NULL;
 1291              		.loc 1 543 1 is_stmt 1 view -0
 1292              		.cfi_startproc
 1293              		@ args = 0, pretend = 0, frame = 8
 1294              		@ frame_needed = 0, uses_anonymous_args = 0
 543:Drivers/STM32F4xx_HAL_Driver/Src/stm32f4xx_hal_i2s_ex.c ****   uint32_t *tmp = NULL;
 1295              		.loc 1 543 1 is_stmt 0 view .LVU429
 1296 0000 70B5     		push	{r4, r5, r6, lr}
 1297              		.cfi_def_cfa_offset 16
 1298              		.cfi_offset 4, -16
 1299              		.cfi_offset 5, -12
 1300              		.cfi_offset 6, -8
 1301              		.cfi_offset 14, -4
 1302 0002 82B0     		sub	sp, sp, #8
 1303              		.cfi_def_cfa_offset 24
 1304 0004 0446     		mov	r4, r0
 1305 0006 1646     		mov	r6, r2
 544:Drivers/STM32F4xx_HAL_Driver/Src/stm32f4xx_hal_i2s_ex.c ****   uint32_t tmp1 = 0U;
 1306              		.loc 1 544 3 is_stmt 1 view .LVU430
 1307              	.LVL68:
 545:Drivers/STM32F4xx_HAL_Driver/Src/stm32f4xx_hal_i2s_ex.c ****   HAL_StatusTypeDef errorcode = HAL_OK;
 1308              		.loc 1 545 3 view .LVU431
 546:Drivers/STM32F4xx_HAL_Driver/Src/stm32f4xx_hal_i2s_ex.c **** 
 1309              		.loc 1 546 3 view .LVU432
 548:Drivers/STM32F4xx_HAL_Driver/Src/stm32f4xx_hal_i2s_ex.c ****   {
 1310              		.loc 1 548 3 view .LVU433
 548:Drivers/STM32F4xx_HAL_Driver/Src/stm32f4xx_hal_i2s_ex.c ****   {
 1311              		.loc 1 548 11 is_stmt 0 view .LVU434
 1312 0008 90F84120 		ldrb	r2, [r0, #65]	@ zero_extendqisi2
 1313              	.LVL69:
 548:Drivers/STM32F4xx_HAL_Driver/Src/stm32f4xx_hal_i2s_ex.c ****   {
 1314              		.loc 1 548 6 view .LVU435
 1315 000c 012A     		cmp	r2, #1
 1316 000e 40F0D180 		bne	.L144
 1317 0012 0D46     		mov	r5, r1
 1318 0014 D0B2     		uxtb	r0, r2
 1319              	.LVL70:
 554:Drivers/STM32F4xx_HAL_Driver/Src/stm32f4xx_hal_i2s_ex.c ****   {
 1320              		.loc 1 554 3 is_stmt 1 view .LVU436
 554:Drivers/STM32F4xx_HAL_Driver/Src/stm32f4xx_hal_i2s_ex.c ****   {
 1321              		.loc 1 554 6 is_stmt 0 view .LVU437
 1322 0016 0029     		cmp	r1, #0
ARM GAS  /tmp/cc74GRYw.s 			page 51


 1323 0018 00F0D080 		beq	.L131
 554:Drivers/STM32F4xx_HAL_Driver/Src/stm32f4xx_hal_i2s_ex.c ****   {
 1324              		.loc 1 554 25 discriminator 1 view .LVU438
 1325 001c 002E     		cmp	r6, #0
 1326 001e 00F0CD80 		beq	.L131
 554:Drivers/STM32F4xx_HAL_Driver/Src/stm32f4xx_hal_i2s_ex.c ****   {
 1327              		.loc 1 554 46 discriminator 2 view .LVU439
 1328 0022 002B     		cmp	r3, #0
 1329 0024 00F0CA80 		beq	.L131
 560:Drivers/STM32F4xx_HAL_Driver/Src/stm32f4xx_hal_i2s_ex.c **** 
 1330              		.loc 1 560 3 is_stmt 1 view .LVU440
 560:Drivers/STM32F4xx_HAL_Driver/Src/stm32f4xx_hal_i2s_ex.c **** 
 1331              		.loc 1 560 3 view .LVU441
 1332 0028 94F84020 		ldrb	r2, [r4, #64]	@ zero_extendqisi2
 1333 002c 012A     		cmp	r2, #1
 1334 002e 00F0CB80 		beq	.L145
 560:Drivers/STM32F4xx_HAL_Driver/Src/stm32f4xx_hal_i2s_ex.c **** 
 1335              		.loc 1 560 3 discriminator 2 view .LVU442
 1336 0032 0122     		movs	r2, #1
 1337 0034 84F84020 		strb	r2, [r4, #64]
 560:Drivers/STM32F4xx_HAL_Driver/Src/stm32f4xx_hal_i2s_ex.c **** 
 1338              		.loc 1 560 3 view .LVU443
 562:Drivers/STM32F4xx_HAL_Driver/Src/stm32f4xx_hal_i2s_ex.c ****   hi2s->pRxBuffPtr = pRxData;
 1339              		.loc 1 562 3 view .LVU444
 562:Drivers/STM32F4xx_HAL_Driver/Src/stm32f4xx_hal_i2s_ex.c ****   hi2s->pRxBuffPtr = pRxData;
 1340              		.loc 1 562 20 is_stmt 0 view .LVU445
 1341 0038 6162     		str	r1, [r4, #36]
 563:Drivers/STM32F4xx_HAL_Driver/Src/stm32f4xx_hal_i2s_ex.c **** 
 1342              		.loc 1 563 3 is_stmt 1 view .LVU446
 563:Drivers/STM32F4xx_HAL_Driver/Src/stm32f4xx_hal_i2s_ex.c **** 
 1343              		.loc 1 563 20 is_stmt 0 view .LVU447
 1344 003a E662     		str	r6, [r4, #44]
 565:Drivers/STM32F4xx_HAL_Driver/Src/stm32f4xx_hal_i2s_ex.c ****   /* Check the Data format: When a 16-bit data frame or a 16-bit data frame extended
 1345              		.loc 1 565 3 is_stmt 1 view .LVU448
 565:Drivers/STM32F4xx_HAL_Driver/Src/stm32f4xx_hal_i2s_ex.c ****   /* Check the Data format: When a 16-bit data frame or a 16-bit data frame extended
 1346              		.loc 1 565 14 is_stmt 0 view .LVU449
 1347 003c 2268     		ldr	r2, [r4]
 565:Drivers/STM32F4xx_HAL_Driver/Src/stm32f4xx_hal_i2s_ex.c ****   /* Check the Data format: When a 16-bit data frame or a 16-bit data frame extended
 1348              		.loc 1 565 24 view .LVU450
 1349 003e D269     		ldr	r2, [r2, #28]
 565:Drivers/STM32F4xx_HAL_Driver/Src/stm32f4xx_hal_i2s_ex.c ****   /* Check the Data format: When a 16-bit data frame or a 16-bit data frame extended
 1350              		.loc 1 565 8 view .LVU451
 1351 0040 02F00702 		and	r2, r2, #7
 1352              	.LVL71:
 570:Drivers/STM32F4xx_HAL_Driver/Src/stm32f4xx_hal_i2s_ex.c ****   {
 1353              		.loc 1 570 3 is_stmt 1 view .LVU452
 570:Drivers/STM32F4xx_HAL_Driver/Src/stm32f4xx_hal_i2s_ex.c ****   {
 1354              		.loc 1 570 6 is_stmt 0 view .LVU453
 1355 0044 032A     		cmp	r2, #3
 1356 0046 06D0     		beq	.L132
 570:Drivers/STM32F4xx_HAL_Driver/Src/stm32f4xx_hal_i2s_ex.c ****   {
 1357              		.loc 1 570 36 discriminator 1 view .LVU454
 1358 0048 052A     		cmp	r2, #5
 1359 004a 04D0     		beq	.L132
 579:Drivers/STM32F4xx_HAL_Driver/Src/stm32f4xx_hal_i2s_ex.c ****     hi2s->TxXferCount = Size;
 1360              		.loc 1 579 5 is_stmt 1 view .LVU455
 579:Drivers/STM32F4xx_HAL_Driver/Src/stm32f4xx_hal_i2s_ex.c ****     hi2s->TxXferCount = Size;
ARM GAS  /tmp/cc74GRYw.s 			page 52


 1361              		.loc 1 579 23 is_stmt 0 view .LVU456
 1362 004c 2385     		strh	r3, [r4, #40]	@ movhi
 580:Drivers/STM32F4xx_HAL_Driver/Src/stm32f4xx_hal_i2s_ex.c ****     hi2s->RxXferSize  = Size;
 1363              		.loc 1 580 5 is_stmt 1 view .LVU457
 580:Drivers/STM32F4xx_HAL_Driver/Src/stm32f4xx_hal_i2s_ex.c ****     hi2s->RxXferSize  = Size;
 1364              		.loc 1 580 23 is_stmt 0 view .LVU458
 1365 004e 6385     		strh	r3, [r4, #42]	@ movhi
 581:Drivers/STM32F4xx_HAL_Driver/Src/stm32f4xx_hal_i2s_ex.c ****     hi2s->RxXferCount = Size;
 1366              		.loc 1 581 5 is_stmt 1 view .LVU459
 581:Drivers/STM32F4xx_HAL_Driver/Src/stm32f4xx_hal_i2s_ex.c ****     hi2s->RxXferCount = Size;
 1367              		.loc 1 581 23 is_stmt 0 view .LVU460
 1368 0050 2386     		strh	r3, [r4, #48]	@ movhi
 582:Drivers/STM32F4xx_HAL_Driver/Src/stm32f4xx_hal_i2s_ex.c ****   }
 1369              		.loc 1 582 5 is_stmt 1 view .LVU461
 582:Drivers/STM32F4xx_HAL_Driver/Src/stm32f4xx_hal_i2s_ex.c ****   }
 1370              		.loc 1 582 23 is_stmt 0 view .LVU462
 1371 0052 6386     		strh	r3, [r4, #50]	@ movhi
 1372 0054 05E0     		b	.L134
 1373              	.L132:
 572:Drivers/STM32F4xx_HAL_Driver/Src/stm32f4xx_hal_i2s_ex.c ****     hi2s->TxXferCount = (Size << 1U);
 1374              		.loc 1 572 5 is_stmt 1 view .LVU463
 572:Drivers/STM32F4xx_HAL_Driver/Src/stm32f4xx_hal_i2s_ex.c ****     hi2s->TxXferCount = (Size << 1U);
 1375              		.loc 1 572 31 is_stmt 0 view .LVU464
 1376 0056 5B00     		lsls	r3, r3, #1
 1377              	.LVL72:
 572:Drivers/STM32F4xx_HAL_Driver/Src/stm32f4xx_hal_i2s_ex.c ****     hi2s->TxXferCount = (Size << 1U);
 1378              		.loc 1 572 31 view .LVU465
 1379 0058 9BB2     		uxth	r3, r3
 572:Drivers/STM32F4xx_HAL_Driver/Src/stm32f4xx_hal_i2s_ex.c ****     hi2s->TxXferCount = (Size << 1U);
 1380              		.loc 1 572 23 view .LVU466
 1381 005a 2385     		strh	r3, [r4, #40]	@ movhi
 573:Drivers/STM32F4xx_HAL_Driver/Src/stm32f4xx_hal_i2s_ex.c ****     hi2s->RxXferSize  = (Size << 1U);
 1382              		.loc 1 573 5 is_stmt 1 view .LVU467
 573:Drivers/STM32F4xx_HAL_Driver/Src/stm32f4xx_hal_i2s_ex.c ****     hi2s->RxXferSize  = (Size << 1U);
 1383              		.loc 1 573 23 is_stmt 0 view .LVU468
 1384 005c 6385     		strh	r3, [r4, #42]	@ movhi
 574:Drivers/STM32F4xx_HAL_Driver/Src/stm32f4xx_hal_i2s_ex.c ****     hi2s->RxXferCount = (Size << 1U);
 1385              		.loc 1 574 5 is_stmt 1 view .LVU469
 574:Drivers/STM32F4xx_HAL_Driver/Src/stm32f4xx_hal_i2s_ex.c ****     hi2s->RxXferCount = (Size << 1U);
 1386              		.loc 1 574 23 is_stmt 0 view .LVU470
 1387 005e 2386     		strh	r3, [r4, #48]	@ movhi
 575:Drivers/STM32F4xx_HAL_Driver/Src/stm32f4xx_hal_i2s_ex.c ****   }
 1388              		.loc 1 575 5 is_stmt 1 view .LVU471
 575:Drivers/STM32F4xx_HAL_Driver/Src/stm32f4xx_hal_i2s_ex.c ****   }
 1389              		.loc 1 575 23 is_stmt 0 view .LVU472
 1390 0060 6386     		strh	r3, [r4, #50]	@ movhi
 1391              	.L134:
 585:Drivers/STM32F4xx_HAL_Driver/Src/stm32f4xx_hal_i2s_ex.c ****   hi2s->State     = HAL_I2S_STATE_BUSY_TX_RX;
 1392              		.loc 1 585 3 is_stmt 1 view .LVU473
 585:Drivers/STM32F4xx_HAL_Driver/Src/stm32f4xx_hal_i2s_ex.c ****   hi2s->State     = HAL_I2S_STATE_BUSY_TX_RX;
 1393              		.loc 1 585 19 is_stmt 0 view .LVU474
 1394 0062 0023     		movs	r3, #0
 1395 0064 6364     		str	r3, [r4, #68]
 586:Drivers/STM32F4xx_HAL_Driver/Src/stm32f4xx_hal_i2s_ex.c **** 
 1396              		.loc 1 586 3 is_stmt 1 view .LVU475
 586:Drivers/STM32F4xx_HAL_Driver/Src/stm32f4xx_hal_i2s_ex.c **** 
 1397              		.loc 1 586 19 is_stmt 0 view .LVU476
ARM GAS  /tmp/cc74GRYw.s 			page 53


 1398 0066 0522     		movs	r2, #5
 1399              	.LVL73:
 586:Drivers/STM32F4xx_HAL_Driver/Src/stm32f4xx_hal_i2s_ex.c **** 
 1400              		.loc 1 586 19 view .LVU477
 1401 0068 84F84120 		strb	r2, [r4, #65]
 589:Drivers/STM32F4xx_HAL_Driver/Src/stm32f4xx_hal_i2s_ex.c **** 
 1402              		.loc 1 589 3 is_stmt 1 view .LVU478
 589:Drivers/STM32F4xx_HAL_Driver/Src/stm32f4xx_hal_i2s_ex.c **** 
 1403              		.loc 1 589 7 is_stmt 0 view .LVU479
 1404 006c E26B     		ldr	r2, [r4, #60]
 589:Drivers/STM32F4xx_HAL_Driver/Src/stm32f4xx_hal_i2s_ex.c **** 
 1405              		.loc 1 589 38 view .LVU480
 1406 006e 5749     		ldr	r1, .L162
 1407              	.LVL74:
 589:Drivers/STM32F4xx_HAL_Driver/Src/stm32f4xx_hal_i2s_ex.c **** 
 1408              		.loc 1 589 38 view .LVU481
 1409 0070 1164     		str	r1, [r2, #64]
 592:Drivers/STM32F4xx_HAL_Driver/Src/stm32f4xx_hal_i2s_ex.c **** 
 1410              		.loc 1 592 3 is_stmt 1 view .LVU482
 592:Drivers/STM32F4xx_HAL_Driver/Src/stm32f4xx_hal_i2s_ex.c **** 
 1411              		.loc 1 592 7 is_stmt 0 view .LVU483
 1412 0072 E26B     		ldr	r2, [r4, #60]
 592:Drivers/STM32F4xx_HAL_Driver/Src/stm32f4xx_hal_i2s_ex.c **** 
 1413              		.loc 1 592 35 view .LVU484
 1414 0074 5649     		ldr	r1, .L162+4
 1415 0076 D163     		str	r1, [r2, #60]
 595:Drivers/STM32F4xx_HAL_Driver/Src/stm32f4xx_hal_i2s_ex.c **** 
 1416              		.loc 1 595 3 is_stmt 1 view .LVU485
 595:Drivers/STM32F4xx_HAL_Driver/Src/stm32f4xx_hal_i2s_ex.c **** 
 1417              		.loc 1 595 7 is_stmt 0 view .LVU486
 1418 0078 E16B     		ldr	r1, [r4, #60]
 595:Drivers/STM32F4xx_HAL_Driver/Src/stm32f4xx_hal_i2s_ex.c **** 
 1419              		.loc 1 595 35 view .LVU487
 1420 007a 564A     		ldr	r2, .L162+8
 1421 007c CA64     		str	r2, [r1, #76]
 598:Drivers/STM32F4xx_HAL_Driver/Src/stm32f4xx_hal_i2s_ex.c **** 
 1422              		.loc 1 598 3 is_stmt 1 view .LVU488
 598:Drivers/STM32F4xx_HAL_Driver/Src/stm32f4xx_hal_i2s_ex.c **** 
 1423              		.loc 1 598 7 is_stmt 0 view .LVU489
 1424 007e A16B     		ldr	r1, [r4, #56]
 598:Drivers/STM32F4xx_HAL_Driver/Src/stm32f4xx_hal_i2s_ex.c **** 
 1425              		.loc 1 598 39 view .LVU490
 1426 0080 0B64     		str	r3, [r1, #64]
 601:Drivers/STM32F4xx_HAL_Driver/Src/stm32f4xx_hal_i2s_ex.c **** 
 1427              		.loc 1 601 3 is_stmt 1 view .LVU491
 601:Drivers/STM32F4xx_HAL_Driver/Src/stm32f4xx_hal_i2s_ex.c **** 
 1428              		.loc 1 601 7 is_stmt 0 view .LVU492
 1429 0082 A16B     		ldr	r1, [r4, #56]
 601:Drivers/STM32F4xx_HAL_Driver/Src/stm32f4xx_hal_i2s_ex.c **** 
 1430              		.loc 1 601 35 view .LVU493
 1431 0084 CB63     		str	r3, [r1, #60]
 604:Drivers/STM32F4xx_HAL_Driver/Src/stm32f4xx_hal_i2s_ex.c **** 
 1432              		.loc 1 604 3 is_stmt 1 view .LVU494
 604:Drivers/STM32F4xx_HAL_Driver/Src/stm32f4xx_hal_i2s_ex.c **** 
 1433              		.loc 1 604 7 is_stmt 0 view .LVU495
 1434 0086 A36B     		ldr	r3, [r4, #56]
 604:Drivers/STM32F4xx_HAL_Driver/Src/stm32f4xx_hal_i2s_ex.c **** 
ARM GAS  /tmp/cc74GRYw.s 			page 54


 1435              		.loc 1 604 35 view .LVU496
 1436 0088 DA64     		str	r2, [r3, #76]
 606:Drivers/STM32F4xx_HAL_Driver/Src/stm32f4xx_hal_i2s_ex.c ****   /* Check if the I2S_MODE_MASTER_TX or I2S_MODE_SLAVE_TX Mode is selected */
 1437              		.loc 1 606 3 is_stmt 1 view .LVU497
 606:Drivers/STM32F4xx_HAL_Driver/Src/stm32f4xx_hal_i2s_ex.c ****   /* Check if the I2S_MODE_MASTER_TX or I2S_MODE_SLAVE_TX Mode is selected */
 1438              		.loc 1 606 14 is_stmt 0 view .LVU498
 1439 008a 2268     		ldr	r2, [r4]
 606:Drivers/STM32F4xx_HAL_Driver/Src/stm32f4xx_hal_i2s_ex.c ****   /* Check if the I2S_MODE_MASTER_TX or I2S_MODE_SLAVE_TX Mode is selected */
 1440              		.loc 1 606 24 view .LVU499
 1441 008c D369     		ldr	r3, [r2, #28]
 606:Drivers/STM32F4xx_HAL_Driver/Src/stm32f4xx_hal_i2s_ex.c ****   /* Check if the I2S_MODE_MASTER_TX or I2S_MODE_SLAVE_TX Mode is selected */
 1442              		.loc 1 606 8 view .LVU500
 1443 008e 03F44073 		and	r3, r3, #768
 1444              	.LVL75:
 608:Drivers/STM32F4xx_HAL_Driver/Src/stm32f4xx_hal_i2s_ex.c ****   {
 1445              		.loc 1 608 3 is_stmt 1 view .LVU501
 608:Drivers/STM32F4xx_HAL_Driver/Src/stm32f4xx_hal_i2s_ex.c ****   {
 1446              		.loc 1 608 6 is_stmt 0 view .LVU502
 1447 0092 B3F5007F 		cmp	r3, #512
 1448 0096 01D0     		beq	.L135
 608:Drivers/STM32F4xx_HAL_Driver/Src/stm32f4xx_hal_i2s_ex.c ****   {
 1449              		.loc 1 608 36 discriminator 1 view .LVU503
 1450 0098 002B     		cmp	r3, #0
 1451 009a 3ED1     		bne	.L136
 1452              	.L135:
 611:Drivers/STM32F4xx_HAL_Driver/Src/stm32f4xx_hal_i2s_ex.c ****     HAL_DMA_Start_IT(hi2s->hdmarx, (uint32_t)&I2SxEXT(hi2s->Instance)->DR, *(uint32_t *)tmp, hi2s->
 1453              		.loc 1 611 5 is_stmt 1 view .LVU504
 1454              	.LVL76:
 612:Drivers/STM32F4xx_HAL_Driver/Src/stm32f4xx_hal_i2s_ex.c **** 
 1455              		.loc 1 612 5 view .LVU505
 1456 009c E06B     		ldr	r0, [r4, #60]
 612:Drivers/STM32F4xx_HAL_Driver/Src/stm32f4xx_hal_i2s_ex.c **** 
 1457              		.loc 1 612 47 is_stmt 0 view .LVU506
 1458 009e 4E4B     		ldr	r3, .L162+12
 1459              	.LVL77:
 612:Drivers/STM32F4xx_HAL_Driver/Src/stm32f4xx_hal_i2s_ex.c **** 
 1460              		.loc 1 612 47 view .LVU507
 1461 00a0 9A42     		cmp	r2, r3
 1462 00a2 33D0     		beq	.L155
 612:Drivers/STM32F4xx_HAL_Driver/Src/stm32f4xx_hal_i2s_ex.c **** 
 1463              		.loc 1 612 47 discriminator 2 view .LVU508
 1464 00a4 4FF04021 		mov	r1, #1073758208
 1465              	.L137:
 612:Drivers/STM32F4xx_HAL_Driver/Src/stm32f4xx_hal_i2s_ex.c **** 
 1466              		.loc 1 612 98 discriminator 4 view .LVU509
 1467 00a8 238E     		ldrh	r3, [r4, #48]
 612:Drivers/STM32F4xx_HAL_Driver/Src/stm32f4xx_hal_i2s_ex.c **** 
 1468              		.loc 1 612 5 discriminator 4 view .LVU510
 1469 00aa 9BB2     		uxth	r3, r3
 1470 00ac 3246     		mov	r2, r6
 1471 00ae 0C31     		adds	r1, r1, #12
 1472 00b0 FFF7FEFF 		bl	HAL_DMA_Start_IT
 1473              	.LVL78:
 615:Drivers/STM32F4xx_HAL_Driver/Src/stm32f4xx_hal_i2s_ex.c **** 
 1474              		.loc 1 615 5 is_stmt 1 view .LVU511
 1475 00b4 2268     		ldr	r2, [r4]
 1476 00b6 484B     		ldr	r3, .L162+12
ARM GAS  /tmp/cc74GRYw.s 			page 55


 1477 00b8 9A42     		cmp	r2, r3
 1478 00ba 29D0     		beq	.L156
 615:Drivers/STM32F4xx_HAL_Driver/Src/stm32f4xx_hal_i2s_ex.c **** 
 1479              		.loc 1 615 5 is_stmt 0 discriminator 2 view .LVU512
 1480 00bc 4FF04022 		mov	r2, #1073758208
 1481              	.L138:
 615:Drivers/STM32F4xx_HAL_Driver/Src/stm32f4xx_hal_i2s_ex.c **** 
 1482              		.loc 1 615 5 discriminator 4 view .LVU513
 1483 00c0 5368     		ldr	r3, [r2, #4]
 615:Drivers/STM32F4xx_HAL_Driver/Src/stm32f4xx_hal_i2s_ex.c **** 
 1484              		.loc 1 615 5 discriminator 8 view .LVU514
 1485 00c2 43F00103 		orr	r3, r3, #1
 1486 00c6 5360     		str	r3, [r2, #4]
 618:Drivers/STM32F4xx_HAL_Driver/Src/stm32f4xx_hal_i2s_ex.c ****     HAL_DMA_Start_IT(hi2s->hdmatx, *(uint32_t *)tmp, (uint32_t)&hi2s->Instance->DR, hi2s->TxXferSiz
 1487              		.loc 1 618 5 is_stmt 1 view .LVU515
 1488              	.LVL79:
 619:Drivers/STM32F4xx_HAL_Driver/Src/stm32f4xx_hal_i2s_ex.c **** 
 1489              		.loc 1 619 5 view .LVU516
 619:Drivers/STM32F4xx_HAL_Driver/Src/stm32f4xx_hal_i2s_ex.c **** 
 1490              		.loc 1 619 69 is_stmt 0 view .LVU517
 1491 00c8 2268     		ldr	r2, [r4]
 619:Drivers/STM32F4xx_HAL_Driver/Src/stm32f4xx_hal_i2s_ex.c **** 
 1492              		.loc 1 619 89 view .LVU518
 1493 00ca 238D     		ldrh	r3, [r4, #40]
 619:Drivers/STM32F4xx_HAL_Driver/Src/stm32f4xx_hal_i2s_ex.c **** 
 1494              		.loc 1 619 5 view .LVU519
 1495 00cc 9BB2     		uxth	r3, r3
 1496 00ce 0C32     		adds	r2, r2, #12
 1497 00d0 2946     		mov	r1, r5
 1498 00d2 A06B     		ldr	r0, [r4, #56]
 1499 00d4 FFF7FEFF 		bl	HAL_DMA_Start_IT
 1500              	.LVL80:
 622:Drivers/STM32F4xx_HAL_Driver/Src/stm32f4xx_hal_i2s_ex.c **** 
 1501              		.loc 1 622 5 is_stmt 1 view .LVU520
 1502 00d8 2268     		ldr	r2, [r4]
 1503 00da 5368     		ldr	r3, [r2, #4]
 1504 00dc 43F00203 		orr	r3, r3, #2
 1505 00e0 5360     		str	r3, [r2, #4]
 625:Drivers/STM32F4xx_HAL_Driver/Src/stm32f4xx_hal_i2s_ex.c ****     {
 1506              		.loc 1 625 5 view .LVU521
 625:Drivers/STM32F4xx_HAL_Driver/Src/stm32f4xx_hal_i2s_ex.c ****     {
 1507              		.loc 1 625 14 is_stmt 0 view .LVU522
 1508 00e2 2368     		ldr	r3, [r4]
 625:Drivers/STM32F4xx_HAL_Driver/Src/stm32f4xx_hal_i2s_ex.c ****     {
 1509              		.loc 1 625 24 view .LVU523
 1510 00e4 DA69     		ldr	r2, [r3, #28]
 625:Drivers/STM32F4xx_HAL_Driver/Src/stm32f4xx_hal_i2s_ex.c ****     {
 1511              		.loc 1 625 8 view .LVU524
 1512 00e6 12F4806F 		tst	r2, #1024
 1513 00ea 69D1     		bne	.L148
 628:Drivers/STM32F4xx_HAL_Driver/Src/stm32f4xx_hal_i2s_ex.c **** 
 1514              		.loc 1 628 7 is_stmt 1 view .LVU525
 1515 00ec 3A4A     		ldr	r2, .L162+12
 1516 00ee 9342     		cmp	r3, r2
 1517 00f0 10D0     		beq	.L157
 628:Drivers/STM32F4xx_HAL_Driver/Src/stm32f4xx_hal_i2s_ex.c **** 
 1518              		.loc 1 628 7 is_stmt 0 discriminator 2 view .LVU526
ARM GAS  /tmp/cc74GRYw.s 			page 56


 1519 00f2 4FF04022 		mov	r2, #1073758208
 1520              	.L139:
 628:Drivers/STM32F4xx_HAL_Driver/Src/stm32f4xx_hal_i2s_ex.c **** 
 1521              		.loc 1 628 7 discriminator 4 view .LVU527
 1522 00f6 D369     		ldr	r3, [r2, #28]
 628:Drivers/STM32F4xx_HAL_Driver/Src/stm32f4xx_hal_i2s_ex.c **** 
 1523              		.loc 1 628 7 discriminator 8 view .LVU528
 1524 00f8 43F48063 		orr	r3, r3, #1024
 1525 00fc D361     		str	r3, [r2, #28]
 631:Drivers/STM32F4xx_HAL_Driver/Src/stm32f4xx_hal_i2s_ex.c ****     }
 1526              		.loc 1 631 7 is_stmt 1 view .LVU529
 1527 00fe 2268     		ldr	r2, [r4]
 1528 0100 D369     		ldr	r3, [r2, #28]
 1529 0102 43F48063 		orr	r3, r3, #1024
 1530 0106 D361     		str	r3, [r2, #28]
 546:Drivers/STM32F4xx_HAL_Driver/Src/stm32f4xx_hal_i2s_ex.c **** 
 1531              		.loc 1 546 21 is_stmt 0 view .LVU530
 1532 0108 0020     		movs	r0, #0
 1533 010a 54E0     		b	.L130
 1534              	.LVL81:
 1535              	.L155:
 612:Drivers/STM32F4xx_HAL_Driver/Src/stm32f4xx_hal_i2s_ex.c **** 
 1536              		.loc 1 612 47 discriminator 1 view .LVU531
 1537 010c 3349     		ldr	r1, .L162+16
 1538 010e CBE7     		b	.L137
 1539              	.L156:
 615:Drivers/STM32F4xx_HAL_Driver/Src/stm32f4xx_hal_i2s_ex.c **** 
 1540              		.loc 1 615 5 discriminator 1 view .LVU532
 1541 0110 324A     		ldr	r2, .L162+16
 1542 0112 D5E7     		b	.L138
 1543              	.LVL82:
 1544              	.L157:
 628:Drivers/STM32F4xx_HAL_Driver/Src/stm32f4xx_hal_i2s_ex.c **** 
 1545              		.loc 1 628 7 discriminator 1 view .LVU533
 1546 0114 A2F58062 		sub	r2, r2, #1024
 1547 0118 EDE7     		b	.L139
 1548              	.LVL83:
 1549              	.L136:
 637:Drivers/STM32F4xx_HAL_Driver/Src/stm32f4xx_hal_i2s_ex.c ****     {
 1550              		.loc 1 637 5 is_stmt 1 view .LVU534
 637:Drivers/STM32F4xx_HAL_Driver/Src/stm32f4xx_hal_i2s_ex.c ****     {
 1551              		.loc 1 637 24 is_stmt 0 view .LVU535
 1552 011a D369     		ldr	r3, [r2, #28]
 1553              	.LVL84:
 637:Drivers/STM32F4xx_HAL_Driver/Src/stm32f4xx_hal_i2s_ex.c ****     {
 1554              		.loc 1 637 34 view .LVU536
 1555 011c 03F44073 		and	r3, r3, #768
 637:Drivers/STM32F4xx_HAL_Driver/Src/stm32f4xx_hal_i2s_ex.c ****     {
 1556              		.loc 1 637 8 view .LVU537
 1557 0120 B3F5407F 		cmp	r3, #768
 1558 0124 37D0     		beq	.L158
 1559              	.L140:
 641:Drivers/STM32F4xx_HAL_Driver/Src/stm32f4xx_hal_i2s_ex.c ****     }
 1560              		.loc 1 641 7 is_stmt 1 discriminator 1 view .LVU538
 644:Drivers/STM32F4xx_HAL_Driver/Src/stm32f4xx_hal_i2s_ex.c ****     HAL_DMA_Start_IT(hi2s->hdmatx, *(uint32_t *)tmp, (uint32_t)&I2SxEXT(hi2s->Instance)->DR, hi2s->
 1561              		.loc 1 644 5 view .LVU539
 1562              	.LVL85:
ARM GAS  /tmp/cc74GRYw.s 			page 57


 645:Drivers/STM32F4xx_HAL_Driver/Src/stm32f4xx_hal_i2s_ex.c **** 
 1563              		.loc 1 645 5 view .LVU540
 1564 0126 A06B     		ldr	r0, [r4, #56]
 645:Drivers/STM32F4xx_HAL_Driver/Src/stm32f4xx_hal_i2s_ex.c **** 
 1565              		.loc 1 645 65 is_stmt 0 view .LVU541
 1566 0128 2B4B     		ldr	r3, .L162+12
 1567 012a 9A42     		cmp	r2, r3
 1568 012c 3BD0     		beq	.L159
 645:Drivers/STM32F4xx_HAL_Driver/Src/stm32f4xx_hal_i2s_ex.c **** 
 1569              		.loc 1 645 65 discriminator 2 view .LVU542
 1570 012e 4FF04022 		mov	r2, #1073758208
 1571              	.L141:
 645:Drivers/STM32F4xx_HAL_Driver/Src/stm32f4xx_hal_i2s_ex.c **** 
 1572              		.loc 1 645 98 discriminator 4 view .LVU543
 1573 0132 238D     		ldrh	r3, [r4, #40]
 645:Drivers/STM32F4xx_HAL_Driver/Src/stm32f4xx_hal_i2s_ex.c **** 
 1574              		.loc 1 645 5 discriminator 4 view .LVU544
 1575 0134 9BB2     		uxth	r3, r3
 1576 0136 0C32     		adds	r2, r2, #12
 1577 0138 2946     		mov	r1, r5
 1578 013a FFF7FEFF 		bl	HAL_DMA_Start_IT
 1579              	.LVL86:
 648:Drivers/STM32F4xx_HAL_Driver/Src/stm32f4xx_hal_i2s_ex.c **** 
 1580              		.loc 1 648 5 is_stmt 1 view .LVU545
 1581 013e 2268     		ldr	r2, [r4]
 1582 0140 254B     		ldr	r3, .L162+12
 1583 0142 9A42     		cmp	r2, r3
 1584 0144 31D0     		beq	.L160
 648:Drivers/STM32F4xx_HAL_Driver/Src/stm32f4xx_hal_i2s_ex.c **** 
 1585              		.loc 1 648 5 is_stmt 0 discriminator 2 view .LVU546
 1586 0146 4FF04022 		mov	r2, #1073758208
 1587              	.L142:
 648:Drivers/STM32F4xx_HAL_Driver/Src/stm32f4xx_hal_i2s_ex.c **** 
 1588              		.loc 1 648 5 discriminator 4 view .LVU547
 1589 014a 5368     		ldr	r3, [r2, #4]
 648:Drivers/STM32F4xx_HAL_Driver/Src/stm32f4xx_hal_i2s_ex.c **** 
 1590              		.loc 1 648 5 discriminator 8 view .LVU548
 1591 014c 43F00203 		orr	r3, r3, #2
 1592 0150 5360     		str	r3, [r2, #4]
 651:Drivers/STM32F4xx_HAL_Driver/Src/stm32f4xx_hal_i2s_ex.c ****     HAL_DMA_Start_IT(hi2s->hdmarx, (uint32_t)&hi2s->Instance->DR, *(uint32_t *)tmp, hi2s->RxXferSiz
 1593              		.loc 1 651 5 is_stmt 1 view .LVU549
 1594              	.LVL87:
 652:Drivers/STM32F4xx_HAL_Driver/Src/stm32f4xx_hal_i2s_ex.c **** 
 1595              		.loc 1 652 5 view .LVU550
 652:Drivers/STM32F4xx_HAL_Driver/Src/stm32f4xx_hal_i2s_ex.c **** 
 1596              		.loc 1 652 51 is_stmt 0 view .LVU551
 1597 0152 2168     		ldr	r1, [r4]
 652:Drivers/STM32F4xx_HAL_Driver/Src/stm32f4xx_hal_i2s_ex.c **** 
 1598              		.loc 1 652 89 view .LVU552
 1599 0154 238E     		ldrh	r3, [r4, #48]
 652:Drivers/STM32F4xx_HAL_Driver/Src/stm32f4xx_hal_i2s_ex.c **** 
 1600              		.loc 1 652 5 view .LVU553
 1601 0156 9BB2     		uxth	r3, r3
 1602 0158 3246     		mov	r2, r6
 1603 015a 0C31     		adds	r1, r1, #12
 1604 015c E06B     		ldr	r0, [r4, #60]
 1605 015e FFF7FEFF 		bl	HAL_DMA_Start_IT
ARM GAS  /tmp/cc74GRYw.s 			page 58


 1606              	.LVL88:
 655:Drivers/STM32F4xx_HAL_Driver/Src/stm32f4xx_hal_i2s_ex.c **** 
 1607              		.loc 1 655 5 is_stmt 1 view .LVU554
 1608 0162 2268     		ldr	r2, [r4]
 1609 0164 5368     		ldr	r3, [r2, #4]
 1610 0166 43F00103 		orr	r3, r3, #1
 1611 016a 5360     		str	r3, [r2, #4]
 658:Drivers/STM32F4xx_HAL_Driver/Src/stm32f4xx_hal_i2s_ex.c ****     {
 1612              		.loc 1 658 5 view .LVU555
 658:Drivers/STM32F4xx_HAL_Driver/Src/stm32f4xx_hal_i2s_ex.c ****     {
 1613              		.loc 1 658 14 is_stmt 0 view .LVU556
 1614 016c 2368     		ldr	r3, [r4]
 658:Drivers/STM32F4xx_HAL_Driver/Src/stm32f4xx_hal_i2s_ex.c ****     {
 1615              		.loc 1 658 24 view .LVU557
 1616 016e DA69     		ldr	r2, [r3, #28]
 658:Drivers/STM32F4xx_HAL_Driver/Src/stm32f4xx_hal_i2s_ex.c ****     {
 1617              		.loc 1 658 8 view .LVU558
 1618 0170 12F4806F 		tst	r2, #1024
 1619 0174 26D1     		bne	.L152
 661:Drivers/STM32F4xx_HAL_Driver/Src/stm32f4xx_hal_i2s_ex.c ****       /* Enable I2S peripheral before the I2Sext */
 1620              		.loc 1 661 7 is_stmt 1 view .LVU559
 1621 0176 184A     		ldr	r2, .L162+12
 1622 0178 9342     		cmp	r3, r2
 1623 017a 18D0     		beq	.L161
 661:Drivers/STM32F4xx_HAL_Driver/Src/stm32f4xx_hal_i2s_ex.c ****       /* Enable I2S peripheral before the I2Sext */
 1624              		.loc 1 661 7 is_stmt 0 discriminator 2 view .LVU560
 1625 017c 4FF04022 		mov	r2, #1073758208
 1626              	.L143:
 661:Drivers/STM32F4xx_HAL_Driver/Src/stm32f4xx_hal_i2s_ex.c ****       /* Enable I2S peripheral before the I2Sext */
 1627              		.loc 1 661 7 discriminator 4 view .LVU561
 1628 0180 D369     		ldr	r3, [r2, #28]
 661:Drivers/STM32F4xx_HAL_Driver/Src/stm32f4xx_hal_i2s_ex.c ****       /* Enable I2S peripheral before the I2Sext */
 1629              		.loc 1 661 7 discriminator 8 view .LVU562
 1630 0182 43F48063 		orr	r3, r3, #1024
 1631 0186 D361     		str	r3, [r2, #28]
 663:Drivers/STM32F4xx_HAL_Driver/Src/stm32f4xx_hal_i2s_ex.c ****     }
 1632              		.loc 1 663 7 is_stmt 1 view .LVU563
 1633 0188 2268     		ldr	r2, [r4]
 1634 018a D369     		ldr	r3, [r2, #28]
 1635 018c 43F48063 		orr	r3, r3, #1024
 1636 0190 D361     		str	r3, [r2, #28]
 546:Drivers/STM32F4xx_HAL_Driver/Src/stm32f4xx_hal_i2s_ex.c **** 
 1637              		.loc 1 546 21 is_stmt 0 view .LVU564
 1638 0192 0020     		movs	r0, #0
 1639 0194 0FE0     		b	.L130
 1640              	.LVL89:
 1641              	.L158:
 641:Drivers/STM32F4xx_HAL_Driver/Src/stm32f4xx_hal_i2s_ex.c ****     }
 1642              		.loc 1 641 7 is_stmt 1 view .LVU565
 1643              	.LBB9:
 641:Drivers/STM32F4xx_HAL_Driver/Src/stm32f4xx_hal_i2s_ex.c ****     }
 1644              		.loc 1 641 7 view .LVU566
 1645 0196 0023     		movs	r3, #0
 1646 0198 0193     		str	r3, [sp, #4]
 641:Drivers/STM32F4xx_HAL_Driver/Src/stm32f4xx_hal_i2s_ex.c ****     }
 1647              		.loc 1 641 7 view .LVU567
 1648 019a D368     		ldr	r3, [r2, #12]
ARM GAS  /tmp/cc74GRYw.s 			page 59


 1649 019c 0193     		str	r3, [sp, #4]
 641:Drivers/STM32F4xx_HAL_Driver/Src/stm32f4xx_hal_i2s_ex.c ****     }
 1650              		.loc 1 641 7 view .LVU568
 1651 019e 9368     		ldr	r3, [r2, #8]
 1652 01a0 0193     		str	r3, [sp, #4]
 641:Drivers/STM32F4xx_HAL_Driver/Src/stm32f4xx_hal_i2s_ex.c ****     }
 1653              		.loc 1 641 7 view .LVU569
 1654 01a2 019B     		ldr	r3, [sp, #4]
 1655 01a4 BFE7     		b	.L140
 1656              	.LVL90:
 1657              	.L159:
 641:Drivers/STM32F4xx_HAL_Driver/Src/stm32f4xx_hal_i2s_ex.c ****     }
 1658              		.loc 1 641 7 is_stmt 0 view .LVU570
 1659              	.LBE9:
 645:Drivers/STM32F4xx_HAL_Driver/Src/stm32f4xx_hal_i2s_ex.c **** 
 1660              		.loc 1 645 65 discriminator 1 view .LVU571
 1661 01a6 0D4A     		ldr	r2, .L162+16
 1662 01a8 C3E7     		b	.L141
 1663              	.L160:
 648:Drivers/STM32F4xx_HAL_Driver/Src/stm32f4xx_hal_i2s_ex.c **** 
 1664              		.loc 1 648 5 discriminator 1 view .LVU572
 1665 01aa 0C4A     		ldr	r2, .L162+16
 1666 01ac CDE7     		b	.L142
 1667              	.LVL91:
 1668              	.L161:
 661:Drivers/STM32F4xx_HAL_Driver/Src/stm32f4xx_hal_i2s_ex.c ****       /* Enable I2S peripheral before the I2Sext */
 1669              		.loc 1 661 7 discriminator 1 view .LVU573
 1670 01ae A2F58062 		sub	r2, r2, #1024
 1671 01b2 E5E7     		b	.L143
 1672              	.LVL92:
 1673              	.L144:
 550:Drivers/STM32F4xx_HAL_Driver/Src/stm32f4xx_hal_i2s_ex.c ****     goto error;
 1674              		.loc 1 550 15 view .LVU574
 1675 01b4 0220     		movs	r0, #2
 1676              	.LVL93:
 1677              	.L130:
 668:Drivers/STM32F4xx_HAL_Driver/Src/stm32f4xx_hal_i2s_ex.c ****   return errorcode;
 1678              		.loc 1 668 3 is_stmt 1 view .LVU575
 668:Drivers/STM32F4xx_HAL_Driver/Src/stm32f4xx_hal_i2s_ex.c ****   return errorcode;
 1679              		.loc 1 668 3 view .LVU576
 1680 01b6 0023     		movs	r3, #0
 1681 01b8 84F84030 		strb	r3, [r4, #64]
 668:Drivers/STM32F4xx_HAL_Driver/Src/stm32f4xx_hal_i2s_ex.c ****   return errorcode;
 1682              		.loc 1 668 3 view .LVU577
 669:Drivers/STM32F4xx_HAL_Driver/Src/stm32f4xx_hal_i2s_ex.c **** }
 1683              		.loc 1 669 3 view .LVU578
 1684              	.LVL94:
 1685              	.L131:
 670:Drivers/STM32F4xx_HAL_Driver/Src/stm32f4xx_hal_i2s_ex.c **** 
 1686              		.loc 1 670 1 is_stmt 0 view .LVU579
 1687 01bc 02B0     		add	sp, sp, #8
 1688              		.cfi_remember_state
 1689              		.cfi_def_cfa_offset 16
 1690              		@ sp needed
 1691 01be 70BD     		pop	{r4, r5, r6, pc}
 1692              	.LVL95:
 1693              	.L148:
ARM GAS  /tmp/cc74GRYw.s 			page 60


 1694              		.cfi_restore_state
 546:Drivers/STM32F4xx_HAL_Driver/Src/stm32f4xx_hal_i2s_ex.c **** 
 1695              		.loc 1 546 21 view .LVU580
 1696 01c0 0020     		movs	r0, #0
 1697 01c2 F8E7     		b	.L130
 1698              	.LVL96:
 1699              	.L152:
 546:Drivers/STM32F4xx_HAL_Driver/Src/stm32f4xx_hal_i2s_ex.c **** 
 1700              		.loc 1 546 21 view .LVU581
 1701 01c4 0020     		movs	r0, #0
 1702 01c6 F6E7     		b	.L130
 1703              	.LVL97:
 1704              	.L145:
 560:Drivers/STM32F4xx_HAL_Driver/Src/stm32f4xx_hal_i2s_ex.c **** 
 1705              		.loc 1 560 3 discriminator 1 view .LVU582
 1706 01c8 0220     		movs	r0, #2
 1707 01ca F7E7     		b	.L131
 1708              	.L163:
 1709              		.align	2
 1710              	.L162:
 1711 01cc 00000000 		.word	I2SEx_TxRxDMAHalfCplt
 1712 01d0 00000000 		.word	I2SEx_TxRxDMACplt
 1713 01d4 00000000 		.word	I2SEx_TxRxDMAError
 1714 01d8 00380040 		.word	1073756160
 1715 01dc 00340040 		.word	1073755136
 1716              		.cfi_endproc
 1717              	.LFE132:
 1719              		.section	.text.HAL_I2SEx_TxRxHalfCpltCallback,"ax",%progbits
 1720              		.align	1
 1721              		.weak	HAL_I2SEx_TxRxHalfCpltCallback
 1722              		.syntax unified
 1723              		.thumb
 1724              		.thumb_func
 1726              	HAL_I2SEx_TxRxHalfCpltCallback:
 1727              	.LVL98:
 1728              	.LFB134:
 824:Drivers/STM32F4xx_HAL_Driver/Src/stm32f4xx_hal_i2s_ex.c ****   /* Prevent unused argument(s) compilation warning */
 1729              		.loc 1 824 1 is_stmt 1 view -0
 1730              		.cfi_startproc
 1731              		@ args = 0, pretend = 0, frame = 0
 1732              		@ frame_needed = 0, uses_anonymous_args = 0
 1733              		@ link register save eliminated.
 826:Drivers/STM32F4xx_HAL_Driver/Src/stm32f4xx_hal_i2s_ex.c **** 
 1734              		.loc 1 826 3 view .LVU584
 831:Drivers/STM32F4xx_HAL_Driver/Src/stm32f4xx_hal_i2s_ex.c **** 
 1735              		.loc 1 831 1 is_stmt 0 view .LVU585
 1736 0000 7047     		bx	lr
 1737              		.cfi_endproc
 1738              	.LFE134:
 1740              		.section	.text.I2SEx_TxRxDMAHalfCplt,"ax",%progbits
 1741              		.align	1
 1742              		.syntax unified
 1743              		.thumb
 1744              		.thumb_func
 1746              	I2SEx_TxRxDMAHalfCplt:
 1747              	.LVL99:
 1748              	.LFB136:
ARM GAS  /tmp/cc74GRYw.s 			page 61


 867:Drivers/STM32F4xx_HAL_Driver/Src/stm32f4xx_hal_i2s_ex.c ****   I2S_HandleTypeDef *hi2s = (I2S_HandleTypeDef *)((DMA_HandleTypeDef *)hdma)->Parent;
 1749              		.loc 1 867 1 is_stmt 1 view -0
 1750              		.cfi_startproc
 1751              		@ args = 0, pretend = 0, frame = 0
 1752              		@ frame_needed = 0, uses_anonymous_args = 0
 867:Drivers/STM32F4xx_HAL_Driver/Src/stm32f4xx_hal_i2s_ex.c ****   I2S_HandleTypeDef *hi2s = (I2S_HandleTypeDef *)((DMA_HandleTypeDef *)hdma)->Parent;
 1753              		.loc 1 867 1 is_stmt 0 view .LVU587
 1754 0000 08B5     		push	{r3, lr}
 1755              		.cfi_def_cfa_offset 8
 1756              		.cfi_offset 3, -8
 1757              		.cfi_offset 14, -4
 868:Drivers/STM32F4xx_HAL_Driver/Src/stm32f4xx_hal_i2s_ex.c **** 
 1758              		.loc 1 868 3 is_stmt 1 view .LVU588
 1759              	.LVL100:
 874:Drivers/STM32F4xx_HAL_Driver/Src/stm32f4xx_hal_i2s_ex.c **** #endif /* USE_HAL_I2S_REGISTER_CALLBACKS */
 1760              		.loc 1 874 3 view .LVU589
 1761 0002 806B     		ldr	r0, [r0, #56]
 1762              	.LVL101:
 874:Drivers/STM32F4xx_HAL_Driver/Src/stm32f4xx_hal_i2s_ex.c **** #endif /* USE_HAL_I2S_REGISTER_CALLBACKS */
 1763              		.loc 1 874 3 is_stmt 0 view .LVU590
 1764 0004 FFF7FEFF 		bl	HAL_I2SEx_TxRxHalfCpltCallback
 1765              	.LVL102:
 876:Drivers/STM32F4xx_HAL_Driver/Src/stm32f4xx_hal_i2s_ex.c **** 
 1766              		.loc 1 876 1 view .LVU591
 1767 0008 08BD     		pop	{r3, pc}
 1768              		.cfi_endproc
 1769              	.LFE136:
 1771              		.section	.text.HAL_I2SEx_TxRxCpltCallback,"ax",%progbits
 1772              		.align	1
 1773              		.weak	HAL_I2SEx_TxRxCpltCallback
 1774              		.syntax unified
 1775              		.thumb
 1776              		.thumb_func
 1778              	HAL_I2SEx_TxRxCpltCallback:
 1779              	.LVL103:
 1780              	.LFB135:
 839:Drivers/STM32F4xx_HAL_Driver/Src/stm32f4xx_hal_i2s_ex.c ****   /* Prevent unused argument(s) compilation warning */
 1781              		.loc 1 839 1 is_stmt 1 view -0
 1782              		.cfi_startproc
 1783              		@ args = 0, pretend = 0, frame = 0
 1784              		@ frame_needed = 0, uses_anonymous_args = 0
 1785              		@ link register save eliminated.
 841:Drivers/STM32F4xx_HAL_Driver/Src/stm32f4xx_hal_i2s_ex.c **** 
 1786              		.loc 1 841 3 view .LVU593
 846:Drivers/STM32F4xx_HAL_Driver/Src/stm32f4xx_hal_i2s_ex.c **** 
 1787              		.loc 1 846 1 is_stmt 0 view .LVU594
 1788 0000 7047     		bx	lr
 1789              		.cfi_endproc
 1790              	.LFE135:
 1792              		.section	.text.I2SEx_TxRxDMACplt,"ax",%progbits
 1793              		.align	1
 1794              		.syntax unified
 1795              		.thumb
 1796              		.thumb_func
 1798              	I2SEx_TxRxDMACplt:
 1799              	.LVL104:
 1800              	.LFB137:
ARM GAS  /tmp/cc74GRYw.s 			page 62


 885:Drivers/STM32F4xx_HAL_Driver/Src/stm32f4xx_hal_i2s_ex.c ****   I2S_HandleTypeDef *hi2s = (I2S_HandleTypeDef *)((DMA_HandleTypeDef *)hdma)->Parent;
 1801              		.loc 1 885 1 is_stmt 1 view -0
 1802              		.cfi_startproc
 1803              		@ args = 0, pretend = 0, frame = 0
 1804              		@ frame_needed = 0, uses_anonymous_args = 0
 885:Drivers/STM32F4xx_HAL_Driver/Src/stm32f4xx_hal_i2s_ex.c ****   I2S_HandleTypeDef *hi2s = (I2S_HandleTypeDef *)((DMA_HandleTypeDef *)hdma)->Parent;
 1805              		.loc 1 885 1 is_stmt 0 view .LVU596
 1806 0000 08B5     		push	{r3, lr}
 1807              		.cfi_def_cfa_offset 8
 1808              		.cfi_offset 3, -8
 1809              		.cfi_offset 14, -4
 1810 0002 0346     		mov	r3, r0
 886:Drivers/STM32F4xx_HAL_Driver/Src/stm32f4xx_hal_i2s_ex.c **** 
 1811              		.loc 1 886 3 is_stmt 1 view .LVU597
 886:Drivers/STM32F4xx_HAL_Driver/Src/stm32f4xx_hal_i2s_ex.c **** 
 1812              		.loc 1 886 22 is_stmt 0 view .LVU598
 1813 0004 806B     		ldr	r0, [r0, #56]
 1814              	.LVL105:
 889:Drivers/STM32F4xx_HAL_Driver/Src/stm32f4xx_hal_i2s_ex.c ****   {
 1815              		.loc 1 889 3 is_stmt 1 view .LVU599
 889:Drivers/STM32F4xx_HAL_Driver/Src/stm32f4xx_hal_i2s_ex.c ****   {
 1816              		.loc 1 889 17 is_stmt 0 view .LVU600
 1817 0006 DB69     		ldr	r3, [r3, #28]
 1818              	.LVL106:
 889:Drivers/STM32F4xx_HAL_Driver/Src/stm32f4xx_hal_i2s_ex.c ****   {
 1819              		.loc 1 889 6 view .LVU601
 1820 0008 F3B9     		cbnz	r3, .L169
 891:Drivers/STM32F4xx_HAL_Driver/Src/stm32f4xx_hal_i2s_ex.c ****         ((hi2s->Instance->I2SCFGR & SPI_I2SCFGR_I2SCFG) == I2S_MODE_SLAVE_TX))
 1821              		.loc 1 891 5 is_stmt 1 view .LVU602
 891:Drivers/STM32F4xx_HAL_Driver/Src/stm32f4xx_hal_i2s_ex.c ****         ((hi2s->Instance->I2SCFGR & SPI_I2SCFGR_I2SCFG) == I2S_MODE_SLAVE_TX))
 1822              		.loc 1 891 15 is_stmt 0 view .LVU603
 1823 000a 0268     		ldr	r2, [r0]
 891:Drivers/STM32F4xx_HAL_Driver/Src/stm32f4xx_hal_i2s_ex.c ****         ((hi2s->Instance->I2SCFGR & SPI_I2SCFGR_I2SCFG) == I2S_MODE_SLAVE_TX))
 1824              		.loc 1 891 25 view .LVU604
 1825 000c D369     		ldr	r3, [r2, #28]
 891:Drivers/STM32F4xx_HAL_Driver/Src/stm32f4xx_hal_i2s_ex.c ****         ((hi2s->Instance->I2SCFGR & SPI_I2SCFGR_I2SCFG) == I2S_MODE_SLAVE_TX))
 1826              		.loc 1 891 35 view .LVU605
 1827 000e 03F44073 		and	r3, r3, #768
 891:Drivers/STM32F4xx_HAL_Driver/Src/stm32f4xx_hal_i2s_ex.c ****         ((hi2s->Instance->I2SCFGR & SPI_I2SCFGR_I2SCFG) == I2S_MODE_SLAVE_TX))
 1828              		.loc 1 891 8 view .LVU606
 1829 0012 B3F5007F 		cmp	r3, #512
 1830 0016 03D0     		beq	.L170
 892:Drivers/STM32F4xx_HAL_Driver/Src/stm32f4xx_hal_i2s_ex.c ****     /* Disable Tx & Rx DMA Requests */
 1831              		.loc 1 892 25 view .LVU607
 1832 0018 D369     		ldr	r3, [r2, #28]
 891:Drivers/STM32F4xx_HAL_Driver/Src/stm32f4xx_hal_i2s_ex.c ****         ((hi2s->Instance->I2SCFGR & SPI_I2SCFGR_I2SCFG) == I2S_MODE_SLAVE_TX))
 1833              		.loc 1 891 80 discriminator 1 view .LVU608
 1834 001a 13F4407F 		tst	r3, #768
 1835 001e 18D1     		bne	.L171
 1836              	.L170:
 895:Drivers/STM32F4xx_HAL_Driver/Src/stm32f4xx_hal_i2s_ex.c ****       CLEAR_BIT(hi2s->Instance->CR2, SPI_CR2_TXDMAEN);
 1837              		.loc 1 895 7 is_stmt 1 view .LVU609
 1838 0020 144B     		ldr	r3, .L180
 1839 0022 9A42     		cmp	r2, r3
 1840 0024 13D0     		beq	.L178
 895:Drivers/STM32F4xx_HAL_Driver/Src/stm32f4xx_hal_i2s_ex.c ****       CLEAR_BIT(hi2s->Instance->CR2, SPI_CR2_TXDMAEN);
 1841              		.loc 1 895 7 is_stmt 0 discriminator 2 view .LVU610
ARM GAS  /tmp/cc74GRYw.s 			page 63


 1842 0026 4FF04022 		mov	r2, #1073758208
 1843              	.L172:
 895:Drivers/STM32F4xx_HAL_Driver/Src/stm32f4xx_hal_i2s_ex.c ****       CLEAR_BIT(hi2s->Instance->CR2, SPI_CR2_TXDMAEN);
 1844              		.loc 1 895 7 discriminator 4 view .LVU611
 1845 002a 5368     		ldr	r3, [r2, #4]
 895:Drivers/STM32F4xx_HAL_Driver/Src/stm32f4xx_hal_i2s_ex.c ****       CLEAR_BIT(hi2s->Instance->CR2, SPI_CR2_TXDMAEN);
 1846              		.loc 1 895 7 discriminator 8 view .LVU612
 1847 002c 23F00103 		bic	r3, r3, #1
 1848 0030 5360     		str	r3, [r2, #4]
 896:Drivers/STM32F4xx_HAL_Driver/Src/stm32f4xx_hal_i2s_ex.c ****     }
 1849              		.loc 1 896 7 is_stmt 1 view .LVU613
 1850 0032 0268     		ldr	r2, [r0]
 1851 0034 5368     		ldr	r3, [r2, #4]
 1852 0036 23F00203 		bic	r3, r3, #2
 1853 003a 5360     		str	r3, [r2, #4]
 1854              	.L173:
 904:Drivers/STM32F4xx_HAL_Driver/Src/stm32f4xx_hal_i2s_ex.c ****     hi2s->TxXferCount = 0U;
 1855              		.loc 1 904 5 view .LVU614
 904:Drivers/STM32F4xx_HAL_Driver/Src/stm32f4xx_hal_i2s_ex.c ****     hi2s->TxXferCount = 0U;
 1856              		.loc 1 904 23 is_stmt 0 view .LVU615
 1857 003c 0023     		movs	r3, #0
 1858 003e 4386     		strh	r3, [r0, #50]	@ movhi
 905:Drivers/STM32F4xx_HAL_Driver/Src/stm32f4xx_hal_i2s_ex.c **** 
 1859              		.loc 1 905 5 is_stmt 1 view .LVU616
 905:Drivers/STM32F4xx_HAL_Driver/Src/stm32f4xx_hal_i2s_ex.c **** 
 1860              		.loc 1 905 23 is_stmt 0 view .LVU617
 1861 0040 4385     		strh	r3, [r0, #42]	@ movhi
 907:Drivers/STM32F4xx_HAL_Driver/Src/stm32f4xx_hal_i2s_ex.c ****   }
 1862              		.loc 1 907 5 is_stmt 1 view .LVU618
 907:Drivers/STM32F4xx_HAL_Driver/Src/stm32f4xx_hal_i2s_ex.c ****   }
 1863              		.loc 1 907 17 is_stmt 0 view .LVU619
 1864 0042 0123     		movs	r3, #1
 1865 0044 80F84130 		strb	r3, [r0, #65]
 1866              	.L169:
 914:Drivers/STM32F4xx_HAL_Driver/Src/stm32f4xx_hal_i2s_ex.c **** #endif /* USE_HAL_I2S_REGISTER_CALLBACKS */
 1867              		.loc 1 914 3 is_stmt 1 view .LVU620
 1868 0048 FFF7FEFF 		bl	HAL_I2SEx_TxRxCpltCallback
 1869              	.LVL107:
 916:Drivers/STM32F4xx_HAL_Driver/Src/stm32f4xx_hal_i2s_ex.c **** 
 1870              		.loc 1 916 1 is_stmt 0 view .LVU621
 1871 004c 08BD     		pop	{r3, pc}
 1872              	.LVL108:
 1873              	.L178:
 895:Drivers/STM32F4xx_HAL_Driver/Src/stm32f4xx_hal_i2s_ex.c ****       CLEAR_BIT(hi2s->Instance->CR2, SPI_CR2_TXDMAEN);
 1874              		.loc 1 895 7 discriminator 1 view .LVU622
 1875 004e 0A4A     		ldr	r2, .L180+4
 1876 0050 EBE7     		b	.L172
 1877              	.L171:
 900:Drivers/STM32F4xx_HAL_Driver/Src/stm32f4xx_hal_i2s_ex.c ****       CLEAR_BIT(I2SxEXT(hi2s->Instance)->CR2, SPI_CR2_TXDMAEN);
 1878              		.loc 1 900 7 is_stmt 1 view .LVU623
 1879 0052 5368     		ldr	r3, [r2, #4]
 1880 0054 23F00103 		bic	r3, r3, #1
 1881 0058 5360     		str	r3, [r2, #4]
 901:Drivers/STM32F4xx_HAL_Driver/Src/stm32f4xx_hal_i2s_ex.c ****     }
 1882              		.loc 1 901 7 view .LVU624
 1883 005a 0268     		ldr	r2, [r0]
 1884 005c 054B     		ldr	r3, .L180
ARM GAS  /tmp/cc74GRYw.s 			page 64


 1885 005e 9A42     		cmp	r2, r3
 1886 0060 06D0     		beq	.L179
 901:Drivers/STM32F4xx_HAL_Driver/Src/stm32f4xx_hal_i2s_ex.c ****     }
 1887              		.loc 1 901 7 is_stmt 0 discriminator 2 view .LVU625
 1888 0062 4FF04022 		mov	r2, #1073758208
 1889              	.L174:
 901:Drivers/STM32F4xx_HAL_Driver/Src/stm32f4xx_hal_i2s_ex.c ****     }
 1890              		.loc 1 901 7 discriminator 4 view .LVU626
 1891 0066 5368     		ldr	r3, [r2, #4]
 901:Drivers/STM32F4xx_HAL_Driver/Src/stm32f4xx_hal_i2s_ex.c ****     }
 1892              		.loc 1 901 7 discriminator 8 view .LVU627
 1893 0068 23F00203 		bic	r3, r3, #2
 1894 006c 5360     		str	r3, [r2, #4]
 1895 006e E5E7     		b	.L173
 1896              	.L179:
 901:Drivers/STM32F4xx_HAL_Driver/Src/stm32f4xx_hal_i2s_ex.c ****     }
 1897              		.loc 1 901 7 discriminator 1 view .LVU628
 1898 0070 014A     		ldr	r2, .L180+4
 1899 0072 F8E7     		b	.L174
 1900              	.L181:
 1901              		.align	2
 1902              	.L180:
 1903 0074 00380040 		.word	1073756160
 1904 0078 00340040 		.word	1073755136
 1905              		.cfi_endproc
 1906              	.LFE137:
 1908              		.section	.text.I2SEx_TxISR_I2S,"ax",%progbits
 1909              		.align	1
 1910              		.syntax unified
 1911              		.thumb
 1912              		.thumb_func
 1914              	I2SEx_TxISR_I2S:
 1915              	.LVL109:
 1916              	.LFB139:
 952:Drivers/STM32F4xx_HAL_Driver/Src/stm32f4xx_hal_i2s_ex.c ****   /* Write Data on DR register */
 1917              		.loc 1 952 1 is_stmt 1 view -0
 1918              		.cfi_startproc
 1919              		@ args = 0, pretend = 0, frame = 0
 1920              		@ frame_needed = 0, uses_anonymous_args = 0
 952:Drivers/STM32F4xx_HAL_Driver/Src/stm32f4xx_hal_i2s_ex.c ****   /* Write Data on DR register */
 1921              		.loc 1 952 1 is_stmt 0 view .LVU630
 1922 0000 08B5     		push	{r3, lr}
 1923              		.cfi_def_cfa_offset 8
 1924              		.cfi_offset 3, -8
 1925              		.cfi_offset 14, -4
 954:Drivers/STM32F4xx_HAL_Driver/Src/stm32f4xx_hal_i2s_ex.c ****   hi2s->TxXferCount--;
 1926              		.loc 1 954 3 is_stmt 1 view .LVU631
 954:Drivers/STM32F4xx_HAL_Driver/Src/stm32f4xx_hal_i2s_ex.c ****   hi2s->TxXferCount--;
 1927              		.loc 1 954 30 is_stmt 0 view .LVU632
 1928 0002 436A     		ldr	r3, [r0, #36]
 954:Drivers/STM32F4xx_HAL_Driver/Src/stm32f4xx_hal_i2s_ex.c ****   hi2s->TxXferCount--;
 1929              		.loc 1 954 42 view .LVU633
 1930 0004 9A1C     		adds	r2, r3, #2
 1931 0006 4262     		str	r2, [r0, #36]
 954:Drivers/STM32F4xx_HAL_Driver/Src/stm32f4xx_hal_i2s_ex.c ****   hi2s->TxXferCount--;
 1932              		.loc 1 954 7 view .LVU634
 1933 0008 0268     		ldr	r2, [r0]
ARM GAS  /tmp/cc74GRYw.s 			page 65


 954:Drivers/STM32F4xx_HAL_Driver/Src/stm32f4xx_hal_i2s_ex.c ****   hi2s->TxXferCount--;
 1934              		.loc 1 954 25 view .LVU635
 1935 000a 1B88     		ldrh	r3, [r3]
 954:Drivers/STM32F4xx_HAL_Driver/Src/stm32f4xx_hal_i2s_ex.c ****   hi2s->TxXferCount--;
 1936              		.loc 1 954 22 view .LVU636
 1937 000c D360     		str	r3, [r2, #12]
 955:Drivers/STM32F4xx_HAL_Driver/Src/stm32f4xx_hal_i2s_ex.c **** 
 1938              		.loc 1 955 3 is_stmt 1 view .LVU637
 955:Drivers/STM32F4xx_HAL_Driver/Src/stm32f4xx_hal_i2s_ex.c **** 
 1939              		.loc 1 955 7 is_stmt 0 view .LVU638
 1940 000e 438D     		ldrh	r3, [r0, #42]
 1941 0010 9BB2     		uxth	r3, r3
 955:Drivers/STM32F4xx_HAL_Driver/Src/stm32f4xx_hal_i2s_ex.c **** 
 1942              		.loc 1 955 20 view .LVU639
 1943 0012 013B     		subs	r3, r3, #1
 1944 0014 9BB2     		uxth	r3, r3
 1945 0016 4385     		strh	r3, [r0, #42]	@ movhi
 957:Drivers/STM32F4xx_HAL_Driver/Src/stm32f4xx_hal_i2s_ex.c ****   {
 1946              		.loc 1 957 3 is_stmt 1 view .LVU640
 957:Drivers/STM32F4xx_HAL_Driver/Src/stm32f4xx_hal_i2s_ex.c ****   {
 1947              		.loc 1 957 11 is_stmt 0 view .LVU641
 1948 0018 438D     		ldrh	r3, [r0, #42]
 1949 001a 9BB2     		uxth	r3, r3
 957:Drivers/STM32F4xx_HAL_Driver/Src/stm32f4xx_hal_i2s_ex.c ****   {
 1950              		.loc 1 957 6 view .LVU642
 1951 001c 3BB9     		cbnz	r3, .L182
 960:Drivers/STM32F4xx_HAL_Driver/Src/stm32f4xx_hal_i2s_ex.c **** 
 1952              		.loc 1 960 5 is_stmt 1 view .LVU643
 1953 001e 0268     		ldr	r2, [r0]
 1954 0020 5368     		ldr	r3, [r2, #4]
 1955 0022 23F0A003 		bic	r3, r3, #160
 1956 0026 5360     		str	r3, [r2, #4]
 962:Drivers/STM32F4xx_HAL_Driver/Src/stm32f4xx_hal_i2s_ex.c ****     {
 1957              		.loc 1 962 5 view .LVU644
 962:Drivers/STM32F4xx_HAL_Driver/Src/stm32f4xx_hal_i2s_ex.c ****     {
 1958              		.loc 1 962 13 is_stmt 0 view .LVU645
 1959 0028 438E     		ldrh	r3, [r0, #50]
 1960 002a 9BB2     		uxth	r3, r3
 962:Drivers/STM32F4xx_HAL_Driver/Src/stm32f4xx_hal_i2s_ex.c ****     {
 1961              		.loc 1 962 8 view .LVU646
 1962 002c 03B1     		cbz	r3, .L185
 1963              	.LVL110:
 1964              	.L182:
 973:Drivers/STM32F4xx_HAL_Driver/Src/stm32f4xx_hal_i2s_ex.c **** 
 1965              		.loc 1 973 1 view .LVU647
 1966 002e 08BD     		pop	{r3, pc}
 1967              	.LVL111:
 1968              	.L185:
 964:Drivers/STM32F4xx_HAL_Driver/Src/stm32f4xx_hal_i2s_ex.c ****       /* Call user TxRx complete callback */
 1969              		.loc 1 964 7 is_stmt 1 view .LVU648
 964:Drivers/STM32F4xx_HAL_Driver/Src/stm32f4xx_hal_i2s_ex.c ****       /* Call user TxRx complete callback */
 1970              		.loc 1 964 19 is_stmt 0 view .LVU649
 1971 0030 0123     		movs	r3, #1
 1972 0032 80F84130 		strb	r3, [r0, #65]
 969:Drivers/STM32F4xx_HAL_Driver/Src/stm32f4xx_hal_i2s_ex.c **** #endif /* USE_HAL_I2S_REGISTER_CALLBACKS */
 1973              		.loc 1 969 7 is_stmt 1 view .LVU650
 1974 0036 FFF7FEFF 		bl	HAL_I2SEx_TxRxCpltCallback
ARM GAS  /tmp/cc74GRYw.s 			page 66


 1975              	.LVL112:
 973:Drivers/STM32F4xx_HAL_Driver/Src/stm32f4xx_hal_i2s_ex.c **** 
 1976              		.loc 1 973 1 is_stmt 0 view .LVU651
 1977 003a F8E7     		b	.L182
 1978              		.cfi_endproc
 1979              	.LFE139:
 1981              		.section	.text.I2SEx_RxISR_I2SExt,"ax",%progbits
 1982              		.align	1
 1983              		.syntax unified
 1984              		.thumb
 1985              		.thumb_func
 1987              	I2SEx_RxISR_I2SExt:
 1988              	.LVL113:
 1989              	.LFB142:
1039:Drivers/STM32F4xx_HAL_Driver/Src/stm32f4xx_hal_i2s_ex.c ****   /* Read Data from DR register */
 1990              		.loc 1 1039 1 is_stmt 1 view -0
 1991              		.cfi_startproc
 1992              		@ args = 0, pretend = 0, frame = 0
 1993              		@ frame_needed = 0, uses_anonymous_args = 0
1039:Drivers/STM32F4xx_HAL_Driver/Src/stm32f4xx_hal_i2s_ex.c ****   /* Read Data from DR register */
 1994              		.loc 1 1039 1 is_stmt 0 view .LVU653
 1995 0000 08B5     		push	{r3, lr}
 1996              		.cfi_def_cfa_offset 8
 1997              		.cfi_offset 3, -8
 1998              		.cfi_offset 14, -4
1041:Drivers/STM32F4xx_HAL_Driver/Src/stm32f4xx_hal_i2s_ex.c ****   hi2s->RxXferCount--;
 1999              		.loc 1 1041 3 is_stmt 1 view .LVU654
1041:Drivers/STM32F4xx_HAL_Driver/Src/stm32f4xx_hal_i2s_ex.c ****   hi2s->RxXferCount--;
 2000              		.loc 1 1041 27 is_stmt 0 view .LVU655
 2001 0002 0268     		ldr	r2, [r0]
 2002 0004 154B     		ldr	r3, .L196
 2003 0006 9A42     		cmp	r2, r3
 2004 0008 1CD0     		beq	.L193
1041:Drivers/STM32F4xx_HAL_Driver/Src/stm32f4xx_hal_i2s_ex.c ****   hi2s->RxXferCount--;
 2005              		.loc 1 1041 27 discriminator 2 view .LVU656
 2006 000a 4FF04023 		mov	r3, #1073758208
 2007              	.L187:
1041:Drivers/STM32F4xx_HAL_Driver/Src/stm32f4xx_hal_i2s_ex.c ****   hi2s->RxXferCount--;
 2008              		.loc 1 1041 50 discriminator 4 view .LVU657
 2009 000e DA68     		ldr	r2, [r3, #12]
1041:Drivers/STM32F4xx_HAL_Driver/Src/stm32f4xx_hal_i2s_ex.c ****   hi2s->RxXferCount--;
 2010              		.loc 1 1041 9 discriminator 4 view .LVU658
 2011 0010 C36A     		ldr	r3, [r0, #44]
1041:Drivers/STM32F4xx_HAL_Driver/Src/stm32f4xx_hal_i2s_ex.c ****   hi2s->RxXferCount--;
 2012              		.loc 1 1041 21 discriminator 4 view .LVU659
 2013 0012 991C     		adds	r1, r3, #2
 2014 0014 C162     		str	r1, [r0, #44]
1041:Drivers/STM32F4xx_HAL_Driver/Src/stm32f4xx_hal_i2s_ex.c ****   hi2s->RxXferCount--;
 2015              		.loc 1 1041 25 discriminator 4 view .LVU660
 2016 0016 1A80     		strh	r2, [r3]	@ movhi
1042:Drivers/STM32F4xx_HAL_Driver/Src/stm32f4xx_hal_i2s_ex.c **** 
 2017              		.loc 1 1042 3 is_stmt 1 view .LVU661
1042:Drivers/STM32F4xx_HAL_Driver/Src/stm32f4xx_hal_i2s_ex.c **** 
 2018              		.loc 1 1042 7 is_stmt 0 view .LVU662
 2019 0018 438E     		ldrh	r3, [r0, #50]
 2020 001a 9BB2     		uxth	r3, r3
1042:Drivers/STM32F4xx_HAL_Driver/Src/stm32f4xx_hal_i2s_ex.c **** 
ARM GAS  /tmp/cc74GRYw.s 			page 67


 2021              		.loc 1 1042 20 view .LVU663
 2022 001c 013B     		subs	r3, r3, #1
 2023 001e 9BB2     		uxth	r3, r3
 2024 0020 4386     		strh	r3, [r0, #50]	@ movhi
1044:Drivers/STM32F4xx_HAL_Driver/Src/stm32f4xx_hal_i2s_ex.c ****   {
 2025              		.loc 1 1044 3 is_stmt 1 view .LVU664
1044:Drivers/STM32F4xx_HAL_Driver/Src/stm32f4xx_hal_i2s_ex.c ****   {
 2026              		.loc 1 1044 11 is_stmt 0 view .LVU665
 2027 0022 438E     		ldrh	r3, [r0, #50]
 2028 0024 9BB2     		uxth	r3, r3
1044:Drivers/STM32F4xx_HAL_Driver/Src/stm32f4xx_hal_i2s_ex.c ****   {
 2029              		.loc 1 1044 6 view .LVU666
 2030 0026 63B9     		cbnz	r3, .L186
1047:Drivers/STM32F4xx_HAL_Driver/Src/stm32f4xx_hal_i2s_ex.c **** 
 2031              		.loc 1 1047 5 is_stmt 1 view .LVU667
 2032 0028 0268     		ldr	r2, [r0]
 2033 002a 0C4B     		ldr	r3, .L196
 2034 002c 9A42     		cmp	r2, r3
 2035 002e 0CD0     		beq	.L194
1047:Drivers/STM32F4xx_HAL_Driver/Src/stm32f4xx_hal_i2s_ex.c **** 
 2036              		.loc 1 1047 5 is_stmt 0 discriminator 2 view .LVU668
 2037 0030 4FF04022 		mov	r2, #1073758208
 2038              	.L189:
1047:Drivers/STM32F4xx_HAL_Driver/Src/stm32f4xx_hal_i2s_ex.c **** 
 2039              		.loc 1 1047 5 discriminator 4 view .LVU669
 2040 0034 5368     		ldr	r3, [r2, #4]
1047:Drivers/STM32F4xx_HAL_Driver/Src/stm32f4xx_hal_i2s_ex.c **** 
 2041              		.loc 1 1047 5 discriminator 8 view .LVU670
 2042 0036 23F06003 		bic	r3, r3, #96
 2043 003a 5360     		str	r3, [r2, #4]
1049:Drivers/STM32F4xx_HAL_Driver/Src/stm32f4xx_hal_i2s_ex.c ****     {
 2044              		.loc 1 1049 5 is_stmt 1 view .LVU671
1049:Drivers/STM32F4xx_HAL_Driver/Src/stm32f4xx_hal_i2s_ex.c ****     {
 2045              		.loc 1 1049 13 is_stmt 0 view .LVU672
 2046 003c 438D     		ldrh	r3, [r0, #42]
 2047 003e 9BB2     		uxth	r3, r3
1049:Drivers/STM32F4xx_HAL_Driver/Src/stm32f4xx_hal_i2s_ex.c ****     {
 2048              		.loc 1 1049 8 view .LVU673
 2049 0040 2BB1     		cbz	r3, .L195
 2050              	.LVL114:
 2051              	.L186:
1060:Drivers/STM32F4xx_HAL_Driver/Src/stm32f4xx_hal_i2s_ex.c **** 
 2052              		.loc 1 1060 1 view .LVU674
 2053 0042 08BD     		pop	{r3, pc}
 2054              	.LVL115:
 2055              	.L193:
1041:Drivers/STM32F4xx_HAL_Driver/Src/stm32f4xx_hal_i2s_ex.c ****   hi2s->RxXferCount--;
 2056              		.loc 1 1041 27 discriminator 1 view .LVU675
 2057 0044 A3F58063 		sub	r3, r3, #1024
 2058 0048 E1E7     		b	.L187
 2059              	.L194:
1047:Drivers/STM32F4xx_HAL_Driver/Src/stm32f4xx_hal_i2s_ex.c **** 
 2060              		.loc 1 1047 5 discriminator 1 view .LVU676
 2061 004a 054A     		ldr	r2, .L196+4
 2062 004c F2E7     		b	.L189
 2063              	.L195:
1051:Drivers/STM32F4xx_HAL_Driver/Src/stm32f4xx_hal_i2s_ex.c ****       /* Call user TxRx complete callback */
ARM GAS  /tmp/cc74GRYw.s 			page 68


 2064              		.loc 1 1051 7 is_stmt 1 view .LVU677
1051:Drivers/STM32F4xx_HAL_Driver/Src/stm32f4xx_hal_i2s_ex.c ****       /* Call user TxRx complete callback */
 2065              		.loc 1 1051 19 is_stmt 0 view .LVU678
 2066 004e 0123     		movs	r3, #1
 2067 0050 80F84130 		strb	r3, [r0, #65]
1056:Drivers/STM32F4xx_HAL_Driver/Src/stm32f4xx_hal_i2s_ex.c **** #endif /* USE_HAL_I2S_REGISTER_CALLBACKS */
 2068              		.loc 1 1056 7 is_stmt 1 view .LVU679
 2069 0054 FFF7FEFF 		bl	HAL_I2SEx_TxRxCpltCallback
 2070              	.LVL116:
1060:Drivers/STM32F4xx_HAL_Driver/Src/stm32f4xx_hal_i2s_ex.c **** 
 2071              		.loc 1 1060 1 is_stmt 0 view .LVU680
 2072 0058 F3E7     		b	.L186
 2073              	.L197:
 2074 005a 00BF     		.align	2
 2075              	.L196:
 2076 005c 00380040 		.word	1073756160
 2077 0060 00340040 		.word	1073755136
 2078              		.cfi_endproc
 2079              	.LFE142:
 2081              		.section	.text.I2SEx_TxISR_I2SExt,"ax",%progbits
 2082              		.align	1
 2083              		.syntax unified
 2084              		.thumb
 2085              		.thumb_func
 2087              	I2SEx_TxISR_I2SExt:
 2088              	.LVL117:
 2089              	.LFB140:
 981:Drivers/STM32F4xx_HAL_Driver/Src/stm32f4xx_hal_i2s_ex.c ****   /* Write Data on DR register */
 2090              		.loc 1 981 1 is_stmt 1 view -0
 2091              		.cfi_startproc
 2092              		@ args = 0, pretend = 0, frame = 0
 2093              		@ frame_needed = 0, uses_anonymous_args = 0
 981:Drivers/STM32F4xx_HAL_Driver/Src/stm32f4xx_hal_i2s_ex.c ****   /* Write Data on DR register */
 2094              		.loc 1 981 1 is_stmt 0 view .LVU682
 2095 0000 08B5     		push	{r3, lr}
 2096              		.cfi_def_cfa_offset 8
 2097              		.cfi_offset 3, -8
 2098              		.cfi_offset 14, -4
 983:Drivers/STM32F4xx_HAL_Driver/Src/stm32f4xx_hal_i2s_ex.c ****   hi2s->TxXferCount--;
 2099              		.loc 1 983 3 is_stmt 1 view .LVU683
 983:Drivers/STM32F4xx_HAL_Driver/Src/stm32f4xx_hal_i2s_ex.c ****   hi2s->TxXferCount--;
 2100              		.loc 1 983 39 is_stmt 0 view .LVU684
 2101 0002 436A     		ldr	r3, [r0, #36]
 983:Drivers/STM32F4xx_HAL_Driver/Src/stm32f4xx_hal_i2s_ex.c ****   hi2s->TxXferCount--;
 2102              		.loc 1 983 51 view .LVU685
 2103 0004 9A1C     		adds	r2, r3, #2
 2104 0006 4262     		str	r2, [r0, #36]
 983:Drivers/STM32F4xx_HAL_Driver/Src/stm32f4xx_hal_i2s_ex.c ****   hi2s->TxXferCount--;
 2105              		.loc 1 983 34 view .LVU686
 2106 0008 1A88     		ldrh	r2, [r3]
 983:Drivers/STM32F4xx_HAL_Driver/Src/stm32f4xx_hal_i2s_ex.c ****   hi2s->TxXferCount--;
 2107              		.loc 1 983 3 view .LVU687
 2108 000a 0168     		ldr	r1, [r0]
 2109 000c 134B     		ldr	r3, .L208
 2110 000e 9942     		cmp	r1, r3
 2111 0010 18D0     		beq	.L205
 983:Drivers/STM32F4xx_HAL_Driver/Src/stm32f4xx_hal_i2s_ex.c ****   hi2s->TxXferCount--;
ARM GAS  /tmp/cc74GRYw.s 			page 69


 2112              		.loc 1 983 3 discriminator 2 view .LVU688
 2113 0012 4FF04023 		mov	r3, #1073758208
 2114              	.L199:
 983:Drivers/STM32F4xx_HAL_Driver/Src/stm32f4xx_hal_i2s_ex.c ****   hi2s->TxXferCount--;
 2115              		.loc 1 983 31 discriminator 4 view .LVU689
 2116 0016 DA60     		str	r2, [r3, #12]
 984:Drivers/STM32F4xx_HAL_Driver/Src/stm32f4xx_hal_i2s_ex.c **** 
 2117              		.loc 1 984 3 is_stmt 1 view .LVU690
 984:Drivers/STM32F4xx_HAL_Driver/Src/stm32f4xx_hal_i2s_ex.c **** 
 2118              		.loc 1 984 7 is_stmt 0 view .LVU691
 2119 0018 438D     		ldrh	r3, [r0, #42]
 2120 001a 9BB2     		uxth	r3, r3
 984:Drivers/STM32F4xx_HAL_Driver/Src/stm32f4xx_hal_i2s_ex.c **** 
 2121              		.loc 1 984 20 view .LVU692
 2122 001c 013B     		subs	r3, r3, #1
 2123 001e 9BB2     		uxth	r3, r3
 2124 0020 4385     		strh	r3, [r0, #42]	@ movhi
 986:Drivers/STM32F4xx_HAL_Driver/Src/stm32f4xx_hal_i2s_ex.c ****   {
 2125              		.loc 1 986 3 is_stmt 1 view .LVU693
 986:Drivers/STM32F4xx_HAL_Driver/Src/stm32f4xx_hal_i2s_ex.c ****   {
 2126              		.loc 1 986 11 is_stmt 0 view .LVU694
 2127 0022 438D     		ldrh	r3, [r0, #42]
 2128 0024 9BB2     		uxth	r3, r3
 986:Drivers/STM32F4xx_HAL_Driver/Src/stm32f4xx_hal_i2s_ex.c ****   {
 2129              		.loc 1 986 6 view .LVU695
 2130 0026 63B9     		cbnz	r3, .L198
 989:Drivers/STM32F4xx_HAL_Driver/Src/stm32f4xx_hal_i2s_ex.c **** 
 2131              		.loc 1 989 5 is_stmt 1 view .LVU696
 2132 0028 0268     		ldr	r2, [r0]
 2133 002a 0C4B     		ldr	r3, .L208
 2134 002c 9A42     		cmp	r2, r3
 2135 002e 0CD0     		beq	.L206
 989:Drivers/STM32F4xx_HAL_Driver/Src/stm32f4xx_hal_i2s_ex.c **** 
 2136              		.loc 1 989 5 is_stmt 0 discriminator 2 view .LVU697
 2137 0030 4FF04022 		mov	r2, #1073758208
 2138              	.L201:
 989:Drivers/STM32F4xx_HAL_Driver/Src/stm32f4xx_hal_i2s_ex.c **** 
 2139              		.loc 1 989 5 discriminator 4 view .LVU698
 2140 0034 5368     		ldr	r3, [r2, #4]
 989:Drivers/STM32F4xx_HAL_Driver/Src/stm32f4xx_hal_i2s_ex.c **** 
 2141              		.loc 1 989 5 discriminator 8 view .LVU699
 2142 0036 23F0A003 		bic	r3, r3, #160
 2143 003a 5360     		str	r3, [r2, #4]
 991:Drivers/STM32F4xx_HAL_Driver/Src/stm32f4xx_hal_i2s_ex.c ****     {
 2144              		.loc 1 991 5 is_stmt 1 view .LVU700
 991:Drivers/STM32F4xx_HAL_Driver/Src/stm32f4xx_hal_i2s_ex.c ****     {
 2145              		.loc 1 991 13 is_stmt 0 view .LVU701
 2146 003c 438E     		ldrh	r3, [r0, #50]
 2147 003e 9BB2     		uxth	r3, r3
 991:Drivers/STM32F4xx_HAL_Driver/Src/stm32f4xx_hal_i2s_ex.c ****     {
 2148              		.loc 1 991 8 view .LVU702
 2149 0040 2BB1     		cbz	r3, .L207
 2150              	.LVL118:
 2151              	.L198:
1002:Drivers/STM32F4xx_HAL_Driver/Src/stm32f4xx_hal_i2s_ex.c **** 
 2152              		.loc 1 1002 1 view .LVU703
 2153 0042 08BD     		pop	{r3, pc}
ARM GAS  /tmp/cc74GRYw.s 			page 70


 2154              	.LVL119:
 2155              	.L205:
 983:Drivers/STM32F4xx_HAL_Driver/Src/stm32f4xx_hal_i2s_ex.c ****   hi2s->TxXferCount--;
 2156              		.loc 1 983 3 discriminator 1 view .LVU704
 2157 0044 A3F58063 		sub	r3, r3, #1024
 2158 0048 E5E7     		b	.L199
 2159              	.L206:
 989:Drivers/STM32F4xx_HAL_Driver/Src/stm32f4xx_hal_i2s_ex.c **** 
 2160              		.loc 1 989 5 discriminator 1 view .LVU705
 2161 004a 054A     		ldr	r2, .L208+4
 2162 004c F2E7     		b	.L201
 2163              	.L207:
 993:Drivers/STM32F4xx_HAL_Driver/Src/stm32f4xx_hal_i2s_ex.c ****       /* Call user TxRx complete callback */
 2164              		.loc 1 993 7 is_stmt 1 view .LVU706
 993:Drivers/STM32F4xx_HAL_Driver/Src/stm32f4xx_hal_i2s_ex.c ****       /* Call user TxRx complete callback */
 2165              		.loc 1 993 19 is_stmt 0 view .LVU707
 2166 004e 0123     		movs	r3, #1
 2167 0050 80F84130 		strb	r3, [r0, #65]
 998:Drivers/STM32F4xx_HAL_Driver/Src/stm32f4xx_hal_i2s_ex.c **** #endif /* USE_HAL_I2S_REGISTER_CALLBACKS */
 2168              		.loc 1 998 7 is_stmt 1 view .LVU708
 2169 0054 FFF7FEFF 		bl	HAL_I2SEx_TxRxCpltCallback
 2170              	.LVL120:
1002:Drivers/STM32F4xx_HAL_Driver/Src/stm32f4xx_hal_i2s_ex.c **** 
 2171              		.loc 1 1002 1 is_stmt 0 view .LVU709
 2172 0058 F3E7     		b	.L198
 2173              	.L209:
 2174 005a 00BF     		.align	2
 2175              	.L208:
 2176 005c 00380040 		.word	1073756160
 2177 0060 00340040 		.word	1073755136
 2178              		.cfi_endproc
 2179              	.LFE140:
 2181              		.section	.text.I2SEx_RxISR_I2S,"ax",%progbits
 2182              		.align	1
 2183              		.syntax unified
 2184              		.thumb
 2185              		.thumb_func
 2187              	I2SEx_RxISR_I2S:
 2188              	.LVL121:
 2189              	.LFB141:
1010:Drivers/STM32F4xx_HAL_Driver/Src/stm32f4xx_hal_i2s_ex.c ****   /* Read Data from DR register */
 2190              		.loc 1 1010 1 is_stmt 1 view -0
 2191              		.cfi_startproc
 2192              		@ args = 0, pretend = 0, frame = 0
 2193              		@ frame_needed = 0, uses_anonymous_args = 0
1010:Drivers/STM32F4xx_HAL_Driver/Src/stm32f4xx_hal_i2s_ex.c ****   /* Read Data from DR register */
 2194              		.loc 1 1010 1 is_stmt 0 view .LVU711
 2195 0000 08B5     		push	{r3, lr}
 2196              		.cfi_def_cfa_offset 8
 2197              		.cfi_offset 3, -8
 2198              		.cfi_offset 14, -4
1012:Drivers/STM32F4xx_HAL_Driver/Src/stm32f4xx_hal_i2s_ex.c ****   hi2s->RxXferCount--;
 2199              		.loc 1 1012 3 is_stmt 1 view .LVU712
1012:Drivers/STM32F4xx_HAL_Driver/Src/stm32f4xx_hal_i2s_ex.c ****   hi2s->RxXferCount--;
 2200              		.loc 1 1012 31 is_stmt 0 view .LVU713
 2201 0002 0368     		ldr	r3, [r0]
1012:Drivers/STM32F4xx_HAL_Driver/Src/stm32f4xx_hal_i2s_ex.c ****   hi2s->RxXferCount--;
ARM GAS  /tmp/cc74GRYw.s 			page 71


 2202              		.loc 1 1012 41 view .LVU714
 2203 0004 DA68     		ldr	r2, [r3, #12]
1012:Drivers/STM32F4xx_HAL_Driver/Src/stm32f4xx_hal_i2s_ex.c ****   hi2s->RxXferCount--;
 2204              		.loc 1 1012 9 view .LVU715
 2205 0006 C36A     		ldr	r3, [r0, #44]
1012:Drivers/STM32F4xx_HAL_Driver/Src/stm32f4xx_hal_i2s_ex.c ****   hi2s->RxXferCount--;
 2206              		.loc 1 1012 21 view .LVU716
 2207 0008 991C     		adds	r1, r3, #2
 2208 000a C162     		str	r1, [r0, #44]
1012:Drivers/STM32F4xx_HAL_Driver/Src/stm32f4xx_hal_i2s_ex.c ****   hi2s->RxXferCount--;
 2209              		.loc 1 1012 25 view .LVU717
 2210 000c 1A80     		strh	r2, [r3]	@ movhi
1013:Drivers/STM32F4xx_HAL_Driver/Src/stm32f4xx_hal_i2s_ex.c **** 
 2211              		.loc 1 1013 3 is_stmt 1 view .LVU718
1013:Drivers/STM32F4xx_HAL_Driver/Src/stm32f4xx_hal_i2s_ex.c **** 
 2212              		.loc 1 1013 7 is_stmt 0 view .LVU719
 2213 000e 438E     		ldrh	r3, [r0, #50]
 2214 0010 9BB2     		uxth	r3, r3
1013:Drivers/STM32F4xx_HAL_Driver/Src/stm32f4xx_hal_i2s_ex.c **** 
 2215              		.loc 1 1013 20 view .LVU720
 2216 0012 013B     		subs	r3, r3, #1
 2217 0014 9BB2     		uxth	r3, r3
 2218 0016 4386     		strh	r3, [r0, #50]	@ movhi
1015:Drivers/STM32F4xx_HAL_Driver/Src/stm32f4xx_hal_i2s_ex.c ****   {
 2219              		.loc 1 1015 3 is_stmt 1 view .LVU721
1015:Drivers/STM32F4xx_HAL_Driver/Src/stm32f4xx_hal_i2s_ex.c ****   {
 2220              		.loc 1 1015 11 is_stmt 0 view .LVU722
 2221 0018 438E     		ldrh	r3, [r0, #50]
 2222 001a 9BB2     		uxth	r3, r3
1015:Drivers/STM32F4xx_HAL_Driver/Src/stm32f4xx_hal_i2s_ex.c ****   {
 2223              		.loc 1 1015 6 view .LVU723
 2224 001c 3BB9     		cbnz	r3, .L210
1018:Drivers/STM32F4xx_HAL_Driver/Src/stm32f4xx_hal_i2s_ex.c **** 
 2225              		.loc 1 1018 5 is_stmt 1 view .LVU724
 2226 001e 0268     		ldr	r2, [r0]
 2227 0020 5368     		ldr	r3, [r2, #4]
 2228 0022 23F06003 		bic	r3, r3, #96
 2229 0026 5360     		str	r3, [r2, #4]
1020:Drivers/STM32F4xx_HAL_Driver/Src/stm32f4xx_hal_i2s_ex.c ****     {
 2230              		.loc 1 1020 5 view .LVU725
1020:Drivers/STM32F4xx_HAL_Driver/Src/stm32f4xx_hal_i2s_ex.c ****     {
 2231              		.loc 1 1020 13 is_stmt 0 view .LVU726
 2232 0028 438D     		ldrh	r3, [r0, #42]
 2233 002a 9BB2     		uxth	r3, r3
1020:Drivers/STM32F4xx_HAL_Driver/Src/stm32f4xx_hal_i2s_ex.c ****     {
 2234              		.loc 1 1020 8 view .LVU727
 2235 002c 03B1     		cbz	r3, .L213
 2236              	.LVL122:
 2237              	.L210:
1031:Drivers/STM32F4xx_HAL_Driver/Src/stm32f4xx_hal_i2s_ex.c **** 
 2238              		.loc 1 1031 1 view .LVU728
 2239 002e 08BD     		pop	{r3, pc}
 2240              	.LVL123:
 2241              	.L213:
1022:Drivers/STM32F4xx_HAL_Driver/Src/stm32f4xx_hal_i2s_ex.c ****       /* Call user TxRx complete callback */
 2242              		.loc 1 1022 7 is_stmt 1 view .LVU729
1022:Drivers/STM32F4xx_HAL_Driver/Src/stm32f4xx_hal_i2s_ex.c ****       /* Call user TxRx complete callback */
ARM GAS  /tmp/cc74GRYw.s 			page 72


 2243              		.loc 1 1022 19 is_stmt 0 view .LVU730
 2244 0030 0123     		movs	r3, #1
 2245 0032 80F84130 		strb	r3, [r0, #65]
1027:Drivers/STM32F4xx_HAL_Driver/Src/stm32f4xx_hal_i2s_ex.c **** #endif /* USE_HAL_I2S_REGISTER_CALLBACKS */
 2246              		.loc 1 1027 7 is_stmt 1 view .LVU731
 2247 0036 FFF7FEFF 		bl	HAL_I2SEx_TxRxCpltCallback
 2248              	.LVL124:
1031:Drivers/STM32F4xx_HAL_Driver/Src/stm32f4xx_hal_i2s_ex.c **** 
 2249              		.loc 1 1031 1 is_stmt 0 view .LVU732
 2250 003a F8E7     		b	.L210
 2251              		.cfi_endproc
 2252              	.LFE141:
 2254              		.section	.text.HAL_I2SEx_FullDuplex_IRQHandler,"ax",%progbits
 2255              		.align	1
 2256              		.global	HAL_I2SEx_FullDuplex_IRQHandler
 2257              		.syntax unified
 2258              		.thumb
 2259              		.thumb_func
 2261              	HAL_I2SEx_FullDuplex_IRQHandler:
 2262              	.LVL125:
 2263              	.LFB133:
 678:Drivers/STM32F4xx_HAL_Driver/Src/stm32f4xx_hal_i2s_ex.c ****   __IO uint32_t i2ssr     = hi2s->Instance->SR;
 2264              		.loc 1 678 1 is_stmt 1 view -0
 2265              		.cfi_startproc
 2266              		@ args = 0, pretend = 0, frame = 24
 2267              		@ frame_needed = 0, uses_anonymous_args = 0
 678:Drivers/STM32F4xx_HAL_Driver/Src/stm32f4xx_hal_i2s_ex.c ****   __IO uint32_t i2ssr     = hi2s->Instance->SR;
 2268              		.loc 1 678 1 is_stmt 0 view .LVU734
 2269 0000 10B5     		push	{r4, lr}
 2270              		.cfi_def_cfa_offset 8
 2271              		.cfi_offset 4, -8
 2272              		.cfi_offset 14, -4
 2273 0002 86B0     		sub	sp, sp, #24
 2274              		.cfi_def_cfa_offset 32
 2275 0004 0446     		mov	r4, r0
 679:Drivers/STM32F4xx_HAL_Driver/Src/stm32f4xx_hal_i2s_ex.c ****   __IO uint32_t i2sextsr  = I2SxEXT(hi2s->Instance)->SR;
 2276              		.loc 1 679 3 is_stmt 1 view .LVU735
 679:Drivers/STM32F4xx_HAL_Driver/Src/stm32f4xx_hal_i2s_ex.c ****   __IO uint32_t i2sextsr  = I2SxEXT(hi2s->Instance)->SR;
 2277              		.loc 1 679 33 is_stmt 0 view .LVU736
 2278 0006 0368     		ldr	r3, [r0]
 679:Drivers/STM32F4xx_HAL_Driver/Src/stm32f4xx_hal_i2s_ex.c ****   __IO uint32_t i2sextsr  = I2SxEXT(hi2s->Instance)->SR;
 2279              		.loc 1 679 43 view .LVU737
 2280 0008 9A68     		ldr	r2, [r3, #8]
 679:Drivers/STM32F4xx_HAL_Driver/Src/stm32f4xx_hal_i2s_ex.c ****   __IO uint32_t i2sextsr  = I2SxEXT(hi2s->Instance)->SR;
 2281              		.loc 1 679 17 view .LVU738
 2282 000a 0592     		str	r2, [sp, #20]
 680:Drivers/STM32F4xx_HAL_Driver/Src/stm32f4xx_hal_i2s_ex.c ****   __IO uint32_t i2scr2    = hi2s->Instance->CR2;
 2283              		.loc 1 680 3 is_stmt 1 view .LVU739
 680:Drivers/STM32F4xx_HAL_Driver/Src/stm32f4xx_hal_i2s_ex.c ****   __IO uint32_t i2scr2    = hi2s->Instance->CR2;
 2284              		.loc 1 680 29 is_stmt 0 view .LVU740
 2285 000c 704A     		ldr	r2, .L244
 2286 000e 9342     		cmp	r3, r2
 2287 0010 6FD0     		beq	.L235
 680:Drivers/STM32F4xx_HAL_Driver/Src/stm32f4xx_hal_i2s_ex.c ****   __IO uint32_t i2scr2    = hi2s->Instance->CR2;
 2288              		.loc 1 680 29 discriminator 2 view .LVU741
 2289 0012 4FF04022 		mov	r2, #1073758208
 2290              	.L215:
ARM GAS  /tmp/cc74GRYw.s 			page 73


 680:Drivers/STM32F4xx_HAL_Driver/Src/stm32f4xx_hal_i2s_ex.c ****   __IO uint32_t i2scr2    = hi2s->Instance->CR2;
 2291              		.loc 1 680 52 discriminator 4 view .LVU742
 2292 0016 9168     		ldr	r1, [r2, #8]
 680:Drivers/STM32F4xx_HAL_Driver/Src/stm32f4xx_hal_i2s_ex.c ****   __IO uint32_t i2scr2    = hi2s->Instance->CR2;
 2293              		.loc 1 680 17 discriminator 4 view .LVU743
 2294 0018 0491     		str	r1, [sp, #16]
 681:Drivers/STM32F4xx_HAL_Driver/Src/stm32f4xx_hal_i2s_ex.c ****   __IO uint32_t i2sextcr2 = I2SxEXT(hi2s->Instance)->CR2;
 2295              		.loc 1 681 3 is_stmt 1 view .LVU744
 681:Drivers/STM32F4xx_HAL_Driver/Src/stm32f4xx_hal_i2s_ex.c ****   __IO uint32_t i2sextcr2 = I2SxEXT(hi2s->Instance)->CR2;
 2296              		.loc 1 681 43 is_stmt 0 view .LVU745
 2297 001a 5B68     		ldr	r3, [r3, #4]
 681:Drivers/STM32F4xx_HAL_Driver/Src/stm32f4xx_hal_i2s_ex.c ****   __IO uint32_t i2sextcr2 = I2SxEXT(hi2s->Instance)->CR2;
 2298              		.loc 1 681 17 view .LVU746
 2299 001c 0393     		str	r3, [sp, #12]
 682:Drivers/STM32F4xx_HAL_Driver/Src/stm32f4xx_hal_i2s_ex.c **** 
 2300              		.loc 1 682 3 is_stmt 1 view .LVU747
 682:Drivers/STM32F4xx_HAL_Driver/Src/stm32f4xx_hal_i2s_ex.c **** 
 2301              		.loc 1 682 52 is_stmt 0 discriminator 4 view .LVU748
 2302 001e 5368     		ldr	r3, [r2, #4]
 682:Drivers/STM32F4xx_HAL_Driver/Src/stm32f4xx_hal_i2s_ex.c **** 
 2303              		.loc 1 682 17 discriminator 4 view .LVU749
 2304 0020 0293     		str	r3, [sp, #8]
 685:Drivers/STM32F4xx_HAL_Driver/Src/stm32f4xx_hal_i2s_ex.c ****   {
 2305              		.loc 1 685 3 is_stmt 1 view .LVU750
 685:Drivers/STM32F4xx_HAL_Driver/Src/stm32f4xx_hal_i2s_ex.c ****   {
 2306              		.loc 1 685 18 is_stmt 0 view .LVU751
 2307 0022 6368     		ldr	r3, [r4, #4]
 685:Drivers/STM32F4xx_HAL_Driver/Src/stm32f4xx_hal_i2s_ex.c ****   {
 2308              		.loc 1 685 6 view .LVU752
 2309 0024 B3F5007F 		cmp	r3, #512
 2310 0028 01D0     		beq	.L216
 685:Drivers/STM32F4xx_HAL_Driver/Src/stm32f4xx_hal_i2s_ex.c ****   {
 2311              		.loc 1 685 47 discriminator 1 view .LVU753
 2312 002a 002B     		cmp	r3, #0
 2313 002c 70D1     		bne	.L217
 2314              	.L216:
 688:Drivers/STM32F4xx_HAL_Driver/Src/stm32f4xx_hal_i2s_ex.c ****     {
 2315              		.loc 1 688 5 is_stmt 1 view .LVU754
 688:Drivers/STM32F4xx_HAL_Driver/Src/stm32f4xx_hal_i2s_ex.c ****     {
 2316              		.loc 1 688 17 is_stmt 0 view .LVU755
 2317 002e 059B     		ldr	r3, [sp, #20]
 688:Drivers/STM32F4xx_HAL_Driver/Src/stm32f4xx_hal_i2s_ex.c ****     {
 2318              		.loc 1 688 8 view .LVU756
 2319 0030 13F0020F 		tst	r3, #2
 2320 0034 03D0     		beq	.L218
 688:Drivers/STM32F4xx_HAL_Driver/Src/stm32f4xx_hal_i2s_ex.c ****     {
 2321              		.loc 1 688 62 discriminator 1 view .LVU757
 2322 0036 039B     		ldr	r3, [sp, #12]
 688:Drivers/STM32F4xx_HAL_Driver/Src/stm32f4xx_hal_i2s_ex.c ****     {
 2323              		.loc 1 688 50 discriminator 1 view .LVU758
 2324 0038 13F0800F 		tst	r3, #128
 2325 003c 5CD1     		bne	.L236
 2326              	.LVL126:
 2327              	.L218:
 696:Drivers/STM32F4xx_HAL_Driver/Src/stm32f4xx_hal_i2s_ex.c ****     {
 2328              		.loc 1 696 5 is_stmt 1 view .LVU759
 696:Drivers/STM32F4xx_HAL_Driver/Src/stm32f4xx_hal_i2s_ex.c ****     {
ARM GAS  /tmp/cc74GRYw.s 			page 74


 2329              		.loc 1 696 20 is_stmt 0 view .LVU760
 2330 003e 049B     		ldr	r3, [sp, #16]
 696:Drivers/STM32F4xx_HAL_Driver/Src/stm32f4xx_hal_i2s_ex.c ****     {
 2331              		.loc 1 696 8 view .LVU761
 2332 0040 13F0010F 		tst	r3, #1
 2333 0044 03D0     		beq	.L219
 696:Drivers/STM32F4xx_HAL_Driver/Src/stm32f4xx_hal_i2s_ex.c ****     {
 2334              		.loc 1 696 70 discriminator 1 view .LVU762
 2335 0046 029B     		ldr	r3, [sp, #8]
 696:Drivers/STM32F4xx_HAL_Driver/Src/stm32f4xx_hal_i2s_ex.c ****     {
 2336              		.loc 1 696 55 discriminator 1 view .LVU763
 2337 0048 13F0400F 		tst	r3, #64
 2338 004c 58D1     		bne	.L237
 2339              	.L219:
 704:Drivers/STM32F4xx_HAL_Driver/Src/stm32f4xx_hal_i2s_ex.c ****     {
 2340              		.loc 1 704 5 is_stmt 1 view .LVU764
 704:Drivers/STM32F4xx_HAL_Driver/Src/stm32f4xx_hal_i2s_ex.c ****     {
 2341              		.loc 1 704 20 is_stmt 0 view .LVU765
 2342 004e 049B     		ldr	r3, [sp, #16]
 704:Drivers/STM32F4xx_HAL_Driver/Src/stm32f4xx_hal_i2s_ex.c ****     {
 2343              		.loc 1 704 8 view .LVU766
 2344 0050 13F0400F 		tst	r3, #64
 2345 0054 24D0     		beq	.L220
 704:Drivers/STM32F4xx_HAL_Driver/Src/stm32f4xx_hal_i2s_ex.c ****     {
 2346              		.loc 1 704 68 discriminator 1 view .LVU767
 2347 0056 029B     		ldr	r3, [sp, #8]
 704:Drivers/STM32F4xx_HAL_Driver/Src/stm32f4xx_hal_i2s_ex.c ****     {
 2348              		.loc 1 704 53 discriminator 1 view .LVU768
 2349 0058 13F0200F 		tst	r3, #32
 2350 005c 20D0     		beq	.L220
 707:Drivers/STM32F4xx_HAL_Driver/Src/stm32f4xx_hal_i2s_ex.c **** 
 2351              		.loc 1 707 7 is_stmt 1 view .LVU769
 2352 005e 2268     		ldr	r2, [r4]
 2353 0060 5B4B     		ldr	r3, .L244
 2354 0062 9A42     		cmp	r2, r3
 2355 0064 50D0     		beq	.L238
 707:Drivers/STM32F4xx_HAL_Driver/Src/stm32f4xx_hal_i2s_ex.c **** 
 2356              		.loc 1 707 7 is_stmt 0 discriminator 2 view .LVU770
 2357 0066 4FF04022 		mov	r2, #1073758208
 2358              	.L221:
 707:Drivers/STM32F4xx_HAL_Driver/Src/stm32f4xx_hal_i2s_ex.c **** 
 2359              		.loc 1 707 7 discriminator 4 view .LVU771
 2360 006a 5368     		ldr	r3, [r2, #4]
 707:Drivers/STM32F4xx_HAL_Driver/Src/stm32f4xx_hal_i2s_ex.c **** 
 2361              		.loc 1 707 7 discriminator 8 view .LVU772
 2362 006c 23F06003 		bic	r3, r3, #96
 2363 0070 5360     		str	r3, [r2, #4]
 710:Drivers/STM32F4xx_HAL_Driver/Src/stm32f4xx_hal_i2s_ex.c **** 
 2364              		.loc 1 710 7 is_stmt 1 view .LVU773
 2365 0072 2268     		ldr	r2, [r4]
 2366 0074 5368     		ldr	r3, [r2, #4]
 2367 0076 23F0A003 		bic	r3, r3, #160
 2368 007a 5360     		str	r3, [r2, #4]
 713:Drivers/STM32F4xx_HAL_Driver/Src/stm32f4xx_hal_i2s_ex.c **** 
 2369              		.loc 1 713 7 view .LVU774
 2370              	.LBB10:
 713:Drivers/STM32F4xx_HAL_Driver/Src/stm32f4xx_hal_i2s_ex.c **** 
ARM GAS  /tmp/cc74GRYw.s 			page 75


 2371              		.loc 1 713 7 view .LVU775
 2372 007c 0023     		movs	r3, #0
 2373 007e 0093     		str	r3, [sp]
 713:Drivers/STM32F4xx_HAL_Driver/Src/stm32f4xx_hal_i2s_ex.c **** 
 2374              		.loc 1 713 7 view .LVU776
 2375 0080 2368     		ldr	r3, [r4]
 2376 0082 DA68     		ldr	r2, [r3, #12]
 2377 0084 0092     		str	r2, [sp]
 713:Drivers/STM32F4xx_HAL_Driver/Src/stm32f4xx_hal_i2s_ex.c **** 
 2378              		.loc 1 713 7 view .LVU777
 2379 0086 9B68     		ldr	r3, [r3, #8]
 2380 0088 0093     		str	r3, [sp]
 713:Drivers/STM32F4xx_HAL_Driver/Src/stm32f4xx_hal_i2s_ex.c **** 
 2381              		.loc 1 713 7 view .LVU778
 2382 008a 009B     		ldr	r3, [sp]
 2383              	.LBE10:
 713:Drivers/STM32F4xx_HAL_Driver/Src/stm32f4xx_hal_i2s_ex.c **** 
 2384              		.loc 1 713 7 view .LVU779
 716:Drivers/STM32F4xx_HAL_Driver/Src/stm32f4xx_hal_i2s_ex.c **** 
 2385              		.loc 1 716 7 view .LVU780
 716:Drivers/STM32F4xx_HAL_Driver/Src/stm32f4xx_hal_i2s_ex.c **** 
 2386              		.loc 1 716 19 is_stmt 0 view .LVU781
 2387 008c 0123     		movs	r3, #1
 2388 008e 84F84130 		strb	r3, [r4, #65]
 719:Drivers/STM32F4xx_HAL_Driver/Src/stm32f4xx_hal_i2s_ex.c ****       /* Call user error callback */
 2389              		.loc 1 719 7 is_stmt 1 view .LVU782
 2390 0092 636C     		ldr	r3, [r4, #68]
 2391 0094 43F00203 		orr	r3, r3, #2
 2392 0098 6364     		str	r3, [r4, #68]
 724:Drivers/STM32F4xx_HAL_Driver/Src/stm32f4xx_hal_i2s_ex.c **** #endif /* USE_HAL_I2S_REGISTER_CALLBACKS */
 2393              		.loc 1 724 7 view .LVU783
 2394 009a 2046     		mov	r0, r4
 2395 009c FFF7FEFF 		bl	HAL_I2S_ErrorCallback
 2396              	.LVL127:
 2397              	.L220:
 729:Drivers/STM32F4xx_HAL_Driver/Src/stm32f4xx_hal_i2s_ex.c ****     {
 2398              		.loc 1 729 5 view .LVU784
 729:Drivers/STM32F4xx_HAL_Driver/Src/stm32f4xx_hal_i2s_ex.c ****     {
 2399              		.loc 1 729 17 is_stmt 0 view .LVU785
 2400 00a0 059B     		ldr	r3, [sp, #20]
 729:Drivers/STM32F4xx_HAL_Driver/Src/stm32f4xx_hal_i2s_ex.c ****     {
 2401              		.loc 1 729 8 view .LVU786
 2402 00a2 13F0080F 		tst	r3, #8
 2403 00a6 22D0     		beq	.L214
 729:Drivers/STM32F4xx_HAL_Driver/Src/stm32f4xx_hal_i2s_ex.c ****     {
 2404              		.loc 1 729 62 discriminator 1 view .LVU787
 2405 00a8 039B     		ldr	r3, [sp, #12]
 729:Drivers/STM32F4xx_HAL_Driver/Src/stm32f4xx_hal_i2s_ex.c ****     {
 2406              		.loc 1 729 50 discriminator 1 view .LVU788
 2407 00aa 13F0200F 		tst	r3, #32
 2408 00ae 1ED0     		beq	.L214
 732:Drivers/STM32F4xx_HAL_Driver/Src/stm32f4xx_hal_i2s_ex.c **** 
 2409              		.loc 1 732 7 is_stmt 1 view .LVU789
 2410 00b0 2268     		ldr	r2, [r4]
 2411 00b2 5368     		ldr	r3, [r2, #4]
 2412 00b4 23F0A003 		bic	r3, r3, #160
 2413 00b8 5360     		str	r3, [r2, #4]
ARM GAS  /tmp/cc74GRYw.s 			page 76


 735:Drivers/STM32F4xx_HAL_Driver/Src/stm32f4xx_hal_i2s_ex.c **** 
 2414              		.loc 1 735 7 view .LVU790
 2415 00ba 2268     		ldr	r2, [r4]
 2416 00bc 444B     		ldr	r3, .L244
 2417 00be 9A42     		cmp	r2, r3
 2418 00c0 24D0     		beq	.L239
 735:Drivers/STM32F4xx_HAL_Driver/Src/stm32f4xx_hal_i2s_ex.c **** 
 2419              		.loc 1 735 7 is_stmt 0 discriminator 2 view .LVU791
 2420 00c2 4FF04022 		mov	r2, #1073758208
 2421              	.L223:
 735:Drivers/STM32F4xx_HAL_Driver/Src/stm32f4xx_hal_i2s_ex.c **** 
 2422              		.loc 1 735 7 discriminator 4 view .LVU792
 2423 00c6 5368     		ldr	r3, [r2, #4]
 735:Drivers/STM32F4xx_HAL_Driver/Src/stm32f4xx_hal_i2s_ex.c **** 
 2424              		.loc 1 735 7 discriminator 8 view .LVU793
 2425 00c8 23F06003 		bic	r3, r3, #96
 2426 00cc 5360     		str	r3, [r2, #4]
 738:Drivers/STM32F4xx_HAL_Driver/Src/stm32f4xx_hal_i2s_ex.c **** 
 2427              		.loc 1 738 7 is_stmt 1 view .LVU794
 2428              	.LBB11:
 738:Drivers/STM32F4xx_HAL_Driver/Src/stm32f4xx_hal_i2s_ex.c **** 
 2429              		.loc 1 738 7 view .LVU795
 2430 00ce 0023     		movs	r3, #0
 2431 00d0 0193     		str	r3, [sp, #4]
 738:Drivers/STM32F4xx_HAL_Driver/Src/stm32f4xx_hal_i2s_ex.c **** 
 2432              		.loc 1 738 7 view .LVU796
 2433 00d2 2368     		ldr	r3, [r4]
 2434 00d4 9B68     		ldr	r3, [r3, #8]
 2435 00d6 0193     		str	r3, [sp, #4]
 738:Drivers/STM32F4xx_HAL_Driver/Src/stm32f4xx_hal_i2s_ex.c **** 
 2436              		.loc 1 738 7 view .LVU797
 2437 00d8 019B     		ldr	r3, [sp, #4]
 2438              	.LBE11:
 738:Drivers/STM32F4xx_HAL_Driver/Src/stm32f4xx_hal_i2s_ex.c **** 
 2439              		.loc 1 738 7 view .LVU798
 741:Drivers/STM32F4xx_HAL_Driver/Src/stm32f4xx_hal_i2s_ex.c **** 
 2440              		.loc 1 741 7 view .LVU799
 741:Drivers/STM32F4xx_HAL_Driver/Src/stm32f4xx_hal_i2s_ex.c **** 
 2441              		.loc 1 741 19 is_stmt 0 view .LVU800
 2442 00da 0123     		movs	r3, #1
 2443 00dc 84F84130 		strb	r3, [r4, #65]
 744:Drivers/STM32F4xx_HAL_Driver/Src/stm32f4xx_hal_i2s_ex.c ****       /* Call user error callback */
 2444              		.loc 1 744 7 is_stmt 1 view .LVU801
 2445 00e0 636C     		ldr	r3, [r4, #68]
 2446 00e2 43F00403 		orr	r3, r3, #4
 2447 00e6 6364     		str	r3, [r4, #68]
 749:Drivers/STM32F4xx_HAL_Driver/Src/stm32f4xx_hal_i2s_ex.c **** #endif /* USE_HAL_I2S_REGISTER_CALLBACKS */
 2448              		.loc 1 749 7 view .LVU802
 2449 00e8 2046     		mov	r0, r4
 2450 00ea FFF7FEFF 		bl	HAL_I2S_ErrorCallback
 2451              	.LVL128:
 2452              	.L214:
 816:Drivers/STM32F4xx_HAL_Driver/Src/stm32f4xx_hal_i2s_ex.c **** 
 2453              		.loc 1 816 1 is_stmt 0 view .LVU803
 2454 00ee 06B0     		add	sp, sp, #24
 2455              		.cfi_remember_state
 2456              		.cfi_def_cfa_offset 8
ARM GAS  /tmp/cc74GRYw.s 			page 77


 2457              		@ sp needed
 2458 00f0 10BD     		pop	{r4, pc}
 2459              	.LVL129:
 2460              	.L235:
 2461              		.cfi_restore_state
 680:Drivers/STM32F4xx_HAL_Driver/Src/stm32f4xx_hal_i2s_ex.c ****   __IO uint32_t i2scr2    = hi2s->Instance->CR2;
 2462              		.loc 1 680 29 discriminator 1 view .LVU804
 2463 00f2 A2F58062 		sub	r2, r2, #1024
 2464 00f6 8EE7     		b	.L215
 2465              	.L236:
 692:Drivers/STM32F4xx_HAL_Driver/Src/stm32f4xx_hal_i2s_ex.c ****     }
 2466              		.loc 1 692 7 is_stmt 1 view .LVU805
 2467 00f8 2046     		mov	r0, r4
 2468              	.LVL130:
 692:Drivers/STM32F4xx_HAL_Driver/Src/stm32f4xx_hal_i2s_ex.c ****     }
 2469              		.loc 1 692 7 is_stmt 0 view .LVU806
 2470 00fa FFF7FEFF 		bl	I2SEx_TxISR_I2S
 2471              	.LVL131:
 2472 00fe 9EE7     		b	.L218
 2473              	.L237:
 700:Drivers/STM32F4xx_HAL_Driver/Src/stm32f4xx_hal_i2s_ex.c ****     }
 2474              		.loc 1 700 7 is_stmt 1 view .LVU807
 2475 0100 2046     		mov	r0, r4
 2476 0102 FFF7FEFF 		bl	I2SEx_RxISR_I2SExt
 2477              	.LVL132:
 2478 0106 A2E7     		b	.L219
 2479              	.L238:
 707:Drivers/STM32F4xx_HAL_Driver/Src/stm32f4xx_hal_i2s_ex.c **** 
 2480              		.loc 1 707 7 is_stmt 0 discriminator 1 view .LVU808
 2481 0108 324A     		ldr	r2, .L244+4
 2482 010a AEE7     		b	.L221
 2483              	.L239:
 735:Drivers/STM32F4xx_HAL_Driver/Src/stm32f4xx_hal_i2s_ex.c **** 
 2484              		.loc 1 735 7 discriminator 1 view .LVU809
 2485 010c 314A     		ldr	r2, .L244+4
 2486 010e DAE7     		b	.L223
 2487              	.LVL133:
 2488              	.L217:
 757:Drivers/STM32F4xx_HAL_Driver/Src/stm32f4xx_hal_i2s_ex.c ****     {
 2489              		.loc 1 757 5 is_stmt 1 view .LVU810
 757:Drivers/STM32F4xx_HAL_Driver/Src/stm32f4xx_hal_i2s_ex.c ****     {
 2490              		.loc 1 757 20 is_stmt 0 view .LVU811
 2491 0110 049B     		ldr	r3, [sp, #16]
 757:Drivers/STM32F4xx_HAL_Driver/Src/stm32f4xx_hal_i2s_ex.c ****     {
 2492              		.loc 1 757 8 view .LVU812
 2493 0112 13F0020F 		tst	r3, #2
 2494 0116 03D0     		beq	.L224
 757:Drivers/STM32F4xx_HAL_Driver/Src/stm32f4xx_hal_i2s_ex.c ****     {
 2495              		.loc 1 757 68 discriminator 1 view .LVU813
 2496 0118 029B     		ldr	r3, [sp, #8]
 757:Drivers/STM32F4xx_HAL_Driver/Src/stm32f4xx_hal_i2s_ex.c ****     {
 2497              		.loc 1 757 53 discriminator 1 view .LVU814
 2498 011a 13F0800F 		tst	r3, #128
 2499 011e 4AD1     		bne	.L240
 2500              	.LVL134:
 2501              	.L224:
 765:Drivers/STM32F4xx_HAL_Driver/Src/stm32f4xx_hal_i2s_ex.c ****     {
ARM GAS  /tmp/cc74GRYw.s 			page 78


 2502              		.loc 1 765 5 is_stmt 1 view .LVU815
 765:Drivers/STM32F4xx_HAL_Driver/Src/stm32f4xx_hal_i2s_ex.c ****     {
 2503              		.loc 1 765 17 is_stmt 0 view .LVU816
 2504 0120 059B     		ldr	r3, [sp, #20]
 765:Drivers/STM32F4xx_HAL_Driver/Src/stm32f4xx_hal_i2s_ex.c ****     {
 2505              		.loc 1 765 8 view .LVU817
 2506 0122 13F0010F 		tst	r3, #1
 2507 0126 03D0     		beq	.L225
 765:Drivers/STM32F4xx_HAL_Driver/Src/stm32f4xx_hal_i2s_ex.c ****     {
 2508              		.loc 1 765 64 discriminator 1 view .LVU818
 2509 0128 039B     		ldr	r3, [sp, #12]
 765:Drivers/STM32F4xx_HAL_Driver/Src/stm32f4xx_hal_i2s_ex.c ****     {
 2510              		.loc 1 765 52 discriminator 1 view .LVU819
 2511 012a 13F0400F 		tst	r3, #64
 2512 012e 46D1     		bne	.L241
 2513              	.L225:
 773:Drivers/STM32F4xx_HAL_Driver/Src/stm32f4xx_hal_i2s_ex.c ****     {
 2514              		.loc 1 773 5 is_stmt 1 view .LVU820
 773:Drivers/STM32F4xx_HAL_Driver/Src/stm32f4xx_hal_i2s_ex.c ****     {
 2515              		.loc 1 773 17 is_stmt 0 view .LVU821
 2516 0130 059B     		ldr	r3, [sp, #20]
 773:Drivers/STM32F4xx_HAL_Driver/Src/stm32f4xx_hal_i2s_ex.c ****     {
 2517              		.loc 1 773 8 view .LVU822
 2518 0132 13F0400F 		tst	r3, #64
 2519 0136 1CD0     		beq	.L226
 773:Drivers/STM32F4xx_HAL_Driver/Src/stm32f4xx_hal_i2s_ex.c ****     {
 2520              		.loc 1 773 62 discriminator 1 view .LVU823
 2521 0138 039B     		ldr	r3, [sp, #12]
 773:Drivers/STM32F4xx_HAL_Driver/Src/stm32f4xx_hal_i2s_ex.c ****     {
 2522              		.loc 1 773 50 discriminator 1 view .LVU824
 2523 013a 13F0200F 		tst	r3, #32
 2524 013e 18D0     		beq	.L226
 776:Drivers/STM32F4xx_HAL_Driver/Src/stm32f4xx_hal_i2s_ex.c **** 
 2525              		.loc 1 776 7 is_stmt 1 view .LVU825
 2526 0140 2268     		ldr	r2, [r4]
 2527 0142 5368     		ldr	r3, [r2, #4]
 2528 0144 23F06003 		bic	r3, r3, #96
 2529 0148 5360     		str	r3, [r2, #4]
 779:Drivers/STM32F4xx_HAL_Driver/Src/stm32f4xx_hal_i2s_ex.c **** 
 2530              		.loc 1 779 7 view .LVU826
 2531 014a 2268     		ldr	r2, [r4]
 2532 014c 204B     		ldr	r3, .L244
 2533 014e 9A42     		cmp	r2, r3
 2534 0150 39D0     		beq	.L242
 779:Drivers/STM32F4xx_HAL_Driver/Src/stm32f4xx_hal_i2s_ex.c **** 
 2535              		.loc 1 779 7 is_stmt 0 discriminator 2 view .LVU827
 2536 0152 4FF04022 		mov	r2, #1073758208
 2537              	.L227:
 779:Drivers/STM32F4xx_HAL_Driver/Src/stm32f4xx_hal_i2s_ex.c **** 
 2538              		.loc 1 779 7 discriminator 4 view .LVU828
 2539 0156 5368     		ldr	r3, [r2, #4]
 779:Drivers/STM32F4xx_HAL_Driver/Src/stm32f4xx_hal_i2s_ex.c **** 
 2540              		.loc 1 779 7 discriminator 8 view .LVU829
 2541 0158 23F0A003 		bic	r3, r3, #160
 2542 015c 5360     		str	r3, [r2, #4]
 782:Drivers/STM32F4xx_HAL_Driver/Src/stm32f4xx_hal_i2s_ex.c **** 
 2543              		.loc 1 782 7 is_stmt 1 view .LVU830
ARM GAS  /tmp/cc74GRYw.s 			page 79


 782:Drivers/STM32F4xx_HAL_Driver/Src/stm32f4xx_hal_i2s_ex.c **** 
 2544              		.loc 1 782 19 is_stmt 0 view .LVU831
 2545 015e 0123     		movs	r3, #1
 2546 0160 84F84130 		strb	r3, [r4, #65]
 785:Drivers/STM32F4xx_HAL_Driver/Src/stm32f4xx_hal_i2s_ex.c ****       /* Call user error callback */
 2547              		.loc 1 785 7 is_stmt 1 view .LVU832
 2548 0164 636C     		ldr	r3, [r4, #68]
 2549 0166 43F00203 		orr	r3, r3, #2
 2550 016a 6364     		str	r3, [r4, #68]
 790:Drivers/STM32F4xx_HAL_Driver/Src/stm32f4xx_hal_i2s_ex.c **** #endif /* USE_HAL_I2S_REGISTER_CALLBACKS */
 2551              		.loc 1 790 7 view .LVU833
 2552 016c 2046     		mov	r0, r4
 2553 016e FFF7FEFF 		bl	HAL_I2S_ErrorCallback
 2554              	.LVL135:
 2555              	.L226:
 795:Drivers/STM32F4xx_HAL_Driver/Src/stm32f4xx_hal_i2s_ex.c ****     {
 2556              		.loc 1 795 5 view .LVU834
 795:Drivers/STM32F4xx_HAL_Driver/Src/stm32f4xx_hal_i2s_ex.c ****     {
 2557              		.loc 1 795 20 is_stmt 0 view .LVU835
 2558 0172 049B     		ldr	r3, [sp, #16]
 795:Drivers/STM32F4xx_HAL_Driver/Src/stm32f4xx_hal_i2s_ex.c ****     {
 2559              		.loc 1 795 8 view .LVU836
 2560 0174 13F0080F 		tst	r3, #8
 2561 0178 B9D0     		beq	.L214
 795:Drivers/STM32F4xx_HAL_Driver/Src/stm32f4xx_hal_i2s_ex.c ****     {
 2562              		.loc 1 795 68 discriminator 1 view .LVU837
 2563 017a 029B     		ldr	r3, [sp, #8]
 795:Drivers/STM32F4xx_HAL_Driver/Src/stm32f4xx_hal_i2s_ex.c ****     {
 2564              		.loc 1 795 53 discriminator 1 view .LVU838
 2565 017c 13F0200F 		tst	r3, #32
 2566 0180 B5D0     		beq	.L214
 798:Drivers/STM32F4xx_HAL_Driver/Src/stm32f4xx_hal_i2s_ex.c **** 
 2567              		.loc 1 798 7 is_stmt 1 view .LVU839
 2568 0182 2268     		ldr	r2, [r4]
 2569 0184 124B     		ldr	r3, .L244
 2570 0186 9A42     		cmp	r2, r3
 2571 0188 1FD0     		beq	.L243
 798:Drivers/STM32F4xx_HAL_Driver/Src/stm32f4xx_hal_i2s_ex.c **** 
 2572              		.loc 1 798 7 is_stmt 0 discriminator 2 view .LVU840
 2573 018a 4FF04022 		mov	r2, #1073758208
 2574              	.L228:
 798:Drivers/STM32F4xx_HAL_Driver/Src/stm32f4xx_hal_i2s_ex.c **** 
 2575              		.loc 1 798 7 discriminator 4 view .LVU841
 2576 018e 5368     		ldr	r3, [r2, #4]
 798:Drivers/STM32F4xx_HAL_Driver/Src/stm32f4xx_hal_i2s_ex.c **** 
 2577              		.loc 1 798 7 discriminator 8 view .LVU842
 2578 0190 23F0A003 		bic	r3, r3, #160
 2579 0194 5360     		str	r3, [r2, #4]
 801:Drivers/STM32F4xx_HAL_Driver/Src/stm32f4xx_hal_i2s_ex.c **** 
 2580              		.loc 1 801 7 is_stmt 1 view .LVU843
 2581 0196 2268     		ldr	r2, [r4]
 2582 0198 5368     		ldr	r3, [r2, #4]
 2583 019a 23F06003 		bic	r3, r3, #96
 2584 019e 5360     		str	r3, [r2, #4]
 804:Drivers/STM32F4xx_HAL_Driver/Src/stm32f4xx_hal_i2s_ex.c **** 
 2585              		.loc 1 804 7 view .LVU844
 804:Drivers/STM32F4xx_HAL_Driver/Src/stm32f4xx_hal_i2s_ex.c **** 
ARM GAS  /tmp/cc74GRYw.s 			page 80


 2586              		.loc 1 804 19 is_stmt 0 view .LVU845
 2587 01a0 0123     		movs	r3, #1
 2588 01a2 84F84130 		strb	r3, [r4, #65]
 807:Drivers/STM32F4xx_HAL_Driver/Src/stm32f4xx_hal_i2s_ex.c ****       /* Call user error callback */
 2589              		.loc 1 807 7 is_stmt 1 view .LVU846
 2590 01a6 636C     		ldr	r3, [r4, #68]
 2591 01a8 43F00403 		orr	r3, r3, #4
 2592 01ac 6364     		str	r3, [r4, #68]
 812:Drivers/STM32F4xx_HAL_Driver/Src/stm32f4xx_hal_i2s_ex.c **** #endif /* USE_HAL_I2S_REGISTER_CALLBACKS */
 2593              		.loc 1 812 7 view .LVU847
 2594 01ae 2046     		mov	r0, r4
 2595 01b0 FFF7FEFF 		bl	HAL_I2S_ErrorCallback
 2596              	.LVL136:
 816:Drivers/STM32F4xx_HAL_Driver/Src/stm32f4xx_hal_i2s_ex.c **** 
 2597              		.loc 1 816 1 is_stmt 0 view .LVU848
 2598 01b4 9BE7     		b	.L214
 2599              	.LVL137:
 2600              	.L240:
 761:Drivers/STM32F4xx_HAL_Driver/Src/stm32f4xx_hal_i2s_ex.c ****     }
 2601              		.loc 1 761 7 is_stmt 1 view .LVU849
 2602 01b6 2046     		mov	r0, r4
 2603              	.LVL138:
 761:Drivers/STM32F4xx_HAL_Driver/Src/stm32f4xx_hal_i2s_ex.c ****     }
 2604              		.loc 1 761 7 is_stmt 0 view .LVU850
 2605 01b8 FFF7FEFF 		bl	I2SEx_TxISR_I2SExt
 2606              	.LVL139:
 2607 01bc B0E7     		b	.L224
 2608              	.L241:
 769:Drivers/STM32F4xx_HAL_Driver/Src/stm32f4xx_hal_i2s_ex.c ****     }
 2609              		.loc 1 769 7 is_stmt 1 view .LVU851
 2610 01be 2046     		mov	r0, r4
 2611 01c0 FFF7FEFF 		bl	I2SEx_RxISR_I2S
 2612              	.LVL140:
 2613 01c4 B4E7     		b	.L225
 2614              	.L242:
 779:Drivers/STM32F4xx_HAL_Driver/Src/stm32f4xx_hal_i2s_ex.c **** 
 2615              		.loc 1 779 7 is_stmt 0 discriminator 1 view .LVU852
 2616 01c6 034A     		ldr	r2, .L244+4
 2617 01c8 C5E7     		b	.L227
 2618              	.L243:
 798:Drivers/STM32F4xx_HAL_Driver/Src/stm32f4xx_hal_i2s_ex.c **** 
 2619              		.loc 1 798 7 discriminator 1 view .LVU853
 2620 01ca 024A     		ldr	r2, .L244+4
 2621 01cc DFE7     		b	.L228
 2622              	.L245:
 2623 01ce 00BF     		.align	2
 2624              	.L244:
 2625 01d0 00380040 		.word	1073756160
 2626 01d4 00340040 		.word	1073755136
 2627              		.cfi_endproc
 2628              	.LFE133:
 2630              		.text
 2631              	.Letext0:
 2632              		.file 2 "/usr/arm-none-eabi/include/machine/_default_types.h"
 2633              		.file 3 "/usr/arm-none-eabi/include/sys/_stdint.h"
 2634              		.file 4 "Drivers/CMSIS/Device/ST/STM32F4xx/Include/stm32f401xc.h"
 2635              		.file 5 "Drivers/CMSIS/Device/ST/STM32F4xx/Include/stm32f4xx.h"
ARM GAS  /tmp/cc74GRYw.s 			page 81


 2636              		.file 6 "Drivers/STM32F4xx_HAL_Driver/Inc/stm32f4xx_hal_def.h"
 2637              		.file 7 "Drivers/STM32F4xx_HAL_Driver/Inc/stm32f4xx_hal_dma.h"
 2638              		.file 8 "Drivers/STM32F4xx_HAL_Driver/Inc/stm32f4xx_hal_i2s.h"
 2639              		.file 9 "Drivers/STM32F4xx_HAL_Driver/Inc/stm32f4xx_hal.h"
ARM GAS  /tmp/cc74GRYw.s 			page 82


DEFINED SYMBOLS
                            *ABS*:00000000 stm32f4xx_hal_i2s_ex.c
     /tmp/cc74GRYw.s:21     .text.I2SEx_FullDuplexWaitFlagStateUntilTimeout:00000000 $t
     /tmp/cc74GRYw.s:26     .text.I2SEx_FullDuplexWaitFlagStateUntilTimeout:00000000 I2SEx_FullDuplexWaitFlagStateUntilTimeout
     /tmp/cc74GRYw.s:183    .text.I2SEx_FullDuplexWaitFlagStateUntilTimeout:000000a8 $d
     /tmp/cc74GRYw.s:188    .text.I2SEx_TxRxDMAError:00000000 $t
     /tmp/cc74GRYw.s:193    .text.I2SEx_TxRxDMAError:00000000 I2SEx_TxRxDMAError
     /tmp/cc74GRYw.s:255    .text.I2SEx_TxRxDMAError:00000040 $d
     /tmp/cc74GRYw.s:261    .text.HAL_I2SEx_TransmitReceive:00000000 $t
     /tmp/cc74GRYw.s:267    .text.HAL_I2SEx_TransmitReceive:00000000 HAL_I2SEx_TransmitReceive
     /tmp/cc74GRYw.s:861    .text.HAL_I2SEx_TransmitReceive:000002c0 $d
     /tmp/cc74GRYw.s:866    .text.HAL_I2SEx_TransmitReceive:000002c8 $t
     /tmp/cc74GRYw.s:964    .text.HAL_I2SEx_TransmitReceive_IT:00000000 $t
     /tmp/cc74GRYw.s:970    .text.HAL_I2SEx_TransmitReceive_IT:00000000 HAL_I2SEx_TransmitReceive_IT
     /tmp/cc74GRYw.s:1276   .text.HAL_I2SEx_TransmitReceive_IT:00000198 $d
     /tmp/cc74GRYw.s:1282   .text.HAL_I2SEx_TransmitReceive_DMA:00000000 $t
     /tmp/cc74GRYw.s:1288   .text.HAL_I2SEx_TransmitReceive_DMA:00000000 HAL_I2SEx_TransmitReceive_DMA
     /tmp/cc74GRYw.s:1711   .text.HAL_I2SEx_TransmitReceive_DMA:000001cc $d
     /tmp/cc74GRYw.s:1746   .text.I2SEx_TxRxDMAHalfCplt:00000000 I2SEx_TxRxDMAHalfCplt
     /tmp/cc74GRYw.s:1798   .text.I2SEx_TxRxDMACplt:00000000 I2SEx_TxRxDMACplt
     /tmp/cc74GRYw.s:1720   .text.HAL_I2SEx_TxRxHalfCpltCallback:00000000 $t
     /tmp/cc74GRYw.s:1726   .text.HAL_I2SEx_TxRxHalfCpltCallback:00000000 HAL_I2SEx_TxRxHalfCpltCallback
     /tmp/cc74GRYw.s:1741   .text.I2SEx_TxRxDMAHalfCplt:00000000 $t
     /tmp/cc74GRYw.s:1772   .text.HAL_I2SEx_TxRxCpltCallback:00000000 $t
     /tmp/cc74GRYw.s:1778   .text.HAL_I2SEx_TxRxCpltCallback:00000000 HAL_I2SEx_TxRxCpltCallback
     /tmp/cc74GRYw.s:1793   .text.I2SEx_TxRxDMACplt:00000000 $t
     /tmp/cc74GRYw.s:1903   .text.I2SEx_TxRxDMACplt:00000074 $d
     /tmp/cc74GRYw.s:1909   .text.I2SEx_TxISR_I2S:00000000 $t
     /tmp/cc74GRYw.s:1914   .text.I2SEx_TxISR_I2S:00000000 I2SEx_TxISR_I2S
     /tmp/cc74GRYw.s:1982   .text.I2SEx_RxISR_I2SExt:00000000 $t
     /tmp/cc74GRYw.s:1987   .text.I2SEx_RxISR_I2SExt:00000000 I2SEx_RxISR_I2SExt
     /tmp/cc74GRYw.s:2076   .text.I2SEx_RxISR_I2SExt:0000005c $d
     /tmp/cc74GRYw.s:2082   .text.I2SEx_TxISR_I2SExt:00000000 $t
     /tmp/cc74GRYw.s:2087   .text.I2SEx_TxISR_I2SExt:00000000 I2SEx_TxISR_I2SExt
     /tmp/cc74GRYw.s:2176   .text.I2SEx_TxISR_I2SExt:0000005c $d
     /tmp/cc74GRYw.s:2182   .text.I2SEx_RxISR_I2S:00000000 $t
     /tmp/cc74GRYw.s:2187   .text.I2SEx_RxISR_I2S:00000000 I2SEx_RxISR_I2S
     /tmp/cc74GRYw.s:2255   .text.HAL_I2SEx_FullDuplex_IRQHandler:00000000 $t
     /tmp/cc74GRYw.s:2261   .text.HAL_I2SEx_FullDuplex_IRQHandler:00000000 HAL_I2SEx_FullDuplex_IRQHandler
     /tmp/cc74GRYw.s:2625   .text.HAL_I2SEx_FullDuplex_IRQHandler:000001d0 $d

UNDEFINED SYMBOLS
HAL_GetTick
HAL_I2S_ErrorCallback
HAL_DMA_Start_IT
